0:Math_pow
1:enlargeMemory
2:getTotalMemory
3:abortOnCannotGrowMemory
4:abortStackOverflow
5:nullFunc_dd
6:nullFunc_dddi
7:nullFunc_ddi
8:nullFunc_dfi
9:nullFunc_di
10:nullFunc_diddi
11:nullFunc_didi
12:nullFunc_dii
13:nullFunc_diii
14:nullFunc_diiii
15:nullFunc_dji
16:nullFunc_f
17:nullFunc_fdi
18:nullFunc_ff
19:nullFunc_fff
20:nullFunc_ffffi
21:nullFunc_fffi
22:nullFunc_fffifffi
23:nullFunc_ffi
24:nullFunc_fi
25:nullFunc_fif
26:nullFunc_fiffi
27:nullFunc_fifi
28:nullFunc_fifii
29:nullFunc_fii
30:nullFunc_fiifi
31:nullFunc_fiifii
32:nullFunc_fiii
33:nullFunc_fiiii
34:nullFunc_fji
35:nullFunc_i
36:nullFunc_idi
37:nullFunc_idiii
38:nullFunc_ifffi
39:nullFunc_iffi
40:nullFunc_ifi
41:nullFunc_ifiii
42:nullFunc_ii
43:nullFunc_iidi
44:nullFunc_iidii
45:nullFunc_iifffi
46:nullFunc_iiffi
47:nullFunc_iiffiii
48:nullFunc_iifi
49:nullFunc_iifii
50:nullFunc_iifiii
51:nullFunc_iii
52:nullFunc_iiif
53:nullFunc_iiifi
54:nullFunc_iiifii
55:nullFunc_iiifiii
56:nullFunc_iiifiiii
57:nullFunc_iiii
58:nullFunc_iiiifii
59:nullFunc_iiiifiii
60:nullFunc_iiiifiiii
61:nullFunc_iiiii
62:nullFunc_iiiiii
63:nullFunc_iiiiiifffiiifiii
64:nullFunc_iiiiiiffiiiiiiiiiffffiii
65:nullFunc_iiiiiiffiiiiiiiiiffffiiii
66:nullFunc_iiiiiiffiiiiiiiiiiiiiii
67:nullFunc_iiiiiii
68:nullFunc_iiiiiiii
69:nullFunc_iiiiiiiii
70:nullFunc_iiiiiiiiii
71:nullFunc_iiiiiiiiiii
72:nullFunc_iiiiiiiiiiii
73:nullFunc_iiiiiiiiiiiii
74:nullFunc_iiiiiiiiiiiiii
75:nullFunc_iiiiiji
76:nullFunc_iiiij
77:nullFunc_iiiiji
78:nullFunc_iiiijii
79:nullFunc_iiij
80:nullFunc_iiiji
81:nullFunc_iiijii
82:nullFunc_iiijji
83:nullFunc_iij
84:nullFunc_iiji
85:nullFunc_iijii
86:nullFunc_iijiii
87:nullFunc_iijji
88:nullFunc_iijjii
89:nullFunc_iijjiii
90:nullFunc_iijjji
91:nullFunc_ij
92:nullFunc_iji
93:nullFunc_ijiii
94:nullFunc_ijj
95:nullFunc_ijji
96:nullFunc_jdi
97:nullFunc_jdii
98:nullFunc_jfi
99:nullFunc_ji
100:nullFunc_jidi
101:nullFunc_jidii
102:nullFunc_jii
103:nullFunc_jiii
104:nullFunc_jiiii
105:nullFunc_jiiiii
106:nullFunc_jiiiiii
107:nullFunc_jiiiiiiiiii
108:nullFunc_jiiji
109:nullFunc_jiji
110:nullFunc_jijii
111:nullFunc_jijiii
112:nullFunc_jijji
113:nullFunc_jji
114:nullFunc_v
115:nullFunc_vd
116:nullFunc_vf
117:nullFunc_vff
118:nullFunc_vffff
119:nullFunc_vfi
120:nullFunc_vfii
121:nullFunc_vi
122:nullFunc_vid
123:nullFunc_vidi
124:nullFunc_vif
125:nullFunc_viff
126:nullFunc_vifff
127:nullFunc_viffff
128:nullFunc_viffffi
129:nullFunc_viffffii
130:nullFunc_vifffi
131:nullFunc_vifffii
132:nullFunc_viffi
133:nullFunc_viffii
134:nullFunc_viffiii
135:nullFunc_vifi
136:nullFunc_vifii
137:nullFunc_vii
138:nullFunc_viid
139:nullFunc_viidi
140:nullFunc_viidii
141:nullFunc_viif
142:nullFunc_viiff
143:nullFunc_viifff
144:nullFunc_viiffi
145:nullFunc_viiffii
146:nullFunc_viifi
147:nullFunc_viifii
148:nullFunc_viifiii
149:nullFunc_viifiiii
150:nullFunc_viii
151:nullFunc_viiidi
152:nullFunc_viiifffi
153:nullFunc_viiiffi
154:nullFunc_viiifi
155:nullFunc_viiifii
156:nullFunc_viiii
157:nullFunc_viiiif
158:nullFunc_viiiifii
159:nullFunc_viiiii
160:nullFunc_viiiiif
161:nullFunc_viiiiiffi
162:nullFunc_viiiiiffii
163:nullFunc_viiiiii
164:nullFunc_viiiiiif
165:nullFunc_viiiiiii
166:nullFunc_viiiiiiii
167:nullFunc_viiiiiiiii
168:nullFunc_viiiiiiiiii
169:nullFunc_viiiiiiiiiii
170:nullFunc_viiiiiiiiiiii
171:nullFunc_viiiiiiiiiiiiii
172:nullFunc_viiiiiiiiiiiiiii
173:nullFunc_viiiiiiiiiiiiiiiiii
174:nullFunc_viiiiiji
175:nullFunc_viiiijiiii
176:nullFunc_viiiji
177:nullFunc_viiijji
178:nullFunc_viij
179:nullFunc_viiji
180:nullFunc_viijii
181:nullFunc_viijiijiii
182:nullFunc_viijijii
183:nullFunc_viijijiii
184:nullFunc_viijji
185:nullFunc_viijjiii
186:nullFunc_viijjji
187:nullFunc_vij
188:nullFunc_viji
189:nullFunc_vijii
190:nullFunc_vijiii
191:nullFunc_vijiji
192:nullFunc_vijijji
193:nullFunc_vijji
194:nullFunc_vijjii
195:nullFunc_vjiii
196:nullFunc_vjiiii
197:nullFunc_vjji
198:_JS_Cursor_SetImage
199:_JS_Cursor_SetShow
200:_JS_Eval_ClearInterval
201:_JS_Eval_SetInterval
202:_JS_FileSystem_Initialize
203:_JS_FileSystem_Sync
204:_JS_Log_Dump
205:_JS_Log_StackTrace
206:_JS_Profiler_InjectJobs
207:_JS_Sound_Create_Channel
208:_JS_Sound_GetLength
209:_JS_Sound_GetLoadState
210:_JS_Sound_Init
211:_JS_Sound_Load
212:_JS_Sound_Load_PCM
213:_JS_Sound_Play
214:_JS_Sound_ReleaseInstance
215:_JS_Sound_ResumeIfNeeded
216:_JS_Sound_Set3D
217:_JS_Sound_SetListenerOrientation
218:_JS_Sound_SetListenerPosition
219:_JS_Sound_SetLoop
220:_JS_Sound_SetLoopPoints
221:_JS_Sound_SetPitch
222:_JS_Sound_SetPosition
223:_JS_Sound_SetVolume
224:_JS_Sound_Stop
225:_JS_SystemInfo_GetCanvasClientSize
226:_JS_SystemInfo_GetDocumentURL
227:_JS_SystemInfo_GetGPUInfo
228:_JS_SystemInfo_GetMemory
229:_JS_SystemInfo_GetOS
230:_JS_SystemInfo_GetPreferredDevicePixelRatio
231:_JS_SystemInfo_GetScreenSize
232:_JS_SystemInfo_HasCursorLock
233:_JS_SystemInfo_HasFullscreen
234:_JS_SystemInfo_HasWebGL
235:_JS_WebRequest_Abort
236:_JS_WebRequest_Create
237:_JS_WebRequest_GetResponseHeaders
238:_JS_WebRequest_Release
239:_JS_WebRequest_Send
240:_JS_WebRequest_SetProgressHandler
241:_JS_WebRequest_SetRequestHeader
242:_JS_WebRequest_SetResponseHandler
243:_JS_WebRequest_SetTimeout
244:___buildEnvironment
245:___cxa_allocate_exception
246:___cxa_pure_virtual
247:___cxa_throw
248:___lock
249:___map_file
250:___setErrNo
251:___syscall10
252:___syscall102
253:___syscall122
254:___syscall140
255:___syscall142
256:___syscall145
257:___syscall146
258:___syscall15
259:___syscall183
260:___syscall192
261:___syscall193
262:___syscall195
263:___syscall196
264:___syscall197
265:___syscall199
266:___syscall220
267:___syscall221
268:___syscall268
269:___syscall3
270:___syscall33
271:___syscall38
272:___syscall39
273:___syscall4
274:___syscall40
275:___syscall5
276:___syscall54
277:___syscall6
278:___syscall77
279:___syscall85
280:___syscall91
281:___unlock
282:_abort
283:_atexit
284:_clock
285:_clock_getres
286:_clock_gettime
287:_difftime
288:_dlclose
289:_dlopen
290:_dlsym
291:_emscripten_asm_const_i
292:_emscripten_asm_const_id
293:_emscripten_asm_const_ii
294:_emscripten_asm_const_sync_on_main_thread_i
295:_emscripten_cancel_main_loop
296:_emscripten_exit_fullscreen
297:_emscripten_exit_pointerlock
298:_emscripten_get_fullscreen_status
299:_emscripten_get_gamepad_status
300:_emscripten_get_main_loop_timing
301:_emscripten_get_now
302:_emscripten_get_num_gamepads
303:_emscripten_has_threading_support
304:_emscripten_html5_remove_all_event_listeners
305:_emscripten_is_webgl_context_lost
306:_emscripten_log
307:_emscripten_memcpy_big
308:_emscripten_num_logical_cores
309:_emscripten_request_fullscreen
310:_emscripten_request_pointerlock
311:_emscripten_set_blur_callback_on_thread
312:_emscripten_set_canvas_element_size
313:_emscripten_set_dblclick_callback_on_thread
314:_emscripten_set_devicemotion_callback_on_thread
315:_emscripten_set_deviceorientation_callback_on_thread
316:_emscripten_set_focus_callback_on_thread
317:_emscripten_set_fullscreenchange_callback_on_thread
318:_emscripten_set_gamepadconnected_callback_on_thread
319:_emscripten_set_gamepaddisconnected_callback_on_thread
320:_emscripten_set_keydown_callback_on_thread
321:_emscripten_set_keypress_callback_on_thread
322:_emscripten_set_keyup_callback_on_thread
323:_emscripten_set_main_loop
324:_emscripten_set_main_loop_timing
325:_emscripten_set_mousedown_callback_on_thread
326:_emscripten_set_mousemove_callback_on_thread
327:_emscripten_set_mouseup_callback_on_thread
328:_emscripten_set_touchcancel_callback_on_thread
329:_emscripten_set_touchend_callback_on_thread
330:_emscripten_set_touchmove_callback_on_thread
331:_emscripten_set_touchstart_callback_on_thread
332:_emscripten_set_wheel_callback_on_thread
333:_emscripten_webgl_create_context
334:_emscripten_webgl_destroy_context
335:_emscripten_webgl_enable_extension
336:_emscripten_webgl_get_current_context
337:_emscripten_webgl_init_context_attributes
338:_emscripten_webgl_make_context_current
339:_exit
340:_flock
341:_getenv
342:_getpagesize
343:_getpwuid
344:_gettimeofday
345:_glActiveTexture
346:_glAttachShader
347:_glBeginQuery
348:_glBeginTransformFeedback
349:_glBindAttribLocation
350:_glBindBuffer
351:_glBindBufferBase
352:_glBindBufferRange
353:_glBindFramebuffer
354:_glBindRenderbuffer
355:_glBindSampler
356:_glBindTexture
357:_glBindTransformFeedback
358:_glBindVertexArray
359:_glBlendEquation
360:_glBlendEquationSeparate
361:_glBlendFuncSeparate
362:_glBlitFramebuffer
363:_glBufferData
364:_glBufferSubData
365:_glCheckFramebufferStatus
366:_glClear
367:_glClearColor
368:_glClearDepthf
369:_glClearStencil
370:_glColorMask
371:_glCompileShader
372:_glCompressedTexImage2D
373:_glCompressedTexSubImage2D
374:_glCompressedTexSubImage3D
375:_glCopyBufferSubData
376:_glCopyTexImage2D
377:_glCopyTexSubImage2D
378:_glCreateProgram
379:_glCreateShader
380:_glCullFace
381:_glDeleteBuffers
382:_glDeleteFramebuffers
383:_glDeleteProgram
384:_glDeleteQueries
385:_glDeleteRenderbuffers
386:_glDeleteSamplers
387:_glDeleteShader
388:_glDeleteSync
389:_glDeleteTextures
390:_glDeleteTransformFeedbacks
391:_glDeleteVertexArrays
392:_glDepthFunc
393:_glDepthMask
394:_glDetachShader
395:_glDisable
396:_glDisableVertexAttribArray
397:_glDrawArrays
398:_glDrawArraysInstanced
399:_glDrawBuffers
400:_glDrawElements
401:_glDrawElementsInstanced
402:_glEnable
403:_glEnableVertexAttribArray
404:_glEndQuery
405:_glEndTransformFeedback
406:_glFenceSync
407:_glFinish
408:_glFlush
409:_glFlushMappedBufferRange
410:_glFramebufferRenderbuffer
411:_glFramebufferTexture2D
412:_glFramebufferTextureLayer
413:_glFrontFace
414:_glGenBuffers
415:_glGenFramebuffers
416:_glGenQueries
417:_glGenRenderbuffers
418:_glGenSamplers
419:_glGenTextures
420:_glGenTransformFeedbacks
421:_glGenVertexArrays
422:_glGenerateMipmap
423:_glGetActiveAttrib
424:_glGetActiveUniform
425:_glGetActiveUniformBlockName
426:_glGetActiveUniformBlockiv
427:_glGetActiveUniformsiv
428:_glGetAttribLocation
429:_glGetError
430:_glGetFramebufferAttachmentParameteriv
431:_glGetIntegeri_v
432:_glGetIntegerv
433:_glGetInternalformativ
434:_glGetProgramBinary
435:_glGetProgramInfoLog
436:_glGetProgramiv
437:_glGetRenderbufferParameteriv
438:_glGetShaderInfoLog
439:_glGetShaderPrecisionFormat
440:_glGetShaderSource
441:_glGetShaderiv
442:_glGetString
443:_glGetStringi
444:_glGetTexParameteriv
445:_glGetUniformBlockIndex
446:_glGetUniformIndices
447:_glGetUniformLocation
448:_glGetUniformiv
449:_glGetVertexAttribiv
450:_glInvalidateFramebuffer
451:_glIsEnabled
452:_glIsVertexArray
453:_glLinkProgram
454:_glMapBufferRange
455:_glPixelStorei
456:_glPolygonOffset
457:_glProgramBinary
458:_glProgramParameteri
459:_glReadBuffer
460:_glReadPixels
461:_glRenderbufferStorage
462:_glRenderbufferStorageMultisample
463:_glSamplerParameteri
464:_glScissor
465:_glShaderSource
466:_glStencilFuncSeparate
467:_glStencilMask
468:_glStencilOpSeparate
469:_glTexImage2D
470:_glTexImage3D
471:_glTexParameterf
472:_glTexParameteri
473:_glTexParameteriv
474:_glTexStorage2D
475:_glTexStorage3D
476:_glTexSubImage2D
477:_glTexSubImage3D
478:_glTransformFeedbackVaryings
479:_glUniform1fv
480:_glUniform1i
481:_glUniform1iv
482:_glUniform1uiv
483:_glUniform2fv
484:_glUniform2iv
485:_glUniform2uiv
486:_glUniform3fv
487:_glUniform3iv
488:_glUniform3uiv
489:_glUniform4fv
490:_glUniform4iv
491:_glUniform4uiv
492:_glUniformBlockBinding
493:_glUniformMatrix3fv
494:_glUniformMatrix4fv
495:_glUnmapBuffer
496:_glUseProgram
497:_glValidateProgram
498:_glVertexAttrib4f
499:_glVertexAttrib4fv
500:_glVertexAttribIPointer
501:_glVertexAttribPointer
502:_glViewport
503:_gmtime
504:_inet_addr
505:_llvm_exp2_f32
506:_llvm_log10_f32
507:_llvm_log2_f32
508:_llvm_trap
509:_llvm_trunc_f32
510:_localtime
511:_mktime
512:_nanosleep
513:_pthread_getspecific
514:_pthread_key_create
515:_pthread_once
516:_pthread_setspecific
517:_setenv
518:_sigaction
519:_sigemptyset
520:_strftime
521:_sysconf
522:_time
523:_unsetenv
524:_utime
525:f64-rem
526:legalimport$___atomic_fetch_add_8
527:legalimport$_glClientWaitSync
528:__growWasmMemory
529:stackAlloc
530:stackSave
531:stackRestore
532:establishStackSpace
533:setThrew
534:setTempRet0
535:getTempRet0
536:__GLOBAL__sub_I_AccessibilityScriptingClasses_cpp
537:__ZN9Scripting11UnityEngine13AccessibilityL54__ManagedRegistrationHelperFunction_VisionUtilityProxyEPv
538:__ZN9Scripting11UnityEngine13Accessibility18VisionUtilityProxy9InitProxyEv
539:__ZN9Scripting11UnityEngine13Accessibility18VisionUtilityProxy12CleanupProxyEv
540:__ZN13dynamic_arrayIPK10ModuleSpecLm0EE4growEv
541:__ZN4core20StringStorageDefaultIcE10deallocateEv
542:__GLOBAL__sub_I_AIScriptingClasses_cpp
543:___cxx_global_var_init_47
544:___cxx_global_var_init_48
545:__GLOBAL__sub_I_Modules_AI_1_cpp
546:__GLOBAL__sub_I_Modules_AI_Builder_0_cpp
547:__GLOBAL__sub_I_Modules_AI_Crowd_0_cpp
548:__GLOBAL__sub_I_Modules_AI_NavMesh_0_cpp
549:__GLOBAL__sub_I_Modules_AI_Obstacles_0_cpp
550:___cxx_global_var_init_197
551:__GLOBAL__sub_I_AIBindings_gen_cpp
552:__ZN9profiling17CallbacksProfilerIZ24InitializeNavMeshManagervE42PreLateUpdateAIUpdatePostScriptRegistratoriLi0EE12SamplerCache7CleanupEPv
553:__ZN9Scripting11UnityEngine2AIL48__ManagedRegistrationHelperFunction_NavMeshProxyEPv
554:__ZN9Scripting11UnityEngine2AIL59__ManagedRegistrationHelperFunction_NavMeshBuildSourceProxyEPv
555:__ZN9Scripting11UnityEngine2AIL61__ManagedRegistrationHelperFunction_NavMeshTriangulationProxyEPv
556:__ZN9Scripting11UnityEngine2AI25NavMeshTriangulationProxy9InitProxyEv
557:__ZN9Scripting11UnityEngine2AI25NavMeshTriangulationProxy12CleanupProxyEv
558:__ZN9Scripting11UnityEngine2AI23NavMeshBuildSourceProxy9InitProxyEv
559:__ZN9Scripting11UnityEngine2AI23NavMeshBuildSourceProxy12CleanupProxyEv
560:__ZN9Scripting11UnityEngine2AI12NavMeshProxy9InitProxyEv
561:__ZN9Scripting11UnityEngine2AI12NavMeshProxy12CleanupProxyEv
562:__ZN6Object21AwakeFromLoadThreadedEv
563:__ZN6Object17IsAScriptedObjectEv
564:__ZNK16LevelGameManager7GetNameEv
565:__ZN6Object7SetNameEPKc
566:__ZN6Object12SetHideFlagsENS_9HideFlagsE
567:__ZNK11GameManager19ShouldWriteForBuildEv
568:__Z12TransferPPtrI14SafeBinaryReadEvRiRT_
569:__Z12TransferPPtrI18StreamedBinaryReadEvRiRT_
570:__Z12TransferPPtrI19StreamedBinaryWriteEvRiRT_
571:__ZNK9Behaviour10GetEnabledEv
572:__ZNSt3__213__tree_removeIPNS_16__tree_node_baseIPvEEEEvT_S5_
573:__ZN13dynamic_arrayIyLm0EE21resize_buffer_nocheckEm12ResizePolicy
574:__ZN13dynamic_arrayIiLm0EE21resize_buffer_nocheckEm12ResizePolicy
575:__ZN13dynamic_arrayIiLm0EED2Ev
576:__Z17CalculateGlobalRS23TransformAccessReadOnly
577:__Z23CalculateGlobalPosition23TransformAccessReadOnly
578:__ZN15EditorExtensionD2Ev
579:__ZN15EditorExtensionD0Ev
580:__ZNK15EditorExtension22GetTypeVirtualInternalEv
581:__ZNK6Object7GetNameEv
582:__ZN8Vector3f8TransferI14SafeBinaryReadEEvRT_
583:__ZNK4PPtrI9TransformEcvPS0_Ev
584:__ZNK4PPtrI9TransformEptEv
585:__ZNK11NamedObject7GetNameEv
586:__ZN4AABB8TransferI14SafeBinaryReadEEvRT_
587:__ZN11Quaternionf8TransferI14SafeBinaryReadEEvRT_
588:__ZN14SafeBinaryRead21TransferSTLStyleArrayI13dynamic_arrayI8Vector3fLm0EEEEvRT_17TransferMetaFlags
589:__ZN14SafeBinaryRead21TransferSTLStyleArrayI13dynamic_arrayIiLm0EEEEvRT_17TransferMetaFlags
590:__ZN13dynamic_arrayI8Vector3fLm0EE21resize_buffer_nocheckEm12ResizePolicy
591:__ZN14SafeBinaryRead21TransferSTLStyleArrayI13dynamic_arrayIhLm0EEEEvRT_17TransferMetaFlags
592:__ZN7Hash1288TransferI14SafeBinaryReadEEvRT_
593:__ZN13dynamic_arrayIhLm0EE21resize_buffer_nocheckEm12ResizePolicy
594:__ZN7Hash1288TransferI24GenerateTypeTreeTransferEEvRT_
595:__ZN11Quaternionf8TransferI24GenerateTypeTreeTransferEEvRT_
596:__ZN18StreamedBinaryRead8TransferI13dynamic_arrayIhLm0EEEEvRT_PKc17TransferMetaFlags
597:__ZN7Hash1288TransferI18StreamedBinaryReadEEvRT_
598:__ZN4AABB8TransferI18StreamedBinaryReadEEvRT_
599:__ZN18StreamedBinaryRead8TransferI11QuaternionfEEvRT_PKc17TransferMetaFlags
600:__ZN18StreamedBinaryRead8TransferI13dynamic_arrayIiLm0EEEEvRT_PKc17TransferMetaFlags
601:__ZN4AABB8TransferI19StreamedBinaryWriteEEvRT_
602:__ZN7Hash1288TransferI19StreamedBinaryWriteEEvRT_
603:__ZN4core20StringStorageDefaultIcE6assignERKS1_
604:__ZN4core20StringStorageDefaultIcE8allocateEm
605:__ZN14SafeBinaryRead21TransferSTLStyleArrayI13dynamic_arrayIN4core12basic_stringIcNS2_20StringStorageDefaultIcEEEELm0EEEEvRT_17TransferMetaFlags
606:__ZN13dynamic_arrayIN4core12basic_stringIcNS0_20StringStorageDefaultIcEEEELm0EE21resize_buffer_nocheckEm12ResizePolicy
607:__ZN4core20StringStorageDefaultIcEaSEOS1_
608:__ZN15SerializeTraitsI13dynamic_arrayIN4core12basic_stringIcNS1_20StringStorageDefaultIcEEEELm0EEE19ResizeSTLStyleArrayERS6_i
609:__ZN14SafeBinaryRead21TransferSTLStyleArrayIN4core12basic_stringIcNS1_20StringStorageDefaultIcEEEEEEvRT_17TransferMetaFlags
610:__ZN4core20StringStorageDefaultIcE10reallocateEm
611:__ZN18StreamedBinaryRead21TransferSTLStyleArrayIN4core12basic_stringIcNS1_20StringStorageDefaultIcEEEEEEvRT_17TransferMetaFlags
612:__ZN19StreamedBinaryWrite21TransferSTLStyleArrayIN4core12basic_stringIcNS1_20StringStorageDefaultIcEEEEEEvRT_17TransferMetaFlags
613:__ZN13dynamic_arrayIN4core12basic_stringIcNS0_20StringStorageDefaultIcEEEELm0EED2Ev
614:__ZNK4PPtrI6ObjectEcvPS0_Ev
615:__ZN13dynamic_arrayItLm0EE21resize_buffer_nocheckEm12ResizePolicy
616:__ZN13dynamic_arrayI8Vector3fLm0EE4growEv
617:__ZN13dynamic_arrayItLm0EE4growEv
618:__ZN13dynamic_arrayI8Vector2fLm0EE21resize_buffer_nocheckEm12ResizePolicy
619:__ZN13dynamic_arrayIyLm0EE4growEv
620:__ZNSt3__227__tree_balance_after_insertIPNS_16__tree_node_baseIPvEEEEvT_S5_
621:__Z18TransformDirection23TransformAccessReadOnlyRKN4math7_float3E
622:__Z24InverseTransformRotationRK23TransformAccessReadOnlyRKN4math7_float4E
623:__Z9SetLocalR15TransformAccessRKN4math7_float4Ey
624:__Z24InverseTransformPosition23TransformAccessReadOnlyRKN4math7_float3E
625:__Z25InverseTransformDirection23TransformAccessReadOnlyRKN4math7_float3Eb
626:__ZN13dynamic_arrayI8Vector2fLm0EEC2EmRK10MemLabelId
627:__ZN13dynamic_arrayIN4core12basic_stringIcNS0_20StringStorageDefaultIcEEEELm0EE4growEv
628:__ZN13dynamic_arrayI8JobFenceLm0EE4growEv
629:__ZN11Marshalling39CreateNullExceptionForUnityEngineObjectE18ScriptingObjectPtr
630:__GLOBAL__sub_I_AndroidJNIScriptingClasses_cpp
631:__ZN9Scripting11UnityEngineL58__ManagedRegistrationHelperFunction__AndroidJNIHelperProxyEPv
632:__ZN9Scripting11UnityEngineL57__ManagedRegistrationHelperFunction_AndroidJNIHelperProxyEPv
633:__ZN9Scripting11UnityEngine21AndroidJNIHelperProxy9InitProxyEv
634:__ZN9Scripting11UnityEngine21AndroidJNIHelperProxy12CleanupProxyEv
635:__ZN9Scripting11UnityEngine22_AndroidJNIHelperProxy9InitProxyEv
636:__ZN9Scripting11UnityEngine22_AndroidJNIHelperProxy12CleanupProxyEv
637:__GLOBAL__sub_I_AnimationScriptingClasses_cpp
638:___cxx_global_var_init_116
639:___cxx_global_var_init_117
640:__GLOBAL__sub_I_Modules_Animation_0_cpp
641:__GLOBAL__sub_I_Modules_Animation_1_cpp
642:__GLOBAL__sub_I_Modules_Animation_2_cpp
643:__GLOBAL__sub_I_Modules_Animation_3_cpp
644:__GLOBAL__sub_I_Modules_Animation_5_cpp
645:__GLOBAL__sub_I_Modules_Animation_6_cpp
646:___cxx_global_var_init_53
647:__GLOBAL__sub_I_Modules_Animation_Constraints_0_cpp
648:__GLOBAL__sub_I_Modules_Animation_Director_0_cpp
649:__GLOBAL__sub_I_Modules_Animation_Director_1_cpp
650:__GLOBAL__sub_I_AnimationBindings_gen_cpp
651:__GLOBAL__sub_I_ConstraintJob_cpp
652:__GLOBAL__sub_I_clipmuscle_cpp
653:__GLOBAL__sub_I_AnimationClip_cpp
654:___cxx_global_var_init
655:___cxx_global_var_init_1
656:___cxx_global_var_init_2
657:___cxx_global_var_init_4
658:___cxx_global_var_init_6
659:__Z6TypeOfI13AnimationClipEPKN5Unity4TypeEv
660:__ZN13RuntimeStaticI17ConstraintManagerLb0EE16StaticInitializeEPv
661:__ZN13RuntimeStaticI17ConstraintManagerLb0EE13StaticDestroyEPv
662:__ZN24StaticInitializeInternal13ConstructTypeI17ConstraintManagerLb0EEEPvS2_RK10MemLabelId
663:__ZZN17ConstraintManager15InitializeClassEvEN47PreLateUpdateConstraintManagerUpdateRegistrator7ForwardEv
664:__ZN17ConstraintManagerD2Ev
665:__ZN17ConstraintManagerD0Ev
666:__ZN17ConstraintManager6UpdateEv
667:__ZN4core8hash_setINS_4pairIKPK10GameObjectiLb0EEENS_9hash_pairINS_4hashIS4_EES5_iEENS_10equal_pairINSt3__28equal_toIS4_EES5_iEEE4growEi
668:__ZN4core8hash_mapIPK10GameObjectiNS_4hashIS3_EENSt3__28equal_toIS3_EEEixERKS3_
669:__ZN4core8hash_setIPN5Unity9ComponentENS_4hashIS3_EENSt3__28equal_toIS3_EEE4growEi
670:__ZL23GetComponentsInChildrenRK10GameObjectPFbRKN5Unity9ComponentEERN4core8hash_setIPS3_NS8_4hashISA_EENSt3__28equal_toISA_EEEE
671:__ZNSt3__26__sortIR23DependencySortPredicatePN4core4pairIiP9BehaviourLb0EEEEEvT0_S9_T_
672:__ZL32GetComponentsInConstraintSourcesRK11IConstraintPFbRKN5Unity9ComponentEERN4core8hash_setIPS3_NS8_4hashISA_EENSt3__28equal_toISA_EEEE
673:__ZN13dynamic_arrayIN4core4pairIiS_IP9BehaviourLm0EELb1EEELm0EE4growEv
674:__ZN13dynamic_arrayIN4core4pairIiS_IP9BehaviourLm0EELb1EEELm0EED2Ev
675:__ZN13dynamic_arrayIN4math4trsXELm0EE21resize_buffer_nocheckEm12ResizePolicy
676:__ZN13ConstraintJob18ComputeConstraintsEPNS_17ConstraintJobDataEj
677:__ZN13dynamic_arrayIN13ConstraintJob23ConstraintComponentDataELm0EE4growEv
678:__ZN13ConstraintJob23ConstraintComponentDataC2ERKS0_
679:__ZN13dynamic_arrayIN13ConstraintJob23ConstraintComponentDataELm0EED2Ev
680:__Z11SetLocalTRS15TransformAccessRKN4math7_float3ERKNS0_7_float4ES3_y
681:__ZN13ConstraintJob23ConstraintComponentDataC2ERK16LookAtConstraint
682:__ZL21InitConstraintSourcesRK13dynamic_arrayI16ConstraintSourceLm0EERS_I23TransformAccessReadOnlyLm0EERS_IfLm0EE
683:__ZN13ConstraintJob23ConstraintComponentDataC2ERK16ParentConstraint
684:__ZNK16ParentConstraint18GetTranslationAxisEv
685:__ZNK16ParentConstraint15GetRotationAxisEv
686:__ZN13ConstraintJob23ConstraintComponentDataC2ERK13AimConstraint
687:__ZNK13AimConstraint15GetRotationAxisEv
688:__ZN13ConstraintJob23ConstraintComponentDataC2ERK15ScaleConstraint
689:__ZNK15ScaleConstraint14GetScalingAxisEv
690:__ZN13ConstraintJob23ConstraintComponentDataC2ERK18RotationConstraint
691:__ZN13ConstraintJob23ConstraintComponentDataC2ERK18PositionConstraint
692:__Z21InverseTransformScale23TransformAccessReadOnlyRKN4math7_float3E
693:__ZN13dynamic_arrayIN4math7affineXELm0EEC2EmRK10MemLabelId
694:__Z34CalculateGlobalPositionAndRotation23TransformAccessReadOnlyRKN4math7_float3ERKNS0_7_float4E
695:__ZL17quatArcRotateSafeRKN4math7_float3ES2_
696:__ZL22GetComponentsInParentsRK10GameObjectPFbRKN5Unity9ComponentEERN4core8hash_setIPS3_NS8_4hashISA_EENSt3__28equal_toISA_EEEE
697:__ZN4core8hash_setIPN5Unity9ComponentENS_4hashIS3_EENSt3__28equal_toIS3_EEE6insertIRS3_EENS_4pairINS9_13node_iteratorIS3_EEbLb0EEEOT_
698:__ZNSt3__27__sort4IR23DependencySortPredicatePN4core4pairIiP9BehaviourLb0EEEEEjT0_S9_S9_S9_T_
699:__ZNSt3__227__insertion_sort_incompleteIR23DependencySortPredicatePN4core4pairIiP9BehaviourLb0EEEEEbT0_S9_T_
700:__ZN13RuntimeStaticI15AnimationBinderLb0EE16StaticInitializeEPv
701:__ZN13RuntimeStaticI15AnimationBinderLb0EE13StaticDestroyEPv
702:__ZN13RuntimeStaticI15AnimationBinderLb0EE7DestroyEv
703:__ZNSt3__26__treeINS_12__value_typeIPKN5Unity4TypeEPK8TypeTreeEENS_19__map_value_compareIS5_S9_NS_4lessIS5_EELb1EEENS_9allocatorIS9_EEE7destroyEPNS_11__tree_nodeIS9_PvEE
704:__ZN24StaticInitializeInternal13ConstructTypeI15AnimationBinderLb0EEEPvS2_RK10MemLabelId
705:__ZN11UnityEngine9Animation38InitializeGenericAnimationBindingCacheEPv
706:__ZN11UnityEngine9Animation35CleanupGenericAnimationBindingCacheEPv
707:__ZN11UnityEngine9Animation28GenericAnimationBindingCacheD2Ev
708:__ZN11UnityEngine9Animation28GenericAnimationBindingCache15DidReloadDomainE19AssemblyLoadFailure
709:__ZN11UnityEngine9Animation28GenericAnimationBindingCacheC2Ev
710:__ZN9Scripting11UnityEngineL55__ManagedRegistrationHelperFunction_AnimationEventProxyEPv
711:__ZN9Scripting11UnityEngine10AnimationsL54__ManagedRegistrationHelperFunction_AimConstraintProxyEPv
712:__ZN9Scripting11UnityEngine10AnimationsL62__ManagedRegistrationHelperFunction_AnimationClipPlayableProxyEPv
713:__ZN9Scripting11UnityEngine10AnimationsL61__ManagedRegistrationHelperFunction_AnimationHumanStreamProxyEPv
714:__ZN9Scripting11UnityEngine10AnimationsL68__ManagedRegistrationHelperFunction_AnimationLayerMixerPlayableProxyEPv
715:__ZN9Scripting11UnityEngine10AnimationsL63__ManagedRegistrationHelperFunction_AnimationMixerPlayableProxyEPv
716:__ZN9Scripting11UnityEngine10AnimationsL72__ManagedRegistrationHelperFunction_AnimationMotionXToDeltaPlayableProxyEPv
717:__ZN9Scripting11UnityEngine10AnimationsL64__ManagedRegistrationHelperFunction_AnimationOffsetPlayableProxyEPv
718:__ZN9Scripting11UnityEngine10AnimationsL64__ManagedRegistrationHelperFunction_AnimationPlayableOutputProxyEPv
719:__ZN9Scripting11UnityEngine10AnimationsL62__ManagedRegistrationHelperFunction_AnimationPosePlayableProxyEPv
720:__ZN9Scripting11UnityEngine10AnimationsL69__ManagedRegistrationHelperFunction_AnimationRemoveScalePlayableProxyEPv
721:__ZN9Scripting11UnityEngine10AnimationsL64__ManagedRegistrationHelperFunction_AnimationScriptPlayableProxyEPv
722:__ZN9Scripting11UnityEngine10AnimationsL56__ManagedRegistrationHelperFunction_AnimationStreamProxyEPv
723:__ZN9Scripting11UnityEngine10AnimationsL67__ManagedRegistrationHelperFunction_AnimatorControllerPlayableProxyEPv
724:__ZN9Scripting11UnityEngine10AnimationsL57__ManagedRegistrationHelperFunction_ConstraintSourceProxyEPv
725:__ZN9Scripting11UnityEngine10AnimationsL57__ManagedRegistrationHelperFunction_LookAtConstraintProxyEPv
726:__ZN9Scripting11UnityEngine10AnimationsL60__ManagedRegistrationHelperFunction_NotKeyableAttributeProxyEPv
727:__ZN9Scripting11UnityEngine10AnimationsL57__ManagedRegistrationHelperFunction_ParentConstraintProxyEPv
728:__ZN9Scripting11UnityEngine10AnimationsL59__ManagedRegistrationHelperFunction_PositionConstraintProxyEPv
729:__ZN9Scripting11UnityEngine10AnimationsL59__ManagedRegistrationHelperFunction_RotationConstraintProxyEPv
730:__ZN9Scripting11UnityEngine10AnimationsL56__ManagedRegistrationHelperFunction_ScaleConstraintProxyEPv
731:__ZN9Scripting11UnityEngineL55__ManagedRegistrationHelperFunction_AnimationStateProxyEPv
732:__ZN9Scripting11UnityEngineL49__ManagedRegistrationHelperFunction_AnimatorProxyEPv
733:__ZN9Scripting11UnityEngineL57__ManagedRegistrationHelperFunction_AnimatorClipInfoProxyEPv
734:__ZN9Scripting11UnityEngineL68__ManagedRegistrationHelperFunction_AnimatorControllerParameterProxyEPv
735:__ZN9Scripting11UnityEngineL66__ManagedRegistrationHelperFunction_RuntimeAnimatorControllerProxyEPv
736:__ZN9Scripting11UnityEngineL67__ManagedRegistrationHelperFunction_AnimatorOverrideControllerProxyEPv
737:__ZN9Scripting11UnityEngineL58__ManagedRegistrationHelperFunction_AnimatorStateInfoProxyEPv
738:__ZN9Scripting11UnityEngineL63__ManagedRegistrationHelperFunction_AnimatorTransitionInfoProxyEPv
739:__ZN9Scripting11UnityEngineL47__ManagedRegistrationHelperFunction_AvatarProxyEPv
740:__ZN9Scripting11UnityEngineL51__ManagedRegistrationHelperFunction_AvatarMaskProxyEPv
741:__ZN9Scripting11UnityEngineL50__ManagedRegistrationHelperFunction_HumanBoneProxyEPv
742:__ZN9Scripting11UnityEngineL72__ManagedRegistrationHelperFunction_SharedBetweenAnimatorsAttributeProxyEPv
743:__ZN9Scripting11UnityEngineL53__ManagedRegistrationHelperFunction_SkeletonBoneProxyEPv
744:__ZN9Scripting11UnityEngineL62__ManagedRegistrationHelperFunction_StateMachineBehaviourProxyEPv
745:__ZN9Scripting11UnityEngine26StateMachineBehaviourProxy9InitProxyEv
746:__ZN9Scripting11UnityEngine26StateMachineBehaviourProxy12CleanupProxyEv
747:__ZN9Scripting11UnityEngine17SkeletonBoneProxy9InitProxyEv
748:__ZN9Scripting11UnityEngine17SkeletonBoneProxy12CleanupProxyEv
749:__ZN9Scripting11UnityEngine36SharedBetweenAnimatorsAttributeProxy9InitProxyEv
750:__ZN9Scripting11UnityEngine36SharedBetweenAnimatorsAttributeProxy12CleanupProxyEv
751:__ZN9Scripting11UnityEngine14HumanBoneProxy9InitProxyEv
752:__ZN9Scripting11UnityEngine14HumanBoneProxy12CleanupProxyEv
753:__ZN9Scripting11UnityEngine15AvatarMaskProxy9InitProxyEv
754:__ZN9Scripting11UnityEngine15AvatarMaskProxy12CleanupProxyEv
755:__ZN9Scripting11UnityEngine11AvatarProxy9InitProxyEv
756:__ZN9Scripting11UnityEngine11AvatarProxy12CleanupProxyEv
757:__ZN9Scripting11UnityEngine27AnimatorTransitionInfoProxy9InitProxyEv
758:__ZN9Scripting11UnityEngine27AnimatorTransitionInfoProxy12CleanupProxyEv
759:__ZN9Scripting11UnityEngine22AnimatorStateInfoProxy9InitProxyEv
760:__ZN9Scripting11UnityEngine22AnimatorStateInfoProxy12CleanupProxyEv
761:__ZN9Scripting11UnityEngine31AnimatorOverrideControllerProxy9InitProxyEv
762:__ZN9Scripting11UnityEngine31AnimatorOverrideControllerProxy12CleanupProxyEv
763:__ZN9Scripting11UnityEngine30RuntimeAnimatorControllerProxy9InitProxyEv
764:__ZN9Scripting11UnityEngine30RuntimeAnimatorControllerProxy12CleanupProxyEv
765:__ZN9Scripting11UnityEngine32AnimatorControllerParameterProxy9InitProxyEv
766:__ZN9Scripting11UnityEngine32AnimatorControllerParameterProxy12CleanupProxyEv
767:__ZN9Scripting11UnityEngine21AnimatorClipInfoProxy9InitProxyEv
768:__ZN9Scripting11UnityEngine21AnimatorClipInfoProxy12CleanupProxyEv
769:__ZN9Scripting11UnityEngine13AnimatorProxy9InitProxyEv
770:__ZN9Scripting11UnityEngine13AnimatorProxy12CleanupProxyEv
771:__ZN9Scripting11UnityEngine19AnimationStateProxy9InitProxyEv
772:__ZN9Scripting11UnityEngine19AnimationStateProxy12CleanupProxyEv
773:__ZN9Scripting11UnityEngine10Animations20ScaleConstraintProxy9InitProxyEv
774:__ZN9Scripting11UnityEngine10Animations20ScaleConstraintProxy12CleanupProxyEv
775:__ZN9Scripting11UnityEngine10Animations23RotationConstraintProxy9InitProxyEv
776:__ZN9Scripting11UnityEngine10Animations23RotationConstraintProxy12CleanupProxyEv
777:__ZN9Scripting11UnityEngine10Animations23PositionConstraintProxy9InitProxyEv
778:__ZN9Scripting11UnityEngine10Animations23PositionConstraintProxy12CleanupProxyEv
779:__ZN9Scripting11UnityEngine10Animations21ParentConstraintProxy9InitProxyEv
780:__ZN9Scripting11UnityEngine10Animations21ParentConstraintProxy12CleanupProxyEv
781:__ZN9Scripting11UnityEngine10Animations24NotKeyableAttributeProxy9InitProxyEv
782:__ZN9Scripting11UnityEngine10Animations24NotKeyableAttributeProxy12CleanupProxyEv
783:__ZN9Scripting11UnityEngine10Animations21LookAtConstraintProxy9InitProxyEv
784:__ZN9Scripting11UnityEngine10Animations21LookAtConstraintProxy12CleanupProxyEv
785:__ZN9Scripting11UnityEngine10Animations21ConstraintSourceProxy9InitProxyEv
786:__ZN9Scripting11UnityEngine10Animations21ConstraintSourceProxy12CleanupProxyEv
787:__ZN9Scripting11UnityEngine10Animations31AnimatorControllerPlayableProxy9InitProxyEv
788:__ZN9Scripting11UnityEngine10Animations31AnimatorControllerPlayableProxy12CleanupProxyEv
789:__ZN9Scripting11UnityEngine10Animations20AnimationStreamProxy9InitProxyEv
790:__ZN9Scripting11UnityEngine10Animations20AnimationStreamProxy12CleanupProxyEv
791:__ZN9Scripting11UnityEngine10Animations28AnimationScriptPlayableProxy9InitProxyEv
792:__ZN9Scripting11UnityEngine10Animations28AnimationScriptPlayableProxy12CleanupProxyEv
793:__ZN9Scripting11UnityEngine10Animations33AnimationRemoveScalePlayableProxy9InitProxyEv
794:__ZN9Scripting11UnityEngine10Animations33AnimationRemoveScalePlayableProxy12CleanupProxyEv
795:__ZN9Scripting11UnityEngine10Animations26AnimationPosePlayableProxy9InitProxyEv
796:__ZN9Scripting11UnityEngine10Animations26AnimationPosePlayableProxy12CleanupProxyEv
797:__ZN9Scripting11UnityEngine10Animations28AnimationPlayableOutputProxy9InitProxyEv
798:__ZN9Scripting11UnityEngine10Animations28AnimationPlayableOutputProxy12CleanupProxyEv
799:__ZN9Scripting11UnityEngine10Animations28AnimationOffsetPlayableProxy9InitProxyEv
800:__ZN9Scripting11UnityEngine10Animations28AnimationOffsetPlayableProxy12CleanupProxyEv
801:__ZN9Scripting11UnityEngine10Animations36AnimationMotionXToDeltaPlayableProxy9InitProxyEv
802:__ZN9Scripting11UnityEngine10Animations36AnimationMotionXToDeltaPlayableProxy12CleanupProxyEv
803:__ZN9Scripting11UnityEngine10Animations27AnimationMixerPlayableProxy9InitProxyEv
804:__ZN9Scripting11UnityEngine10Animations27AnimationMixerPlayableProxy12CleanupProxyEv
805:__ZN9Scripting11UnityEngine10Animations32AnimationLayerMixerPlayableProxy9InitProxyEv
806:__ZN9Scripting11UnityEngine10Animations32AnimationLayerMixerPlayableProxy12CleanupProxyEv
807:__ZN9Scripting11UnityEngine10Animations25AnimationHumanStreamProxy9InitProxyEv
808:__ZN9Scripting11UnityEngine10Animations25AnimationHumanStreamProxy12CleanupProxyEv
809:__ZN9Scripting11UnityEngine10Animations26AnimationClipPlayableProxy9InitProxyEv
810:__ZN9Scripting11UnityEngine10Animations26AnimationClipPlayableProxy12CleanupProxyEv
811:__ZN9Scripting11UnityEngine10Animations18AimConstraintProxy9InitProxyEv
812:__ZN9Scripting11UnityEngine10Animations18AimConstraintProxy12CleanupProxyEv
813:__ZN9Scripting11UnityEngine19AnimationEventProxy9InitProxyEv
814:__ZN9Scripting11UnityEngine19AnimationEventProxy12CleanupProxyEv
815:__ZN8AnimatorD2Ev
816:__ZN8AnimatorD0Ev
817:__ZN8Animator17MainThreadCleanupEv
818:__ZN8Animator13AwakeFromLoadE17AwakeFromLoadMode
819:__ZN8Animator16CheckConsistencyEv
820:__ZN8Animator5ResetEv
821:__ZNK8Animator22GetTypeVirtualInternalEv
822:__ZN8Animator23VirtualRedirectTransferER19StreamedBinaryWrite
823:__ZN8Animator23VirtualRedirectTransferER18StreamedBinaryRead
824:__ZN8Animator23VirtualRedirectTransferER17RemapPPtrTransfer
825:__ZN8Animator23VirtualRedirectTransferER24GenerateTypeTreeTransfer
826:__ZN8Animator23VirtualRedirectTransferER14SafeBinaryRead
827:__ZN8Animator10DeactivateE19DeactivateOperation
828:__ZN8Animator12AddToManagerEv
829:__ZN8Animator17RemoveFromManagerEv
830:__ZN8Animator15SetPrepareStageEv
831:__ZNK8Animator25GetStateMachineBehavioursEv
832:__ZN8Animator27CreateInternalPlayableGraphEv
833:__ZN8Animator32CreateInternalControllerPlayableEv
834:__ZN26AnimatorControllerPlayable21SetAnimatorControllerEP25RuntimeAnimatorController
835:__ZN26AnimatorControllerPlayable13GenerateGraphEv
836:__ZN17AnimationPlayable23RequestAllocateBindingsEv
837:__ZN17PlayableTraverser10RootByTypeEP8Playable18DirectorPlayerType
838:__ZN7mecanim9animation21CreateControllerInputEPKNS0_18ControllerConstantER20RuntimeBaseAllocator
839:__ZN7mecanim9animation22CreateControllerMemoryEPKNS0_18ControllerConstantER20RuntimeBaseAllocator
840:__ZN7mecanim9animation25CreateControllerWorkspaceEPKNS0_18ControllerConstantER20RuntimeBaseAllocator
841:__ZN17AnimationPlayable23ConnectNoTopologyChangeEPS_S0_ii
842:__ZN34AnimationStateMachineMixerPlayable23SetInterruptedPoseIndexEi
843:__ZN26AnimationBlendTreePlayable12CreateInputsER13PlayableGraphm
844:__ZN26AnimatorControllerPlayable18SetLayerAutoWeightEv
845:__ZN7mecanim12statemachine29SetStateMachineInInitialStateERKNS0_20StateMachineConstantERKNS0_17StateMachineInputERNS0_18StateMachineOutputERNS0_18StateMachineMemoryERNS0_21StateMachineWorkspaceE
846:__ZNK34AnimationStateMachineMixerPlayable21GetStateMixerPlayableEb
847:__ZN26AnimationBlendTreePlayable21ConfigureFromConstantEPKN7mecanim9animation17BlendTreeConstantEPKNS0_12statemachine13StateConstantEPKNS1_12AnimationSetE
848:__ZN7mecanim12statemachine13EvaluateStateERKNS_18ValueArrayConstantERKNS0_13StateConstantERKNS0_17StateMachineInputERNS0_18StateMachineOutputERNS0_18StateMachineMemoryERNS0_11StateOutputERNS0_14StateWorkspaceEbb
849:__ZN7mecanim12statemachine21EvaluateStateDurationERKNS0_13StateConstantERNS0_11StateOutputERNS0_14StateWorkspaceERKNS_18ValueArrayConstantERKNS0_17StateMachineInputEb
850:__ZN7mecanim14FindValueIndexEPKNS_18ValueArrayConstantEj
851:__ZN26AnimationBlendTreePlayable37PropagateStateMachineInfoToChildClipsEfffRfS0_b
852:__ZN26AnimationBlendTreePlayable18SetUsePosePlayableEb
853:__ZN26AnimationBlendTreePlayable21DoBlendTreeEvaluationEPKN7mecanim9animation17BlendTreeConstantERKNS0_12statemachine13StateConstantEPNS1_14BlendTreeInputEPNS1_15BlendTreeOutputEPNS1_18BlendTreeWorkspaceERKNS5_17StateMachineInputEfb
854:__ZN7mecanim9animation17EvaluateBlendTreeERKNS0_17BlendTreeConstantERKNS0_14BlendTreeInputERNS0_15BlendTreeOutputERNS0_18BlendTreeWorkspaceERKNS0_12AnimationSetE
855:__ZN13AnimationClip15GetRuntimeAssetEv
856:__ZN7mecanim9animation10GetWeightsERKNS0_21BlendTreeNodeConstantERNS0_18BlendTreeWorkspaceEPfff
857:__ZN7mecanim9animation27GetWeightsSimpleDirectionalERKNS0_19Blend2dDataConstantEPfPiP8Vector2fffb
858:__ZN7mecanim9animation29GetWeightsFreeformDirectionalERKNS0_19Blend2dDataConstantEPfPiP8Vector2fffb
859:__ZN7mecanim9animation27GetWeightsFreeformCartesianERKNS0_19Blend2dDataConstantEPfPiP8Vector2fffb
860:__ZNK13AnimationClip18IsMecanimDataValidEv
861:__ZNK13AnimationClip19MecanimDataWasBuiltEv
862:__ZN7mecanim9animation12GetLeafCountERKNS0_17BlendTreeConstantE
863:__ZN7mecanim9animation12GetLeafCountERKNS0_17BlendTreeConstantERKNS0_21BlendTreeNodeConstantE
864:__ZN27AnimationLayerMixerPlayable14SetLayerWeightEjf
865:__ZN27AnimationLayerMixerPlayable16SetLayerAdditiveEjb
866:__ZN27AnimationLayerMixerPlayable21UpdateLayerParametersEv
867:__ZN7mecanim5human12FullBodyMaskEv
868:__ZN13dynamic_arrayIN27AnimationLayerMixerPlayable15LayerParametersELm0EE21resize_buffer_nocheckEm12ResizePolicy
869:__ZN13PlayableGraph25ConstructPlayableInternalI21AnimationClipPlayableEEPT_18DirectorPlayerTypem
870:__ZN17AnimationPlayableC2E18DirectorPlayerType
871:__ZN22AnimationAssetObserverC2Ev
872:__ZN21AnimationClipPlayable6MemoryD0Ev
873:__ZN21AnimationClipPlayableD2Ev
874:__ZN21AnimationClipPlayableD0Ev
875:__ZN21AnimationClipPlayable7SetTimeEd
876:__ZNK21AnimationClipPlayable8GetAssetEv
877:__ZNK21AnimationClipPlayable7GetTypeEv
878:__ZNK21AnimationClipPlayable11DerivesFromE17ScriptingClassPtr
879:__ZN17AnimationPlayable19DeallocateResourcesEv
880:__ZN21AnimationClipPlayable13OnAdvanceTimeEd
881:__ZN17AnimationPlayable18SetInputConnectionEP8Playableii
882:__ZN17AnimationPlayable21ClearOutputConnectionEi
883:__ZN21AnimationClipPlayable17ProcessRootMotionEP35AnimationPlayableEvaluationConstantP32AnimationPlayableEvaluationInputP33AnimationPlayableEvaluationOutput
884:__ZN21AnimationClipPlayable16ProcessAnimationEP35AnimationPlayableEvaluationConstantP32AnimationPlayableEvaluationInputP33AnimationPlayableEvaluationOutput
885:__ZN21AnimationClipPlayable17GetAnimationClipsER13dynamic_arrayIP13AnimationClipLm0EE
886:__ZN17AnimationPlayable19PreProcessAnimationEPK35AnimationPlayableEvaluationConstantPKN7mecanim9animation18AnimationNodeStateE
887:__ZN21AnimationClipPlayable22PrepareAnimationEventsEfR13dynamic_arrayI22AnimationClipEventInfoLm0EE
888:__ZN17AnimationPlayable34CollectAnimatorControllerPlayablesER13dynamic_arrayIP26AnimatorControllerPlayableLm0EE
889:__ZN21AnimationClipPlayable29CollectAnimationClipPlayablesER13dynamic_arrayIPS_Lm0EE
890:__ZN17AnimationPlayable13AddObjectUserER8UserList
891:__ZN21AnimationClipPlayable16AllocateBindingsEPK35AnimationPlayableEvaluationConstant
892:__ZN21AnimationClipPlayable18DeallocateBindingsEv
893:__ZN21AnimationClipPlayable17SetInternalWeightEf
894:__ZN7mecanim9animation15HasMotionCurvesERKNS0_18ClipMuscleConstantE
895:__ZN7mecanim9animation13HasRootCurvesERKNS0_18ClipMuscleConstantE
896:__ZN7mecanim9animation14HasHumanCurvesERKNS0_18ClipMuscleConstantE
897:__ZN7mecanim9animation23CalculateClipMemorySizeEPKNS0_4ClipEmR20RuntimeBaseAllocator
898:__ZN7mecanim9animation23CalculateClipOutputSizeEPKNS0_4ClipEmR20RuntimeBaseAllocator
899:__ZN7mecanim8skeleton25CalculateSkeletonPoseSizeIN4math4trsXEEEmPKNS0_8SkeletonEmR20RuntimeBaseAllocator
900:__ZN7mecanim9animation17GetClipCurveCountERKNS0_18ClipMuscleConstantE
901:__ZN7mecanim9animation16CreateClipMemoryEPKNS0_4ClipEiR20RuntimeBaseAllocator
902:__ZN7mecanim9animation16CreateClipOutputEPKNS0_4ClipER20RuntimeBaseAllocator
903:__ZN7mecanim8skeleton18CreateSkeletonPoseIN4math4trsXEEEPNS0_13SkeletonPoseTIT_EEPKNS0_8SkeletonER20RuntimeBaseAllocator
904:__ZNK17AnimationPlayable27GetNextCompatibleDescendantEm
905:__ZN13dynamic_arrayI22AnimationClipEventInfoLm0EE4growEv
906:__ZN7mecanim9animation15ComputeClipTimeEffffbfRfS1_bf
907:__ZN17AnimationPlayable17GetAnimationClipsER13dynamic_arrayIP13AnimationClipLm0EE
908:__ZN21AnimationClipPlayable20ProcessAnimationPassEPK35AnimationPlayableEvaluationConstantPK32AnimationPlayableEvaluationInputP33AnimationPlayableEvaluationOutput
909:__ZN21AnimationClipPlayable16ProcessHumanPassEPK35AnimationPlayableEvaluationConstantPK32AnimationPlayableEvaluationInputP33AnimationPlayableEvaluationOutput
910:__ZN7mecanim9animation17ClearMotionOutputEPNS0_18AnimationNodeStateE
911:__ZN7mecanim9animation15ClearHumanPosesEPNS0_18AnimationNodeStateE
912:__ZN7mecanim9animation13EvaluateHumanEPKNS0_18ClipMuscleConstantEPKNS0_15ClipMuscleInputEPKNS0_10ClipOutputERKNS0_16MotionXReferenceEPNS0_18AnimationNodeStateEbb
913:__ZN7mecanim9animation17EvaluateHumanPoseERKNS0_18ClipMuscleConstantERKNS0_15ClipMuscleInputEPKfRKNS0_12MotionOutputERKNS0_16MotionXReferenceERNS_5human9HumanPoseEb
914:__ZN7mecanim9animation12GetHumanPoseERKNS0_18ClipMuscleConstantEPKfRNS_5human9HumanPoseE
915:__ZN7mecanim9animation12GetHumanPoseERKNS0_18ClipMuscleConstantEPKNS0_10ValueDeltaERNS_5human9HumanPoseE
916:__ZN7mecanim5human15HumanPoseMirrorERNS0_9HumanPoseERKS1_
917:__ZN7mecanim5human12HumanPoseSubERNS0_9HumanPoseERKS1_S4_
918:__ZN7mecanim5human13HumanPoseCopyERNS0_9HumanPoseERKS1_b
919:__ZN7mecanim9animation12GetHumanPoseINS0_10ValueDeltaEEEvRKNS0_18ClipMuscleConstantEPKT_RNS_5human9HumanPoseE
920:__ZN7mecanim9animation12GetHumanPoseIfEEvRKNS0_18ClipMuscleConstantEPKT_RNS_5human9HumanPoseE
921:__ZN7mecanim5human9HumanPoseC2Ev
922:__ZN7mecanim5human15HumanPoseWeightERNS0_9HumanPoseERKS1_f
923:__ZN7mecanim5human12HumanPoseAddERNS0_9HumanPoseERKS1_S4_
924:__ZN7mecanim5human14HumanPoseClearERNS0_9HumanPoseE
925:__ZN7mecanim9animation17MotionOutputClearEPNS0_12MotionOutputE
926:__ZN21AnimationClipPlayable22ProcessAnimationNoClipEPK35AnimationPlayableEvaluationConstantPK32AnimationPlayableEvaluationInputP33AnimationPlayableEvaluationOutput
927:__ZN7mecanim9animation14ValuesFromClipILb0EEEvRKNS_10ValueArrayERKNS0_10ClipOutputERKNS0_12ClipBindingsEiRS2_RNS_14ValueArrayMaskEbPKSC_
928:__ZN7mecanim9animation14EvaluateValuesEPKNS0_18ClipMuscleConstantEPKNS_18ValueArrayConstantEPKNS0_12ClipBindingsEPKNS0_14AvatarConstantEPKNS0_14SkeletonTQSMapEPNS0_10ClipOutputERN21AnimationClipPlayable6MemoryEPNS0_18AnimationNodeStateEfbbb
929:__ZN7mecanim16CreateValueArrayEPKNS_18ValueArrayConstantER20RuntimeBaseAllocator
930:__ZN7mecanim9animation14DeltasFromClipILb0EEEvRKNS0_18ClipMuscleConstantERKNS0_12ClipBindingsERKNS_14ValueArrayMaskERNS_10ValueArrayESC_SC_
931:__ZN7mecanim9animation19AdjustPoseForMotionERKNS0_14AvatarConstantERKNS0_14SkeletonTQSMapERKN4math4trsXERNS_10ValueArrayERNS_8skeleton13SkeletonPoseTIS8_EESG_
932:__ZN7mecanim13ValueArraySubILb0EEEvRKNS_10ValueArrayEPKNS_14ValueArrayMaskERS1_
933:__ZN7mecanim14ValueArrayLoopILb0EEEvRKNS_10ValueArrayES3_RKNS_14ValueArrayMaskERS1_f
934:__ZN7mecanim17DestroyValueArrayEPNS_10ValueArrayER20RuntimeBaseAllocator
935:__ZN7mecanim9animation30SkeletonPoseFromValueRecursiveERKNS_8skeleton8SkeletonERKNS1_13SkeletonPoseTIN4math4trsXEEERKNS_10ValueArrayEPKNS0_14SkeletonTQSMapEPKiRS8_ii
936:__ZN7mecanim8skeleton25SkeletonPoseComputeGlobalIN4math4trsXEEEvPKNS0_8SkeletonEPKNS0_13SkeletonPoseTIT_EEPS9_
937:__ZN7mecanim8skeleton25SkeletonPoseComputeGlobalIN4math4trsXEEEvPKNS0_8SkeletonEPKNS0_13SkeletonPoseTIT_EEPS9_ii
938:__ZN7mecanim8skeleton24SkeletonPoseComputeLocalIN4math4trsXEEEvPKNS0_8SkeletonEPKNS0_13SkeletonPoseTIT_EEPS9_ii
939:__ZN7mecanim9animation30ValueFromSkeletonPoseRecursiveERKNS_8skeleton8SkeletonERKNS1_13SkeletonPoseTIN4math4trsXEEEPKNS0_14SkeletonTQSMapEPKiRNS_10ValueArrayEii
940:__ZN7mecanim6memory16InPlaceAllocator8AllocateEmm
941:__ZN7mecanim6memory13HeapAllocator8AllocateEmm
942:__ZN7mecanim6memory13HeapAllocator10DeallocateEPv
943:__ZN7mecanim12SetValueMaskILb0EEEvPNS_14ValueArrayMaskEb
944:__ZN7mecanim21SetTransformValueMaskEiiiPNS_14ValueArrayMaskEb
945:__ZN7mecanim13CopyValueMaskILb1EEEvPKNS_14ValueArrayMaskEPS1_
946:__ZN7mecanim14ValueArrayCopyILb0EEEvPKNS_10ValueArrayEPS1_PKNS_14ValueArrayMaskE
947:__ZN21AnimationClipPlayable30ProcessAnimationRootMotionPassEPK35AnimationPlayableEvaluationConstantPK32AnimationPlayableEvaluationInputP33AnimationPlayableEvaluationOutput
948:__ZN21AnimationClipPlayable31ProcessAnimationTargetMatchPassEPK35AnimationPlayableEvaluationConstantPK32AnimationPlayableEvaluationInputP33AnimationPlayableEvaluationOutput
949:__ZN7mecanim9animation15ClearClipOutputEPNS0_10ClipOutputEi
950:__ZN7mecanim9animation12EvaluateClipEPKNS0_4ClipEPKNS0_9ClipInputEPNS0_10ClipMemoryEPNS0_10ClipOutputE
951:__ZN7mecanim9animation29GenericRootXReferenceFromClipEiiRKNS0_18ClipMuscleConstantERKNS0_10ClipOutputES6_RKNS0_12ClipBindingsERNS0_21GenericRootXReferenceE
952:__ZN7mecanim9animation18EvaluateRootMotionERKNS0_18ClipMuscleConstantERKNS0_15ClipMuscleInputEPKfS8_PKNS0_21GenericRootXReferenceERNS0_12MotionOutputERNS0_16MotionXReferenceEbbb
953:__ZN7mecanim9animation13GetClipStartXERKNS0_18ClipMuscleConstantEi
954:__ZN7mecanim9animation12GetClipStopXERKNS0_18ClipMuscleConstantEi
955:__ZN7mecanim9animation5LoopXERN4math4trsXERKNS1_7_float3ERKNS1_7_float4ERKS2_bbb
956:__ZN7mecanim9animation9GetCycleXERKN4math4trsXES4_S4_if
957:__ZN7mecanim9animation11xformPrePowERKN4math4trsXEi
958:__ZN7mecanim9animation10SampleClipERKNS0_12StreamedClipERNS0_18StreamedClipMemoryEfPf
959:__ZN7mecanim9animation10SampleClipERKNS0_12ConstantClipEjPf
960:__ZN7mecanim9animation8SeekClipERKNS0_12StreamedClipERNS0_18StreamedClipMemoryEf
961:__ZN21AnimationClipPlayable23ProcessRootMotionNoClipEPK35AnimationPlayableEvaluationConstantPK32AnimationPlayableEvaluationInputP33AnimationPlayableEvaluationOutput
962:__ZN7mecanim9animation23TransformValuesFromClipEiiiRKNS_10ValueArrayERKNS0_10ClipOutputERKNS0_12ClipBindingsERS1_RNS_14ValueArrayMaskEb
963:__ZN7mecanim9animation14ValuesFromClipILb1EEEvRKNS_10ValueArrayERKNS0_10ClipOutputERKNS0_12ClipBindingsEiRS2_RNS_14ValueArrayMaskEbPKSC_
964:__ZN7mecanim9animation23TransformDeltasFromClipEiiiRKNS0_18ClipMuscleConstantERKNS0_12ClipBindingsERKNS_14ValueArrayMaskERN4math4trsXESC_SC_
965:__ZN7mecanim22TransformValueArraySubEiiiRKN4math4trsXERNS_10ValueArrayE
966:__ZN7mecanim23TransformValueArrayLoopEiiiRKN4math4trsXES3_RNS_10ValueArrayEf
967:__ZN7mecanim9animation26GenericRootXReferenceClearEPNS0_21GenericRootXReferenceE
968:__ZN7mecanim9animation30MotionOutputClearAdditiveLayerEPNS0_12MotionOutputE
969:__ZN7mecanim9animation19EvaluateFloatValuesEPKNS0_18ClipMuscleConstantEPKNS_18ValueArrayConstantEPKNS0_12ClipBindingsEPKNS0_10ClipOutputEPNS0_18AnimationNodeStateEfbb
970:__ZN7mecanim21CreateFloatValueArrayEPKNS_18ValueArrayConstantER20RuntimeBaseAllocator
971:__ZN7mecanim9animation14DeltasFromClipILb1EEEvRKNS0_18ClipMuscleConstantERKNS0_12ClipBindingsERKNS_14ValueArrayMaskERNS_10ValueArrayESC_SC_
972:__ZN7mecanim13ValueArraySubILb1EEEvRKNS_10ValueArrayEPKNS_14ValueArrayMaskERS1_
973:__ZN7mecanim14ValueArrayLoopILb1EEEvRKNS_10ValueArrayES3_RKNS_14ValueArrayMaskERS1_f
974:__ZN7mecanim23TransformValueArrayCopyEiiiPKNS_10ValueArrayEPS0_
975:__ZN7mecanim14ValueArrayCopyILb1EEEvPKNS_10ValueArrayEPS1_PKNS_14ValueArrayMaskE
976:__Z28GetAnimationScriptingClassesv
977:__ZL35InitializeAnimationScriptingClassesv
978:__ZL32CleanupAnimationScriptingClassesv
979:__ZN7mecanim6memory16ChainedAllocator8AllocateEmm
980:__ZN7mecanim6memory16ChainedAllocator5ResetEv
981:__ZN7mecanim6memory16ChainedAllocator16AllocateNewBlockERKmS3_
982:__ZN17AnimationPlayableD2Ev
983:__ZN17AnimationPlayableD0Ev
984:__ZNK17AnimationPlayable11DerivesFromE17ScriptingClassPtr
985:__ZN17AnimationPlayable17ProcessRootMotionEP35AnimationPlayableEvaluationConstantP32AnimationPlayableEvaluationInputP33AnimationPlayableEvaluationOutput
986:__ZN17AnimationPlayable16ProcessAnimationEP35AnimationPlayableEvaluationConstantP32AnimationPlayableEvaluationInputP33AnimationPlayableEvaluationOutput
987:__ZN17AnimationPlayable22PrepareAnimationEventsEfR13dynamic_arrayI22AnimationClipEventInfoLm0EE
988:__ZN17AnimationPlayable29CollectAnimationClipPlayablesER13dynamic_arrayIP21AnimationClipPlayableLm0EE
989:__ZN17AnimationPlayable16AllocateBindingsEPK35AnimationPlayableEvaluationConstant
990:__ZN17AnimationPlayable18DeallocateBindingsEv
991:__ZN17AnimationPlayable17SetInternalWeightEf
992:__ZN22AnimationAssetObserverD2Ev
993:__ZN14AnimationAsset14RemoveObserverEP22AnimationAssetObserver
994:__ZN21AnimationPosePlayableC2E18DirectorPlayerType
995:__ZNK21AnimationPosePlayable7GetTypeEv
996:__ZNK21AnimationPosePlayable11DerivesFromE17ScriptingClassPtr
997:__ZN21AnimationPosePlayable17ProcessRootMotionEP35AnimationPlayableEvaluationConstantP32AnimationPlayableEvaluationInputP33AnimationPlayableEvaluationOutput
998:__ZN21AnimationPosePlayable16ProcessAnimationEP35AnimationPlayableEvaluationConstantP32AnimationPlayableEvaluationInputP33AnimationPlayableEvaluationOutput
999:__ZN21AnimationPosePlayable19PreProcessAnimationEPK35AnimationPlayableEvaluationConstantPKN7mecanim9animation18AnimationNodeStateE
1000:__ZN21AnimationPosePlayable16AllocateBindingsEPK35AnimationPlayableEvaluationConstant
1001:__ZN21AnimationPosePlayable18DeallocateBindingsEv
1002:__ZN7mecanim9animation25DestroyAnimationNodeStateEPNS0_18AnimationNodeStateER20RuntimeBaseAllocator
1003:__ZN7mecanim21DestroyValueArrayMaskEPNS_14ValueArrayMaskER20RuntimeBaseAllocator
1004:__ZN7mecanim9animation24CreateAnimationNodeStateERKNS_18ValueArrayConstantEbbR20RuntimeBaseAllocator
1005:__ZN7mecanim20CreateValueArrayMaskEPKNS_18ValueArrayConstantER20RuntimeBaseAllocator
1006:__ZN7mecanim9animation22CopyAnimationNodeStateEPKNS0_18AnimationNodeStateEPS1_bRKNS_6bitsetILj83EEE
1007:__ZN7mecanim14ValueArrayCopyILb0EEEvPKNS_10ValueArrayEPS1_
1008:__ZN7mecanim13CopyValueMaskILb0EEEvPKNS_14ValueArrayMaskEPS1_
1009:__ZN7mecanim9animation16MotionOutputCopyEPNS0_12MotionOutputEPKS1_bRKNS_6bitsetILj83EEE
1010:__ZN7mecanim5human13HumanPoseCopyERNS0_9HumanPoseERKS1_RKNS_6bitsetILj83EEE
1011:__ZN7mecanim5human19MaskHasLeftFootGoalERKNS_6bitsetILj83EEE
1012:__ZN7mecanim5human20MaskHasRightFootGoalERKNS_6bitsetILj83EEE
1013:__ZN7mecanim11OrValueMaskILb0EEEvPKNS_14ValueArrayMaskEPS1_
1014:__ZN7mecanim9animation14CopyHumanPosesEPKNS0_18AnimationNodeStateEPS1_RKNS_6bitsetILj83EEE
1015:__ZN7mecanim9animation16CopyMotionOutputEPKNS0_18AnimationNodeStateEPS1_bRKNS_6bitsetILj83EEE
1016:__ZN7mecanim22CopyTransformValueMaskEiiiPKNS_14ValueArrayMaskEPS0_
1017:__ZN7mecanim11OrValueMaskILb1EEEvPKNS_14ValueArrayMaskEPS1_
1018:__ZN26AnimationBlendTreePlayableC2E18DirectorPlayerType
1019:__ZN22AnimationMixerPlayableD2Ev
1020:__ZN26AnimationBlendTreePlayableD0Ev
1021:__ZNK26AnimationBlendTreePlayable7GetTypeEv
1022:__ZNK26AnimationBlendTreePlayable11DerivesFromE17ScriptingClassPtr
1023:__ZN22AnimationMixerPlayable18SetInputConnectionEP8Playableii
1024:__ZN22AnimationMixerPlayable17ProcessRootMotionEP35AnimationPlayableEvaluationConstantP32AnimationPlayableEvaluationInputP33AnimationPlayableEvaluationOutput
1025:__ZN22AnimationMixerPlayable16ProcessAnimationEP35AnimationPlayableEvaluationConstantP32AnimationPlayableEvaluationInputP33AnimationPlayableEvaluationOutput
1026:__ZN22AnimationMixerPlayable16AllocateBindingsEPK35AnimationPlayableEvaluationConstant
1027:__ZN22AnimationMixerPlayable18DeallocateBindingsEv
1028:__ZN7mecanim22CreateValueArrayWeightEPKNS_18ValueArrayConstantER20RuntimeBaseAllocator
1029:__ZN22AnimationMixerPlayable26ProcessAnimationEmptyMixerEP35AnimationPlayableEvaluationConstantP32AnimationPlayableEvaluationInputP33AnimationPlayableEvaluationOutput
1030:__ZN22AnimationMixerPlayable24ProcessAnimationMixBeginEP35AnimationPlayableEvaluationConstantP32AnimationPlayableEvaluationInputP33AnimationPlayableEvaluationOutput
1031:__ZN22AnimationMixerPlayable19ProcessAnimationMixEP33AnimationPlayableEvaluationOutputP35AnimationPlayableEvaluationConstantP32AnimationPlayableEvaluationInputS1_f
1032:__ZN22AnimationMixerPlayable22ProcessAnimationMixEndEP35AnimationPlayableEvaluationConstantP32AnimationPlayableEvaluationInputP33AnimationPlayableEvaluationOutputf
1033:__ZN22AnimationMixerPlayable12MixerProcessEP35AnimationPlayableEvaluationConstantP32AnimationPlayableEvaluationInputP33AnimationPlayableEvaluationOutputM17AnimationPlayableFvS1_S3_S5_EMS_FvS1_S3_S5_ESA_MS_FvS5_S1_S3_S5_fEMS_FvS1_S3_S5_fE
1034:__ZN7mecanim14SetValueWeightEPNS_16ValueArrayWeightEf
1035:__ZN7mecanim18ValueArrayBlendEndILb0EEEvPKNS_10ValueArrayERKNS_14ValueArrayMaskERKNS_16ValueArrayWeightERS1_
1036:__ZN7mecanim5human17HumanPoseBlendEndERNS0_9HumanPoseERf
1037:__ZN7mecanim19ValueArrayBlendNodeILb0EEEvRKNS_10ValueArrayERKNS_14ValueArrayMaskERS1_RS4_RNS_16ValueArrayWeightEf
1038:__ZN7mecanim5human18HumanPoseBlendNodeERNS0_9HumanPoseEPS1_f
1039:__ZN7mecanim20ValueArrayBlendBeginILb0EEEvRNS_14ValueArrayMaskE
1040:__ZN7mecanim5human19HumanPoseBlendBeginERNS0_9HumanPoseE
1041:__ZN22AnimationMixerPlayable27ProcessRootMotionEmptyMixerEP35AnimationPlayableEvaluationConstantP32AnimationPlayableEvaluationInputP33AnimationPlayableEvaluationOutput
1042:__ZN22AnimationMixerPlayable25ProcessRootMotionMixBeginEP35AnimationPlayableEvaluationConstantP32AnimationPlayableEvaluationInputP33AnimationPlayableEvaluationOutput
1043:__ZN22AnimationMixerPlayable20ProcessRootMotionMixEP33AnimationPlayableEvaluationOutputP35AnimationPlayableEvaluationConstantP32AnimationPlayableEvaluationInputS1_f
1044:__ZN22AnimationMixerPlayable23ProcessRootMotionMixEndEP35AnimationPlayableEvaluationConstantP32AnimationPlayableEvaluationInputP33AnimationPlayableEvaluationOutputf
1045:__ZN7mecanim27TransformValueArrayBlendEndEiiiPKNS_10ValueArrayERKNS_14ValueArrayMaskERKNS_16ValueArrayWeightERS0_
1046:__ZN7mecanim18ValueArrayBlendEndILb1EEEvPKNS_10ValueArrayERKNS_14ValueArrayMaskERKNS_16ValueArrayWeightERS1_
1047:__ZN7mecanim9animation20MotionOutputBlendEndEPNS0_12MotionOutputEbRKNS_6bitsetILj83EEERf
1048:__ZN7mecanim9animation21MotionOutputBlendNodeEPNS0_12MotionOutputES2_fbRKNS_6bitsetILj83EEE
1049:__ZN7mecanim28TransformValueArrayBlendNodeEiiiRKNS_10ValueArrayERKNS_14ValueArrayMaskERS0_RS3_RNS_16ValueArrayWeightEf
1050:__ZN7mecanim19ValueArrayBlendNodeILb1EEEvRKNS_10ValueArrayERKNS_14ValueArrayMaskERS1_RS4_RNS_16ValueArrayWeightEf
1051:__ZN7mecanim9animation22MotionOutputBlendBeginEPNS0_12MotionOutputEb
1052:__ZN7mecanim29TransformValueArrayBlendBeginEiiiRNS_14ValueArrayMaskE
1053:__ZN7mecanim20ValueArrayBlendBeginILb1EEEvRNS_14ValueArrayMaskE
1054:__ZN7mecanim12SetValueMaskILb1EEEvPNS_14ValueArrayMaskEb
1055:__ZNK22AnimationMixerPlayable11DerivesFromE17ScriptingClassPtr
1056:__ZN34AnimationStateMachineMixerPlayableC2E18DirectorPlayerType
1057:__ZN22AnimationMixerPlayableC2E18DirectorPlayerType
1058:__ZN27AnimationLayerMixerPlayableC2E18DirectorPlayerType
1059:__ZN27AnimationLayerMixerPlayableD2Ev
1060:__ZN27AnimationLayerMixerPlayableD0Ev
1061:__ZN27AnimationLayerMixerPlayable13SetInputCountEi
1062:__ZN27AnimationLayerMixerPlayable14SetInputWeightEif
1063:__ZNK27AnimationLayerMixerPlayable7GetTypeEv
1064:__ZNK27AnimationLayerMixerPlayable11DerivesFromE17ScriptingClassPtr
1065:__ZN27AnimationLayerMixerPlayable19DeallocateResourcesEv
1066:__ZN27AnimationLayerMixerPlayable18SetInputConnectionEP8Playableii
1067:__ZN27AnimationLayerMixerPlayable17ProcessRootMotionEP35AnimationPlayableEvaluationConstantP32AnimationPlayableEvaluationInputP33AnimationPlayableEvaluationOutput
1068:__ZN27AnimationLayerMixerPlayable16ProcessAnimationEP35AnimationPlayableEvaluationConstantP32AnimationPlayableEvaluationInputP33AnimationPlayableEvaluationOutput
1069:__ZN27AnimationLayerMixerPlayable22PrepareAnimationEventsEfR13dynamic_arrayI22AnimationClipEventInfoLm0EE
1070:__ZN27AnimationLayerMixerPlayable16AllocateBindingsEPK35AnimationPlayableEvaluationConstant
1071:__ZN27AnimationLayerMixerPlayable18DeallocateBindingsEv
1072:__ZN27AnimationLayerMixerPlayable13ClearBindingsEv
1073:__ZN27AnimationLayerMixerPlayable18GetLayerParametersEj
1074:__ZN27AnimationLayerMixerPlayable6Memory20CreateNodeStateArrayEiRKN7mecanim18ValueArrayConstantEbbR20RuntimeBaseAllocator
1075:__ZN27AnimationLayerMixerPlayable27ProcessAnimationSingleLayerEP35AnimationPlayableEvaluationConstantP32AnimationPlayableEvaluationInputP33AnimationPlayableEvaluationOutput
1076:__ZN27AnimationLayerMixerPlayable24ProcessAnimationLayerMixEP33AnimationPlayableEvaluationOutputP35AnimationPlayableEvaluationConstantP32AnimationPlayableEvaluationInputS1_if
1077:__ZN27AnimationLayerMixerPlayable17LayerMixerProcessEP35AnimationPlayableEvaluationConstantP32AnimationPlayableEvaluationInputP33AnimationPlayableEvaluationOutputM17AnimationPlayableFvS1_S3_S5_EMS_FvS1_S3_S5_ESA_MS_FvS5_S1_S3_S5_ifE
1078:__ZN7mecanim12AndValueMaskILb0EEEvPKNS_14ValueArrayMaskEPS1_
1079:__ZN7mecanim13ValueArrayAddILb0EEEvPKNS_10ValueArrayES3_PKNS_14ValueArrayMaskEfbPS1_PS4_
1080:__ZN27AnimationLayerMixerPlayable8MixHumanEP33AnimationPlayableEvaluationOutputP35AnimationPlayableEvaluationConstantP32AnimationPlayableEvaluationInputS1_f
1081:__ZN7mecanim5human25HumanPoseAddAdditiveLayerERNS0_9HumanPoseERKS1_fRKNS_6bitsetILj83EEE
1082:__ZN7mecanim5human25HumanPoseAddOverrideLayerERNS0_9HumanPoseERKS1_fRKNS_6bitsetILj83EEE
1083:__ZN7mecanim5human14HumanPoseClearERNS0_9HumanPoseERKNS_6bitsetILj83EEE
1084:__ZN27AnimationLayerMixerPlayable28ProcessRootMotionSingleLayerEP35AnimationPlayableEvaluationConstantP32AnimationPlayableEvaluationInputP33AnimationPlayableEvaluationOutput
1085:__ZN27AnimationLayerMixerPlayable27ProcessRootMotionLayerBeginEP35AnimationPlayableEvaluationConstantP32AnimationPlayableEvaluationInputP33AnimationPlayableEvaluationOutput
1086:__ZN27AnimationLayerMixerPlayable25ProcessRootMotionLayerMixEP33AnimationPlayableEvaluationOutputP35AnimationPlayableEvaluationConstantP32AnimationPlayableEvaluationInputS1_if
1087:__ZN7mecanim22TransformValueArrayAddEiiiPKNS_10ValueArrayES2_PKNS_14ValueArrayMaskEfbPS0_PS3_
1088:__ZN7mecanim13ValueArrayAddILb1EEEvPKNS_10ValueArrayES3_PKNS_14ValueArrayMaskEfbPS1_PS4_
1089:__ZN7mecanim9animation22MotionAddOverrideLayerEPNS0_12MotionOutputEPKS1_fbRKNS_6bitsetILj83EEE
1090:__ZN7mecanim14ValueArrayCopyILb1EEEvPKNS_10ValueArrayEPS1_
1091:__ZN7mecanim12statemachine24CreateStateMachineOutputEPKNS0_20StateMachineConstantEjR20RuntimeBaseAllocator
1092:__ZN7mecanim12statemachine27CreateStateMachineWorkspaceEPKNS0_20StateMachineConstantEjR20RuntimeBaseAllocator
1093:__ZN7mecanim12statemachine20GetBlendTreeConstantERKNS0_13StateConstantEi
1094:__ZN7mecanim12statemachine20CreateStateWorkspaceEjjjR20RuntimeBaseAllocator
1095:__ZN7mecanim9animation20CreateBlendTreeInputER20RuntimeBaseAllocator
1096:__ZN7mecanim9animation21CreateBlendTreeOutputEjR20RuntimeBaseAllocator
1097:__ZN7mecanim9animation24CreateBlendTreeWorkspaceEjR20RuntimeBaseAllocator
1098:__ZN7mecanim12statemachine24CreateStateMachineMemoryEPKNS0_20StateMachineConstantER20RuntimeBaseAllocator
1099:__ZN26AnimatorControllerPlayableC2E18DirectorPlayerType
1100:__ZN27StateMachineBehaviourPlayerC2EP28IStateMachineBehaviourSender
1101:__ZN26AnimatorControllerPlayableD2Ev
1102:__ZN26AnimatorControllerPlayableD0Ev
1103:__ZN26AnimatorControllerPlayable12PrepareFrameERK19DirectorVisitorInfo
1104:__ZNK26AnimatorControllerPlayable8GetAssetEv
1105:__ZNK26AnimatorControllerPlayable7GetTypeEv
1106:__ZNK26AnimatorControllerPlayable11DerivesFromE17ScriptingClassPtr
1107:__ZN26AnimatorControllerPlayable19DeallocateResourcesEv
1108:__ZN26AnimatorControllerPlayable17ProcessRootMotionEP35AnimationPlayableEvaluationConstantP32AnimationPlayableEvaluationInputP33AnimationPlayableEvaluationOutput
1109:__ZN26AnimatorControllerPlayable16ProcessAnimationEP35AnimationPlayableEvaluationConstantP32AnimationPlayableEvaluationInputP33AnimationPlayableEvaluationOutput
1110:__ZN26AnimatorControllerPlayable17GetAnimationClipsER13dynamic_arrayIP13AnimationClipLm0EE
1111:__ZN26AnimatorControllerPlayable19PreProcessAnimationEPK35AnimationPlayableEvaluationConstantPKN7mecanim9animation18AnimationNodeStateE
1112:__ZN26AnimatorControllerPlayable22PrepareAnimationEventsEfR13dynamic_arrayI22AnimationClipEventInfoLm0EE
1113:__ZN26AnimatorControllerPlayable34CollectAnimatorControllerPlayablesER13dynamic_arrayIPS_Lm0EE
1114:__ZN26AnimatorControllerPlayable13AddObjectUserER8UserList
1115:__ZN26AnimatorControllerPlayable16AllocateBindingsEPK35AnimationPlayableEvaluationConstant
1116:__ZN26AnimatorControllerPlayable18DeallocateBindingsEv
1117:__ZN26AnimatorControllerPlayable27SetupStateMachineBehavioursEv
1118:__ZN26AnimatorControllerPlayable29CleanupStateMachineBehavioursEv
1119:__ZN26AnimatorControllerPlayable8GetFloatEiRf
1120:__ZN26AnimatorControllerPlayable8SetFloatEiRKf
1121:__ZN26AnimatorControllerPlayable10GetIntegerEiRi
1122:__ZN26AnimatorControllerPlayable10SetIntegerEiRKi
1123:__ZN26AnimatorControllerPlayable7GetBoolEiRb
1124:__ZN26AnimatorControllerPlayable7SetBoolEiRKb
1125:__ZN26AnimatorControllerPlayable12ResetTriggerEi
1126:__ZN26AnimatorControllerPlayable10SetTriggerEi
1127:__ZNK26AnimatorControllerPlayable13IsInitializedEv
1128:__ZNK26AnimatorControllerPlayable24HasStateMachineBehaviourEv
1129:__ZNK26AnimatorControllerPlayable25GetStateMachineBehavioursEv
1130:__ZNK26AnimatorControllerPlayable41GetStateMachineBehaviourVectorDescriptionEv
1131:__ZThn192_NK26AnimatorControllerPlayable13IsInitializedEv
1132:__ZThn192_NK26AnimatorControllerPlayable24HasStateMachineBehaviourEv
1133:__ZThn192_NK26AnimatorControllerPlayable25GetStateMachineBehavioursEv
1134:__ZThn192_NK26AnimatorControllerPlayable41GetStateMachineBehaviourVectorDescriptionEv
1135:__Z33PPtrToObjectDontLoadNoThreadCheckI13MonoBehaviourEPT_4PPtrIS1_E
1136:__ZN7mecanim9animation22DestroyControllerInputEPNS0_15ControllerInputER20RuntimeBaseAllocator
1137:__ZN7mecanim9animation23DestroyControllerMemoryEPNS0_16ControllerMemoryER20RuntimeBaseAllocator
1138:__ZN7mecanim9animation26DestroyControllerWorkspaceEPNS0_19ControllerWorkspaceER20RuntimeBaseAllocator
1139:__ZN7mecanim12statemachine28DestroyStateMachineWorkspaceEPNS0_21StateMachineWorkspaceER20RuntimeBaseAllocator
1140:__ZN7mecanim12statemachine21DestroyStateWorkspaceEPNS0_14StateWorkspaceER20RuntimeBaseAllocator
1141:__ZN7mecanim9animation22DestroyBlendTreeOutputEPNS0_15BlendTreeOutputER20RuntimeBaseAllocator
1142:__ZN7mecanim9animation25DestroyBlendTreeWorkspaceEPNS0_18BlendTreeWorkspaceER20RuntimeBaseAllocator
1143:__ZN7mecanim21ValueArrayReverseCopyEPKNS_18ValueArrayConstantEPKNS_10ValueArrayES2_PS3_PKi
1144:__ZN27AnimationLayerMixerPlayable16SetLayerMaskCopyEjRKN7mecanim6bitsetILj83EEEPKNS0_8skeleton12SkeletonMaskE
1145:__ZN7mecanim8skeleton18CreateSkeletonMaskEjPKNS0_19SkeletonMaskElementER20RuntimeBaseAllocator
1146:__ZNK27AnimationLayerMixerPlayable14GetLayerWeightEj
1147:__ZN7mecanim14ValueArrayCopyEPKNS_18ValueArrayConstantEPKNS_10ValueArrayES2_PS3_PKi
1148:__ZN26AnimatorControllerPlayable12PrepareFrameERK9FrameDataP8Playableb
1149:__ZN26AnimatorControllerPlayable11UpdateGraphEf
1150:__ZN7mecanim12statemachine20EvaluateStateMachineERKNS0_20StateMachineConstantERKNS0_17StateMachineInputERNS0_18StateMachineOutputERNS0_18StateMachineMemoryERNS0_21StateMachineWorkspaceE
1151:__ZN7mecanim12statemachine10IsDisabledEPKNS0_17StateMachineInputE
1152:__ZNK27StateMachineBehaviourPlayer15IsSenderEnabledEv
1153:__ZN34AnimationStateMachineMixerPlayable13EndTransitionEv
1154:__ZN7mecanim12statemachine19EvaluateTransitionsERK9OffsetPtrIS1_INS0_18TransitionConstantEEEjRNS0_15TransitionInputERNS0_16TransitionOutputERNS0_16TransitionMemoryEPKNS0_20StateMachineConstantEPKNS0_17StateMachineInputEPNS0_18StateMachineOutputEPNS0_18StateMachineMemoryEPNS0_21StateMachineWorkspaceEi
1155:__ZN34AnimationStateMachineMixerPlayable26StartInterruptedTransitionEbb
1156:__ZNK34AnimationStateMachineMixerPlayable26GetInterruptedPosePlayableEv
1157:__ZN7mecanim12statemachine18EvaluateTransitionEPKNS0_18TransitionConstantEPKNS0_15TransitionInputEPNS0_16TransitionOutputEPKNS0_16TransitionMemoryEPNS0_21StateMachineWorkspaceE
1158:__ZN7mecanim12statemachine17EvaluateSelectorsEPKNS0_20StateMachineConstantEPKNS_18ValueArrayConstantEPNS_10ValueArrayEjPKNS0_17StateMachineInputEPNS0_18StateMachineMemoryEPNS0_21StateMachineWorkspaceE
1159:__ZNK27StateMachineBehaviourPlayer25FireStateMachineBehaviourEiiN7mecanim12statemachine19StateMachineMessageE
1160:__ZN7mecanim12statemachine17EvaluateConditionEPKNS0_17ConditionConstantEPKNS_18ValueArrayConstantEPKNS_10ValueArrayE
1161:__ZNK27StateMachineBehaviourPlayer13FireBehaviourER8StateKeyR18ScriptingArgumentsN7mecanim12statemachine19StateMachineMessageEb
1162:__Z24FindStateBehavioursRangeRK8StateKeyPK38StateMachineBehaviourVectorDescription
1163:__ZN21AnimationClipPlayable7SetClipEP13AnimationClip
1164:__ZN23AnimationPlayableOutput17SetTargetAnimatorEP8Animator
1165:__ZN8Animator28BuildControllerPlayableCacheEv
1166:__ZN26AnimatorControllerPlayable13RebuildMemoryEv
1167:__ZNK26AnimatorControllerPlayable13GetLayerCountEv
1168:__ZN8Animator16OnPlayableUnbindEP23AnimationPlayableOutput
1169:__ZN23AnimationPlayableOutput4BindEv
1170:__ZN8Animator14OnPlayableBindEP23AnimationPlayableOutput
1171:__ZN13dynamic_arrayI13BoundPlayableLm0EE4growEv
1172:__ZN13dynamic_arrayI13BoundPlayableLm0EE21resize_buffer_nocheckEm12ResizePolicy
1173:__ZN8Animator13ClearBindingsEv
1174:__ZN8Animator22SyncPlayStateToCullingEv
1175:__ZN11UnityEngine9Animation30DestroyAnimatorGenericBindingsEPNS0_30AnimatorGenericBindingConstantER20RuntimeBaseAllocator
1176:__ZN17AnimationPlayable28UpdateInternalStateRecursiveILi1ELb0EEEvPK35AnimationPlayableEvaluationConstant
1177:__ZN11UnityEngine9Animation31UnregisterGenericBindingObjectsEPNS0_30AnimatorGenericBindingConstantE
1178:__ZN11UnityEngine9AnimationL22GenericBindingCallbackEPvS1_i
1179:__ZN23AnimationPlayableOutputC2EPKcP13PlayableGraph
1180:__ZN14PlayableOutputD2Ev
1181:__ZN23AnimationPlayableOutputD0Ev
1182:__ZNK23AnimationPlayableOutput7GetTypeEv
1183:__ZNK23AnimationPlayableOutput11DerivesFromE17ScriptingClassPtr
1184:__ZNK23AnimationPlayableOutput9GetStagesER13dynamic_arrayI16StageDescriptionLm0EE
1185:__ZN23AnimationPlayableOutput17SetSourcePlayableEP8Playablei
1186:__ZN23AnimationPlayableOutput17OnPlayerDestroyedEP6Object
1187:__ZN23AnimationPlayableOutput22OnConnectionHashChangeEv
1188:__ZN23AnimationPlayableOutput19DeallocateResourcesEv
1189:__ZN8Animator22OnGraphTopologyChangedEP23AnimationPlayableOutputi
1190:__ZN17AnimationPlayable28ComputeNeedsBindingRebuildedEv
1191:__ZN8Animator25WriteDefaultValuesNoDirtyEv
1192:__ZN8Animator14CreateBindingsEv
1193:__ZN8Animator20CreatePlayableMemoryEv
1194:__ZN8Animator22SetupPlayableWorkspaceERKNS_13AvatarDataSetERKNS_15BindingsDataSetER35AnimationPlayableEvaluationConstantR32AnimationPlayableEvaluationInput
1195:__ZN21AnimationHandleBinder10ResolveAllERK35AnimationPlayableEvaluationConstant
1196:__ZN11UnityEngine9Animation33DeallocatePlayableEvaluationInputER32AnimationPlayableEvaluationInputR20RuntimeBaseAllocator
1197:__ZN11UnityEngine9Animation31AllocatePlayableEvaluationInputER32AnimationPlayableEvaluationInputRK35AnimationPlayableEvaluationConstantR20RuntimeBaseAllocator
1198:__ZN31AnimationStreamHandleDefinition7ResolveERK35AnimationPlayableEvaluationConstant
1199:__ZN21AnimationHandleBinder22ResolveAllSceneHandlesERK35AnimationPlayableEvaluationConstant
1200:__ZN11UnityEngine9Animation31GetGenericAnimationBindingCacheEv
1201:__ZN11UnityEngine9Animation28GenericAnimationBindingCache11BindGenericERKNS0_14GenericBindingERK9TransformRNS0_10BoundCurveE
1202:__ZL48InvalidatePropertySceneHandleBoundCurvesCallbackPvS_i
1203:__ZNK11UnityEngine9Animation28GenericAnimationBindingCache10BindCustomERKNS0_14GenericBindingERK9TransformRNS0_10BoundCurveE
1204:__ZN11UnityEngine9Animation28GenericAnimationBindingCache10BindScriptERKNS0_14GenericBindingERK9TransformRNS0_10BoundCurveE
1205:__ZN11UnityEngine9Animation28GenericAnimationBindingCache20BindGenericComponentERKNS0_14GenericBindingERK9TransformRNS0_10BoundCurveE
1206:__ZN11UnityEngine9AnimationL24GenerateComponentBindingEPKN5Unity4TypeE18ScriptingObjectPtr17ScriptingClassPtrP6Object
1207:__ZNSt3__26__sortIRNS_6__lessIN11UnityEngine9Animation13CachedBindingES4_EEPS4_EEvT0_S8_T_
1208:__ZN11UnityEngine9AnimationL22GenerateBindingRecurseERK16TypeTreeIterator18ScriptingObjectPtr5crc32R13dynamic_arrayINS0_13CachedBindingELm0EE
1209:__ZN11UnityEngine9Animation19GetTypeTreeBindTypeERK16TypeTreeIterator
1210:__ZNSt3__26vectorI14TypeTreeString13stl_allocatorIS1_L18MemLabelIdentifier1ELi16EEE21__push_back_slow_pathIS1_EEvOT_
1211:__ZN13dynamic_arrayIN11UnityEngine9Animation13CachedBindingELm0EE4growEv
1212:__ZNSt3__27__sort4IRNS_6__lessIN11UnityEngine9Animation13CachedBindingES4_EEPS4_EEjT0_S8_S8_S8_T_
1213:__ZNSt3__227__insertion_sort_incompleteIRNS_6__lessIN11UnityEngine9Animation13CachedBindingES4_EEPS4_EEbT0_S8_T_
1214:__ZN11UnityEngine9Animation18IsTransformBindingERKNS0_14GenericBindingE
1215:__ZN7mecanim8skeleton16SkeletonFindNodeEPKNS0_8SkeletonEj
1216:__ZN17AnimationPlayable28UpdateInternalStateRecursiveILi3ELb0EEEvPK35AnimationPlayableEvaluationConstant
1217:__ZN8Animator24SetupAnimationClipsCacheEv
1218:__ZN11UnityEngine9Animation26CreateAnimationSetBindingsERK13dynamic_arrayIP13AnimationClipLm0EER20RuntimeBaseAllocator
1219:__ZN11UnityEngine9Animation27DestroyAnimationSetBindingsEPNS0_20AnimationSetBindingsER20RuntimeBaseAllocator
1220:__ZN7mecanim9animation32DeallocateAvatarOuputForBindingsEPNS0_12AvatarOutputER20RuntimeBaseAllocator
1221:__ZN8Animator20SetupBindingsDataSetEN4core8AllocPtrIN11UnityEngine9Animation20AnimationSetBindingsE20MecanimDestroyPolicyIS4_EEERNS_15BindingsDataSetERNS_13AvatarDataSetE
1222:__ZN8Animator13GetAvatarRootEv
1223:__ZN11UnityEngine9Animation29CreateAnimatorGenericBindingsERKNS0_20AnimationSetBindingsER9TransformPKN7mecanim9animation14AvatarConstantEbR20RuntimeBaseAllocatorR8Animator
1224:__ZN11UnityEngine9Animation32CreateAnimatorGenericBindingsOptERKNS0_20AnimationSetBindingsER9TransformPKN7mecanim9animation14AvatarConstantEPKNS0_21AvatarBindingConstantEbR20RuntimeBaseAllocatorR8Animator
1225:__ZN7mecanim9animation30AllocateAvatarOuputForBindingsEPNS0_12AvatarOutputEPKNS_18ValueArrayConstantER20RuntimeBaseAllocator
1226:__ZN11UnityEngine9Animation36GenerateTransformBindingMapRecursiveER9TransformRK5crc32R13dynamic_arrayINS0_14BoundTransformELm0EEPKN7mecanim9animation14AvatarConstantEb
1227:__ZN11UnityEngine9AnimationL56CalculateTransformBindingSizeBasedOnConstantOptimizationERKNS0_20AnimationSetBindingsERK13dynamic_arrayINS0_14BoundTransformELm0EEPKiPKN7mecanim9animation14AvatarConstantEb
1228:__ZN7mecanim28CreateValueArrayConstantCopyEPKNS_18ValueArrayConstantEjR20RuntimeBaseAllocator
1229:__ZN11UnityEngine9AnimationL29RegisterGenericBindingObjectsEPNS0_30AnimatorGenericBindingConstantE
1230:__ZN11UnityEngine9AnimationL23InitializeDefaultValuesERKNS0_30AnimatorGenericBindingConstantEPKN7mecanim9animation14AvatarConstantEb
1231:__ZN7mecanim9animation21ValueFromSkeletonPoseERKNS_8skeleton8SkeletonERKNS1_13SkeletonPoseTIN4math4trsXEEEPKNS0_14SkeletonTQSMapERNS_10ValueArrayE
1232:__ZN11UnityEngine9Animation27GetCurveCountForBindingTypeEj
1233:__Z14FindAvatarRootPKN7mecanim8skeleton8SkeletonEPKjR9Transformb
1234:__ZL18BuildTransformListR9TransformR13dynamic_arrayIPS_Lm0EE
1235:__ZL15HiearchyMatchesP9TransformPKN7mecanim8skeleton8SkeletonEjRK5crc32
1236:__ZN7mecanim9animation19DestroyAnimationSetEPNS0_12AnimationSetER20RuntimeBaseAllocator
1237:__ZN7mecanim9animation18CreateAnimationSetEjR20RuntimeBaseAllocator
1238:__ZN4core8hash_mapIN11UnityEngine9Animation14GenericBindingENS2_10BoundIndexENS2_25GenericBindingHashFunctorENS2_30GenericBindingValueArrayUniqueEE6insertERKS3_RKS4_
1239:__ZNSt3__26__sortIRN11UnityEngine9Animation11BindingSortEPNS_4pairINS2_14GenericBindingEPNS2_10BoundIndexEEEEEvT0_SB_T_
1240:__ZN13dynamic_arrayINSt3__24pairIN11UnityEngine9Animation14GenericBindingEPNS3_10BoundIndexEEELm0EE4growEv
1241:__ZN11UnityEngine9Animation15IsMuscleBindingERKNS0_14GenericBindingE
1242:__ZNK11UnityEngine9Animation30GenericBindingValueArrayUniqueclERKNS0_14GenericBindingES4_
1243:__ZN7mecanim24CreateValueArrayConstantENS_9ValueTypeEjR20RuntimeBaseAllocator
1244:__ZN11UnityEngine9AnimationltERKNS0_14GenericBindingES3_
1245:__ZNSt3__27__sort3IRN11UnityEngine9Animation11BindingSortEPNS_4pairINS2_14GenericBindingEPNS2_10BoundIndexEEEEEjT0_SB_SB_T_
1246:__ZNSt3__27__sort4IRN11UnityEngine9Animation11BindingSortEPNS_4pairINS2_14GenericBindingEPNS2_10BoundIndexEEEEEjT0_SB_SB_SB_T_
1247:__ZNSt3__27__sort5IRN11UnityEngine9Animation11BindingSortEPNS_4pairINS2_14GenericBindingEPNS2_10BoundIndexEEEEEjT0_SB_SB_SB_SB_T_
1248:__ZNSt3__218__insertion_sort_3IRN11UnityEngine9Animation11BindingSortEPNS_4pairINS2_14GenericBindingEPNS2_10BoundIndexEEEEEvT0_SB_T_
1249:__ZNSt3__227__insertion_sort_incompleteIRN11UnityEngine9Animation11BindingSortEPNS_4pairINS2_14GenericBindingEPNS2_10BoundIndexEEEEEbT0_SB_T_
1250:__ZNK11UnityEngine9Animation14GenericBinding11IsTransformEv
1251:__ZN4core8hash_setINS_4pairIKN11UnityEngine9Animation14GenericBindingENS3_10BoundIndexELb0EEENS_9hash_pairINS3_25GenericBindingHashFunctorES5_S6_EENS_10equal_pairINS3_30GenericBindingValueArrayUniqueES5_S6_EEE4growEi
1252:__ZNK21AnimationHandleBinder16GetAnimationClipEv
1253:__ZNK21AnimationHandleBinder36CreateAnimationStreamHandlesBindingsEv
1254:__ZN18BaseObjectInternal9NewObjectI13AnimationClipEEP6Object10MemLabelId18ObjectCreationMode
1255:__ZNK21AnimationHandleBinder21BuildClipFromBindingsERK13dynamic_arrayI31AnimationStreamHandleDefinitionLm0EEP13AnimationClip
1256:__ZN13AnimationClip11ClearCurvesEv
1257:__ZN13AnimationClip18CleanupMecanimDataEv
1258:__ZN13AnimationClip26BuildMecanimDataMainThreadEv
1259:__ZN13AnimationClip16AddPositionCurveERK17AnimationCurveTplI8Vector3fERKN4core12basic_stringIcNS5_20StringStorageDefaultIcEEEE
1260:__ZN13AnimationClip18AddQuaternionCurveERK17AnimationCurveTplI11QuaternionfERKN4core12basic_stringIcNS5_20StringStorageDefaultIcEEEE
1261:__ZN13AnimationClip13AddScaleCurveERK17AnimationCurveTplI8Vector3fERKN4core12basic_stringIcNS5_20StringStorageDefaultIcEEEE
1262:__ZN13AnimationClip13AddFloatCurveERK17AnimationCurveTplIfERKN4core12basic_stringIcNS4_20StringStorageDefaultIcEEEEPKN5Unity4TypeESA_4PPtrI10MonoScriptE
1263:__ZN13dynamic_arrayI12PPtrKeyframeLm0EEC2EmRK10MemLabelId
1264:__ZN13AnimationClip12AddPPtrCurveERK13dynamic_arrayI12PPtrKeyframeLm0EERKN4core12basic_stringIcNS5_20StringStorageDefaultIcEEEEPKN5Unity4TypeESB_4PPtrI10MonoScriptE
1265:__ZNK6Object14GetMemoryLabelEv
1266:__ZN12memorymacros6detail18AutoAllocationRootC2E10MemLabelId
1267:__ZN13AnimationClip9PPtrCurveC2Ev
1268:__ZN13stl_allocatorIN13AnimationClip9PPtrCurveEL18MemLabelIdentifier30ELi16EE9constructEPS1_RKS1_
1269:__ZNSt3__26vectorIN13AnimationClip9PPtrCurveE13stl_allocatorIS2_L18MemLabelIdentifier30ELi16EEE21__push_back_slow_pathIS2_EEvOT_
1270:__ZN13AnimationClip9PPtrCurveD2Ev
1271:__ZN13dynamic_arrayI12PPtrKeyframeLm0EEaSERKS1_
1272:__ZN4core12basic_stringIcNS_20StringStorageDefaultIcEEEaSERKS3_
1273:__ZN12memorymacros6detail18AutoAllocationRootD2Ev
1274:__ZN4core12basic_stringIcNS_20StringStorageDefaultIcEEE6assignERKS3_
1275:__ZNK13dynamic_arrayI12PPtrKeyframeLm0EE5beginEv
1276:__ZNK13dynamic_arrayI12PPtrKeyframeLm0EE3endEv
1277:__ZN13dynamic_arrayI12PPtrKeyframeLm0EE6assignEPKS0_S3_
1278:__ZN13dynamic_arrayI12PPtrKeyframeLm0EE4dataEv
1279:__ZNK13dynamic_arrayI12PPtrKeyframeLm0EE4sizeEv
1280:__Z10destruct_nI12PPtrKeyframeEvPT_m
1281:__ZNK13dynamic_arrayI12PPtrKeyframeLm0EE8capacityEv
1282:__ZN13dynamic_arrayI12PPtrKeyframeLm0EE21resize_buffer_nocheckEm12ResizePolicy
1283:__Z30copy_construct_array_autolabelI12PPtrKeyframeEvPT_mPKS1_RK10MemLabelId
1284:__ZN13dynamic_arrayI12PPtrKeyframeLm0EE14data_alignmentEv
1285:__ZNK20dynamic_array_detail18dynamic_array_data8capacityEv
1286:__ZN4core12basic_stringIcNS_20StringStorageDefaultIcEEED2Ev
1287:__ZN4core20StringStorageDefaultIcED2Ev
1288:__ZNKSt3__26vectorIN13AnimationClip9PPtrCurveE13stl_allocatorIS2_L18MemLabelIdentifier30ELi16EEE8max_sizeEv
1289:__ZNSt3__214__split_bufferIN13AnimationClip9PPtrCurveER13stl_allocatorIS2_L18MemLabelIdentifier30ELi16EEEC2EmmS6_
1290:__ZNSt3__26vectorIN13AnimationClip9PPtrCurveE13stl_allocatorIS2_L18MemLabelIdentifier30ELi16EEE26__swap_out_circular_bufferERNS_14__split_bufferIS2_RS5_EE
1291:__ZNSt3__214__split_bufferIN13AnimationClip9PPtrCurveER13stl_allocatorIS2_L18MemLabelIdentifier30ELi16EEED2Ev
1292:__ZN13stl_allocatorIN13AnimationClip9PPtrCurveEL18MemLabelIdentifier30ELi16EE7destroyEPS1_
1293:__ZN13stl_allocatorIN13AnimationClip9PPtrCurveEL18MemLabelIdentifier30ELi16EE10deallocateEPS1_m
1294:__ZNK13stl_allocatorIN13AnimationClip9PPtrCurveEL18MemLabelIdentifier30ELi16EE12get_root_refEv
1295:__Z14CreateMemLabel18MemLabelIdentifier22AllocationRootWithSalt
1296:__ZN13stl_allocatorIN13AnimationClip9PPtrCurveEL18MemLabelIdentifier30ELi16EE8allocateEmPKv
1297:__ZNK13stl_allocatorIN13AnimationClip9PPtrCurveEL18MemLabelIdentifier30ELi16EE8max_sizeEv
1298:__ZN13AnimationClip9PPtrCurveC2ERKS0_
1299:__ZN4core12basic_stringIcNS_20StringStorageDefaultIcEEEC2ERKS3_
1300:__ZN13dynamic_arrayI12PPtrKeyframeLm0EEC2ERKS1_
1301:__ZN20dynamic_array_detail18dynamic_array_dataC2E10MemLabelId
1302:__ZN4core12basic_stringIcNS_20StringStorageDefaultIcEEEC2Ev
1303:__ZN4PPtrI10MonoScriptEC2Ev
1304:__ZN4core20StringStorageDefaultIcEC2ERK10MemLabelId
1305:__ZN13AnimationClip10FloatCurveC2Ev
1306:__ZN13stl_allocatorIN13AnimationClip10FloatCurveEL18MemLabelIdentifier30ELi16EE9constructEPS1_RKS1_
1307:__ZNSt3__26vectorIN13AnimationClip10FloatCurveE13stl_allocatorIS2_L18MemLabelIdentifier30ELi16EEE21__push_back_slow_pathIS2_EEvOT_
1308:__ZN13AnimationClip10FloatCurveD2Ev
1309:__ZN17AnimationCurveTplIfEaSERKS0_
1310:__ZN13dynamic_arrayI11KeyframeTplIfELm0EEaSERKS2_
1311:__ZNK13dynamic_arrayI11KeyframeTplIfELm0EE3endEv
1312:__ZN13dynamic_arrayI11KeyframeTplIfELm0EE6assignEPKS1_S4_
1313:__ZN13dynamic_arrayI11KeyframeTplIfELm0EE21resize_buffer_nocheckEm12ResizePolicy
1314:__Z30copy_construct_array_autolabelI11KeyframeTplIfEEvPT_mPKS2_RK10MemLabelId
1315:__ZN17AnimationCurveTplIfED2Ev
1316:__ZNSt3__214__split_bufferIN13AnimationClip10FloatCurveER13stl_allocatorIS2_L18MemLabelIdentifier30ELi16EEEC2EmmS6_
1317:__ZNSt3__26vectorIN13AnimationClip10FloatCurveE13stl_allocatorIS2_L18MemLabelIdentifier30ELi16EEE26__swap_out_circular_bufferERNS_14__split_bufferIS2_RS5_EE
1318:__ZNSt3__214__split_bufferIN13AnimationClip10FloatCurveER13stl_allocatorIS2_L18MemLabelIdentifier30ELi16EEED2Ev
1319:__ZN13stl_allocatorIN13AnimationClip10FloatCurveEL18MemLabelIdentifier30ELi16EE7destroyEPS1_
1320:__ZN13stl_allocatorIN13AnimationClip10FloatCurveEL18MemLabelIdentifier30ELi16EE8allocateEmPKv
1321:__ZN13AnimationClip10FloatCurveC2ERKS0_
1322:__ZN17AnimationCurveTplIfEC2E10MemLabelId
1323:__ZN17AnimationCurveTplIfE5CacheC2Ev
1324:__ZN13AnimationClip12Vector3CurveC2Ev
1325:__ZN13stl_allocatorIN13AnimationClip12Vector3CurveEL18MemLabelIdentifier30ELi16EE9constructEPS1_RKS1_
1326:__ZNSt3__26vectorIN13AnimationClip12Vector3CurveE13stl_allocatorIS2_L18MemLabelIdentifier30ELi16EEE21__push_back_slow_pathIS2_EEvOT_
1327:__ZN13AnimationClip12Vector3CurveD2Ev
1328:__ZN17AnimationCurveTplI8Vector3fEaSERKS1_
1329:__ZN13dynamic_arrayI11KeyframeTplI8Vector3fELm0EEaSERKS3_
1330:__ZNK13dynamic_arrayI11KeyframeTplI8Vector3fELm0EE3endEv
1331:__ZN13dynamic_arrayI11KeyframeTplI8Vector3fELm0EE6assignEPKS2_S5_
1332:__ZN13dynamic_arrayI11KeyframeTplI8Vector3fELm0EE21resize_buffer_nocheckEm12ResizePolicy
1333:__Z30copy_construct_array_autolabelI11KeyframeTplI8Vector3fEEvPT_mPKS3_RK10MemLabelId
1334:__ZN17AnimationCurveTplI8Vector3fED2Ev
1335:__ZNSt3__214__split_bufferIN13AnimationClip12Vector3CurveER13stl_allocatorIS2_L18MemLabelIdentifier30ELi16EEEC2EmmS6_
1336:__ZNSt3__26vectorIN13AnimationClip12Vector3CurveE13stl_allocatorIS2_L18MemLabelIdentifier30ELi16EEE26__swap_out_circular_bufferERNS_14__split_bufferIS2_RS5_EE
1337:__ZNSt3__214__split_bufferIN13AnimationClip12Vector3CurveER13stl_allocatorIS2_L18MemLabelIdentifier30ELi16EEED2Ev
1338:__ZN13stl_allocatorIN13AnimationClip12Vector3CurveEL18MemLabelIdentifier30ELi16EE7destroyEPS1_
1339:__ZN13stl_allocatorIN13AnimationClip12Vector3CurveEL18MemLabelIdentifier30ELi16EE8allocateEmPKv
1340:__ZN13AnimationClip12Vector3CurveC2ERKS0_
1341:__ZN17AnimationCurveTplI8Vector3fEC2ERKS1_
1342:__ZN17AnimationCurveTplI8Vector3fEC2E10MemLabelId
1343:__ZN17AnimationCurveTplI8Vector3fE5CacheC2Ev
1344:__ZN8Vector3fC2Ev
1345:__ZN13AnimationClip15QuaternionCurveC2Ev
1346:__ZN13stl_allocatorIN13AnimationClip15QuaternionCurveEL18MemLabelIdentifier30ELi16EE9constructEPS1_RKS1_
1347:__ZNSt3__26vectorIN13AnimationClip15QuaternionCurveE13stl_allocatorIS2_L18MemLabelIdentifier30ELi16EEE21__push_back_slow_pathIS2_EEvOT_
1348:__ZN13AnimationClip15QuaternionCurveD2Ev
1349:__ZN17AnimationCurveTplI11QuaternionfEaSERKS1_
1350:__ZN13dynamic_arrayI11KeyframeTplI11QuaternionfELm0EEaSERKS3_
1351:__ZNK13dynamic_arrayI11KeyframeTplI11QuaternionfELm0EE3endEv
1352:__ZN13dynamic_arrayI11KeyframeTplI11QuaternionfELm0EE6assignEPKS2_S5_
1353:__ZN13dynamic_arrayI11KeyframeTplI11QuaternionfELm0EE21resize_buffer_nocheckEm12ResizePolicy
1354:__Z30copy_construct_array_autolabelI11KeyframeTplI11QuaternionfEEvPT_mPKS3_RK10MemLabelId
1355:__ZN17AnimationCurveTplI11QuaternionfED2Ev
1356:__ZNSt3__214__split_bufferIN13AnimationClip15QuaternionCurveER13stl_allocatorIS2_L18MemLabelIdentifier30ELi16EEEC2EmmS6_
1357:__ZNSt3__26vectorIN13AnimationClip15QuaternionCurveE13stl_allocatorIS2_L18MemLabelIdentifier30ELi16EEE26__swap_out_circular_bufferERNS_14__split_bufferIS2_RS5_EE
1358:__ZNSt3__214__split_bufferIN13AnimationClip15QuaternionCurveER13stl_allocatorIS2_L18MemLabelIdentifier30ELi16EEED2Ev
1359:__ZN13stl_allocatorIN13AnimationClip15QuaternionCurveEL18MemLabelIdentifier30ELi16EE7destroyEPS1_
1360:__ZN13stl_allocatorIN13AnimationClip15QuaternionCurveEL18MemLabelIdentifier30ELi16EE8allocateEmPKv
1361:__ZN13AnimationClip15QuaternionCurveC2ERKS0_
1362:__ZN17AnimationCurveTplI11QuaternionfEC2ERKS1_
1363:__ZN13dynamic_arrayI11KeyframeTplI11QuaternionfELm0EEC2ERKS3_
1364:__ZN17AnimationCurveTplI11QuaternionfEC2E10MemLabelId
1365:__ZN17AnimationCurveTplI11QuaternionfE5CacheC2Ev
1366:__ZN13AnimationClip18GenerateMuscleClipEv
1367:__ZN10ProfilerIDC2EPK6Object
1368:__ZN13AnimationClip16ClearCachedRangeEv
1369:__ZN13AnimationClip8GetRangeEv
1370:__ZNK13AnimationClip18HasAnimationEventsEv
1371:__ZN13AnimationClip13GetSampleRateEv
1372:__ZN13stl_allocatorIP17AnimationCurveTplI8Vector3fEL18MemLabelIdentifier1ELi16EEC2Ev
1373:__Z6TypeOfI8AnimatorEPKN5Unity4TypeEv
1374:__ZNK4core12basic_stringIcNS_20StringStorageDefaultIcEEE5c_strEv
1375:__ZL12ComputeCRC32PKc
1376:__ZN7mecanim9animation15FindMuscleIndexEj
1377:__ZN13stl_allocatorIP17AnimationCurveTplI8Vector3fEL18MemLabelIdentifier1ELi16EE9constructEPS3_RKS3_
1378:__ZNSt3__26vectorIP17AnimationCurveTplI8Vector3fE13stl_allocatorIS4_L18MemLabelIdentifier1ELi16EEE21__push_back_slow_pathIS4_EEvOT_
1379:__ZN4coreeqERKNS_12basic_stringIcNS_20StringStorageDefaultIcEEEEPKc
1380:__Z29AddPositionCurveToClipBuilderR17AnimationCurveTplI8Vector3fERKN4core12basic_stringIcNS3_20StringStorageDefaultIcEEEER18MecanimClipBuilderb
1381:__Z29AddRotationCurveToClipBuilderR17AnimationCurveTplI11QuaternionfERKN4core12basic_stringIcNS3_20StringStorageDefaultIcEEEER18MecanimClipBuilderb
1382:__Z26AddEulerCurveToClipBuilderR17AnimationCurveTplI8Vector3fERKN4core12basic_stringIcNS3_20StringStorageDefaultIcEEEER18MecanimClipBuilderb
1383:__Z26AddScaleCurveToClipBuilderR17AnimationCurveTplI8Vector3fERKN4core12basic_stringIcNS3_20StringStorageDefaultIcEEEER18MecanimClipBuilderb
1384:__ZNK4core12basic_stringIcNS_20StringStorageDefaultIcEEE5emptyEv
1385:__ZN4coreplEPKcRKNS_12basic_stringIcNS_20StringStorageDefaultIcEEEE
1386:__ZN4coreplERKNS_12basic_stringIcNS_20StringStorageDefaultIcEEEEPKc
1387:__Z17GetInstanceIDFromPK6Object
1388:__Z17DebugStringToFileIN4core12basic_stringIcNS0_20StringStorageDefaultIcEEEEEvRKT_PKcii15LogMessageFlagsiiPFvRK11CppLogEntryE
1389:__ZN11UnityEngine9Animation14GenericBindingC2Ev
1390:__ZNK11UnityEngine9Animation28GenericAnimationBindingCache20CreateGenericBindingERKN4core12basic_stringIcNS2_20StringStorageDefaultIcEEEEPKN5Unity4TypeE4PPtrI10MonoScriptES8_bRNS0_14GenericBindingE
1391:__Z28AddGenericCurveToClipBuilderR17AnimationCurveTplIfERKN11UnityEngine9Animation14GenericBindingER18MecanimClipBuilderb
1392:__Z25AddPPtrCurveToClipBuilderR13dynamic_arrayI12PPtrKeyframeLm0EERKN11UnityEngine9Animation14GenericBindingER18MecanimClipBuilder
1393:__Z18PrepareClipBuilderR18MecanimClipBuilder
1394:__Z15BuildMuscleClipRK18MecanimClipBuilderRK21AnimationClipSettingsbRN11UnityEngine9Animation28AnimationClipBindingConstantER20RuntimeBaseAllocator
1395:__ZN9BlobWrite12TransferBaseIN7mecanim9animation18ClipMuscleConstantEEEvRT_17TransferMetaFlags
1396:__Z23PatchMuscleClipWithInfoP13AnimationClipRK21AnimationClipSettingsbPN7mecanim9animation18ClipMuscleConstantER20RuntimeBaseAllocator
1397:__ZN9BlobWriteD2Ev
1398:__ZN20RuntimeBaseAllocator9ConstructIN7mecanim9animation18ClipMuscleConstantEEEPT_m
1399:__Z15delete_internalI17AnimationCurveTplI8Vector3fEEvPT_RK10MemLabelIdPKci
1400:__Z15delete_internalI17AnimationCurveTplI11QuaternionfEEvPT_RK10MemLabelIdPKci
1401:__Z15delete_internalI17AnimationCurveTplIfEEvPT_RK10MemLabelIdPKci
1402:__ZNSt3__26vectorIP17AnimationCurveTplIfE13stl_allocatorIS3_L18MemLabelIdentifier1ELi16EEED2Ev
1403:__ZN18MecanimClipBuilderD2Ev
1404:__ZN18ProfilerAutoHelperD2Ev
1405:__ZN18MecanimClipBuilder6CurvesD2Ev
1406:__ZN13dynamic_arrayIPS_I12PPtrKeyframeLm0EELm0EED2Ev
1407:__ZN13dynamic_arrayIP17AnimationCurveTplI11QuaternionfELm0EE9owns_dataEv
1408:__ZN13dynamic_arrayIP17AnimationCurveTplI11QuaternionfELm0EE10deallocateEv
1409:__ZN20dynamic_array_detail18dynamic_array_data9owns_dataEv
1410:__ZNSt3__213__vector_baseIP17AnimationCurveTplI8Vector3fE13stl_allocatorIS4_L18MemLabelIdentifier1ELi16EEED2Ev
1411:__ZN13stl_allocatorIP17AnimationCurveTplI8Vector3fEL18MemLabelIdentifier1ELi16EE10deallocateEPS3_m
1412:__ZNSt3__217__compressed_pairIPP17AnimationCurveTplI8Vector3fE13stl_allocatorIS4_L18MemLabelIdentifier1ELi16EEED2Ev
1413:__ZNSt3__222__compressed_pair_elemI13stl_allocatorIP17AnimationCurveTplI8Vector3fEL18MemLabelIdentifier1ELi16EELi1ELb0EED2Ev
1414:__ZN7mecanim9animation18ClipMuscleConstantC2Ev
1415:__ZN7mecanim9animation25InitClipMuscleDeltaValuesERNS0_18ClipMuscleConstantEb
1416:__ZN7mecanim9animation26InitClipMuscleAverageSpeedERNS0_18ClipMuscleConstantEi
1417:__ZNK4PPtrI13AnimationClipE6IsNullEv
1418:__ZN7mecanim6memory13HeapAllocatorC2E10MemLabelId
1419:__ZN13dynamic_arrayIP13AnimationClipLm0EE9push_backERKS1_
1420:__ZN13dynamic_arrayIP13AnimationClipLm0EE9push_backI4PPtrIS0_EEEvRKT_
1421:__Z26InitClipMuscleAdditivePoseRN7mecanim9animation18ClipMuscleConstantES2_PN11UnityEngine9Animation20AnimationSetBindingsEfR20RuntimeBaseAllocator
1422:__ZN9OffsetPtrIN7mecanim9animation4ClipEE3GetEv
1423:__ZN7mecanim9animation16CreateClipMemoryEPKNS0_4ClipER20RuntimeBaseAllocator
1424:__ZN20RuntimeBaseAllocator14ConstructArrayIfEEPT_mRKS1_m
1425:__ZN9OffsetPtrIfEaSEPf
1426:__ZN9OffsetPtrIfEixEm
1427:__ZN9OffsetPtrIfE5ResetEPf
1428:__ZNSt3__218uninitialized_fillIPffEEvT_S2_RKT0_
1429:__ZNK9OffsetPtrIN7mecanim9animation4ClipEE6IsNullEv
1430:__ZN13dynamic_arrayIP13AnimationClipLm0EE12emplace_backIJRK4PPtrIS0_EEEERS1_DpOT_
1431:__Z23arg_construct_autolabelIP13AnimationClipJRK4PPtrIS0_EEEvPT_RK10MemLabelIdDpOT0_
1432:__ZN15AllocatorTraitsIP13AnimationClipLb0EE9ConstructIJRK4PPtrIS0_EEEEvPS1_RK10MemLabelIdDpOT_
1433:__ZnwmPv20non_null_placement_t
1434:__ZN13dynamic_arrayIP13AnimationClipLm0EE12emplace_backIJRKS1_EEERS1_DpOT_
1435:__Z23arg_construct_autolabelIP13AnimationClipJRKS1_EEvPT_RK10MemLabelIdDpOT0_
1436:__ZN15AllocatorTraitsIP13AnimationClipLb0EE9ConstructEPS1_RK10MemLabelIdRKS1_
1437:__ZN20RuntimeBaseAllocatorC2Ev
1438:__ZN9BlobWrite8TransferIN7mecanim9animation18ClipMuscleConstantEEEvRT_PKc17TransferMetaFlags
1439:__ZNK9BlobWrite17Use64BitOffsetPtrEv
1440:__ZN8BlobSize13CalculateSizeIN7mecanim9animation18ClipMuscleConstantEEEmRT_bb
1441:__ZN13dynamic_arrayIN9BlobWrite11TypeContextELm0EE4backEv
1442:__ZN9BlobWrite12AlignAddressEmm
1443:__ZN15SerializeTraitsIN7mecanim9animation18ClipMuscleConstantEE8TransferI9BlobWriteEEvRS2_RT_
1444:__ZN13dynamic_arrayIN9BlobWrite11TypeContextELm0EE8pop_backEv
1445:__ZN7mecanim9animation18ClipMuscleConstant8TransferI9BlobWriteEEvRT_
1446:__ZN9BlobWrite8TransferIN7mecanim5human9HumanPoseEEEvRT_PKc17TransferMetaFlags
1447:__ZN9BlobWrite8TransferIN4math4trsXEEEvRT_PKc17TransferMetaFlags
1448:__ZN9BlobWrite8TransferIKN4math7_float3EEEvRT_PKc17TransferMetaFlags
1449:__ZN9BlobWrite8TransferI9OffsetPtrIN7mecanim9animation4ClipEEEEvRT_PKc17TransferMetaFlags
1450:__ZN9BlobWrite8TransferIfEEvRT_PKc17TransferMetaFlags
1451:__Z13TransferArrayILi200Ei9BlobWriteEmRAT__T0_PKcRT1_
1452:__Z17TransferOffsetPtrI9OffsetPtrIN7mecanim9animation10ValueDeltaEE9BlobWriteEvRT_PKcRjRT0_
1453:__Z17TransferOffsetPtrI9OffsetPtrIfE9BlobWriteEvRT_PKcRjRT0_
1454:__ZN9BlobWrite8TransferIbEEvRT_PKc17TransferMetaFlags
1455:__ZN12TransferBase23IsVersionSmallerOrEqualEi
1456:__ZN7mecanim9animation18ClipMuscleConstant30TransferBackwardsCompatibilityI9BlobWriteEEvRT_
1457:__ZN12TransferBase9IsReadingEv
1458:__ZN19SerializeTraitsBaseIbE10GetAlignOfEv
1459:__ZN8BlobSize13CalculateSizeIbEEmRT_bb
1460:__ZN15SerializeTraitsIbE8TransferI9BlobWriteEEvRbRT_
1461:__ZN9BlobWrite17TransferBasicDataIhEEvRT_
1462:__ZN9BlobWrite16GetActiveBlobPtrEv
1463:__ZNK9BlobWrite15GetActiveOffsetEv
1464:__ZN13dynamic_arrayIhLm16EEixEm
1465:__ZN8BlobSizeC2Ebb
1466:__ZN8BlobSize12TransferBaseIbEEvRT_17TransferMetaFlags
1467:__ZN8BlobSize8TransferIbEEvRT_PKc17TransferMetaFlags
1468:__ZN15SerializeTraitsIbE8TransferI8BlobSizeEEvRbRT_
1469:__ZN8BlobSize17TransferBasicDataIhEEvRT_
1470:__ZN12TransferBaseC2Ev
1471:__ZN12TransferBase11GetUserDataEv
1472:__ZN22OffsetPtrArrayTransferIfEC2ER9OffsetPtrIfERjPv
1473:__ZN9BlobWrite8TransferI22OffsetPtrArrayTransferIfEEEvRT_PKc17TransferMetaFlags
1474:__ZN34BlobWriteTransferSTLStyleArrayImplI22OffsetPtrArrayTransferIfEEclERS1_17TransferMetaFlagsR9BlobWrite
1475:__ZN9BlobWrite8TransferI22OffsetPtrArrayTransferIN7mecanim9animation10ValueDeltaEEEEvRT_PKc17TransferMetaFlags
1476:__ZN8BlobSize13CalculateSizeI22OffsetPtrArrayTransferIN7mecanim9animation10ValueDeltaEEEEmRT_bb
1477:__ZN15SerializeTraitsI22OffsetPtrArrayTransferIN7mecanim9animation10ValueDeltaEEE8TransferI9BlobWriteEEvRS4_RT_
1478:__ZN9BlobWrite9IsWritingEv
1479:__ZN9BlobWrite11TransferPtrIN7mecanim9animation10ValueDeltaEEEvbP14ReduceCopyData
1480:__ZN9BlobWrite21TransferSTLStyleArrayI22OffsetPtrArrayTransferIN7mecanim9animation10ValueDeltaEEEEvRT_17TransferMetaFlags
1481:__ZN9BlobWrite10ReduceCopyIN7mecanim9animation10ValueDeltaEEEvRK14ReduceCopyData
1482:__ZN34BlobWriteTransferSTLStyleArrayImplI22OffsetPtrArrayTransferIN7mecanim9animation10ValueDeltaEEEclERS4_17TransferMetaFlagsR9BlobWrite
1483:__ZN22OffsetPtrArrayTransferIN7mecanim9animation10ValueDeltaEE4sizeEv
1484:__ZN22OffsetPtrArrayTransferIN7mecanim9animation10ValueDeltaEE5beginEv
1485:__ZN8BlobSize13CalculateSizeIN7mecanim9animation10ValueDeltaEEEmRT_bb
1486:__ZN22OffsetPtrArrayTransferIN7mecanim9animation10ValueDeltaEE3endEv
1487:__ZN9BlobWrite8TransferIN7mecanim9animation10ValueDeltaEEEvRT_PKc17TransferMetaFlags
1488:__ZN15SerializeTraitsIN7mecanim9animation10ValueDeltaEE8TransferI9BlobWriteEEvRS2_RT_
1489:__ZN7mecanim9animation10ValueDelta8TransferI9BlobWriteEEvRT_
1490:__ZN9OffsetPtrIN7mecanim9animation10ValueDeltaEE10Get_UnsafeEv
1491:__ZN8BlobSize12TransferBaseIN7mecanim9animation10ValueDeltaEEEvRT_17TransferMetaFlags
1492:__ZN8BlobSize8TransferIN7mecanim9animation10ValueDeltaEEEvRT_PKc17TransferMetaFlags
1493:__ZN15SerializeTraitsIN7mecanim9animation10ValueDeltaEE8TransferI8BlobSizeEEvRS2_RT_
1494:__ZN7mecanim9animation10ValueDelta8TransferI8BlobSizeEEvRT_
1495:__ZN8BlobSize8TransferIfEEvRT_PKc17TransferMetaFlags
1496:__ZN31SerializeTraitsBaseForBasicTypeIfE8TransferI8BlobSizeEEvRfRT_
1497:__ZN8BlobSize17TransferBasicDataIfEEvRT_
1498:__ZN8BlobSize12TransferBaseI22OffsetPtrArrayTransferIN7mecanim9animation10ValueDeltaEEEEvRT_17TransferMetaFlags
1499:__ZN8BlobSize8TransferI22OffsetPtrArrayTransferIN7mecanim9animation10ValueDeltaEEEEvRT_PKc17TransferMetaFlags
1500:__ZN15SerializeTraitsI22OffsetPtrArrayTransferIN7mecanim9animation10ValueDeltaEEE8TransferI8BlobSizeEEvRS4_RT_
1501:__ZN8BlobSize11TransferPtrIN7mecanim9animation10ValueDeltaEEEvbP14ReduceCopyData
1502:__ZN8BlobSize21TransferSTLStyleArrayI22OffsetPtrArrayTransferIN7mecanim9animation10ValueDeltaEEEEvRT_17TransferMetaFlags
1503:__ZN33BlobSizeTransferSTLStyleArrayImplI22OffsetPtrArrayTransferIN7mecanim9animation10ValueDeltaEEEclERS4_17TransferMetaFlagsR8BlobSize
1504:__ZN8BlobSize13CalculateSizeIjEEmRT_bb
1505:__ZN31SerializeTraitsBaseForBasicTypeIjE8TransferI9BlobWriteEEvRjRT_
1506:__ZN9BlobWrite17TransferBasicDataIjEEvRT_
1507:__ZN8BlobSize12TransferBaseIjEEvRT_17TransferMetaFlags
1508:__ZN19StaticArrayTransferIiLi200EEC2ERA200_i
1509:__ZN9BlobWrite8TransferI19StaticArrayTransferIiLi200EEEEvRT_PKc17TransferMetaFlags
1510:__ZN8BlobSize13CalculateSizeI19StaticArrayTransferIiLi200EEEEmRT_bb
1511:__ZN15SerializeTraitsI19StaticArrayTransferIiLi200EEE8TransferI9BlobWriteEEvRS1_RT_
1512:__ZN9BlobWrite21TransferSTLStyleArrayI19StaticArrayTransferIiLi200EEEEvRT_17TransferMetaFlags
1513:__ZN34BlobWriteTransferSTLStyleArrayImplI19StaticArrayTransferIiLi200EEEclERS1_17TransferMetaFlagsR9BlobWrite
1514:__ZN19StaticArrayTransferIiLi200EE3endEv
1515:__ZN8BlobSize12TransferBaseI19StaticArrayTransferIiLi200EEEEvRT_17TransferMetaFlags
1516:__ZN8BlobSize8TransferI19StaticArrayTransferIiLi200EEEEvRT_PKc17TransferMetaFlags
1517:__ZN15SerializeTraitsI19StaticArrayTransferIiLi200EEE8TransferI8BlobSizeEEvRS1_RT_
1518:__ZN8BlobSize21TransferSTLStyleArrayI19StaticArrayTransferIiLi200EEEEvRT_17TransferMetaFlags
1519:__ZN33BlobSizeTransferSTLStyleArrayImplI19StaticArrayTransferIiLi200EEEclERS1_17TransferMetaFlagsR8BlobSize
1520:__ZN8BlobSize13CalculateSizeI9OffsetPtrIN7mecanim9animation4ClipEEEEmRT_bb
1521:__ZN15SerializeTraitsI9OffsetPtrIN7mecanim9animation4ClipEEE8TransferI9BlobWriteEEvRS4_RT_
1522:__ZN9OffsetPtrIN7mecanim9animation4ClipEEdeEv
1523:__ZN9BlobWrite8TransferIN7mecanim9animation4ClipEEEvRT_PKc17TransferMetaFlags
1524:__ZN8BlobSize13CalculateSizeIN7mecanim9animation4ClipEEEmRT_bb
1525:__ZN15SerializeTraitsIN7mecanim9animation4ClipEE8TransferI9BlobWriteEEvRS2_RT_
1526:__ZN7mecanim9animation4Clip8TransferI9BlobWriteEEvRT_
1527:__ZN9BlobWrite8TransferIN7mecanim9animation12StreamedClipEEEvRT_PKc17TransferMetaFlags
1528:__ZN9BlobWrite8TransferIN7mecanim9animation9DenseClipEEEvRT_PKc17TransferMetaFlags
1529:__ZN9BlobWrite8TransferIN7mecanim9animation12ConstantClipEEEvRT_PKc17TransferMetaFlags
1530:__ZN8BlobSize13CalculateSizeIN7mecanim9animation12ConstantClipEEEmRT_bb
1531:__ZN15SerializeTraitsIN7mecanim9animation12ConstantClipEE8TransferI9BlobWriteEEvRS2_RT_
1532:__ZN7mecanim9animation12ConstantClip8TransferI9BlobWriteEEvRT_
1533:__ZN8BlobSize12TransferBaseIN7mecanim9animation12ConstantClipEEEvRT_17TransferMetaFlags
1534:__ZN8BlobSize8TransferIN7mecanim9animation12ConstantClipEEEvRT_PKc17TransferMetaFlags
1535:__ZN15SerializeTraitsIN7mecanim9animation12ConstantClipEE8TransferI8BlobSizeEEvRS2_RT_
1536:__ZN7mecanim9animation12ConstantClip8TransferI8BlobSizeEEvRT_
1537:__Z17TransferOffsetPtrI9OffsetPtrIfE8BlobSizeEvRT_PKcRjRT0_
1538:__ZN8BlobSize13CalculateSizeIN7mecanim9animation9DenseClipEEEmRT_bb
1539:__ZN15SerializeTraitsIN7mecanim9animation9DenseClipEE8TransferI9BlobWriteEEvRS2_RT_
1540:__ZN7mecanim9animation9DenseClip8TransferI9BlobWriteEEvRT_
1541:__ZN8BlobSize12TransferBaseIN7mecanim9animation9DenseClipEEEvRT_17TransferMetaFlags
1542:__ZN8BlobSize8TransferIN7mecanim9animation9DenseClipEEEvRT_PKc17TransferMetaFlags
1543:__ZN15SerializeTraitsIN7mecanim9animation9DenseClipEE8TransferI8BlobSizeEEvRS2_RT_
1544:__ZN7mecanim9animation9DenseClip8TransferI8BlobSizeEEvRT_
1545:__ZN8BlobSize13CalculateSizeIN7mecanim9animation12StreamedClipEEEmRT_bb
1546:__ZN15SerializeTraitsIN7mecanim9animation12StreamedClipEE8TransferI9BlobWriteEEvRS2_RT_
1547:__ZN7mecanim9animation12StreamedClip8TransferI9BlobWriteEEvRT_
1548:__ZN8BlobSize12TransferBaseIN7mecanim9animation12StreamedClipEEEvRT_17TransferMetaFlags
1549:__ZN8BlobSize8TransferIN7mecanim9animation12StreamedClipEEEvRT_PKc17TransferMetaFlags
1550:__ZN15SerializeTraitsIN7mecanim9animation12StreamedClipEE8TransferI8BlobSizeEEvRS2_RT_
1551:__ZN7mecanim9animation12StreamedClip8TransferI8BlobSizeEEvRT_
1552:__ZN8BlobSize12TransferBaseIN7mecanim9animation4ClipEEEvRT_17TransferMetaFlags
1553:__ZN8BlobSize8TransferIN7mecanim9animation4ClipEEEvRT_PKc17TransferMetaFlags
1554:__ZN15SerializeTraitsIN7mecanim9animation4ClipEE8TransferI8BlobSizeEEvRS2_RT_
1555:__ZN7mecanim9animation4Clip8TransferI8BlobSizeEEvRT_
1556:__ZN8BlobSize12TransferBaseI9OffsetPtrIN7mecanim9animation4ClipEEEEvRT_17TransferMetaFlags
1557:__ZN8BlobSize8TransferI9OffsetPtrIN7mecanim9animation4ClipEEEEvRT_PKc17TransferMetaFlags
1558:__ZN15SerializeTraitsI9OffsetPtrIN7mecanim9animation4ClipEEE8TransferI8BlobSizeEEvRS4_RT_
1559:__ZN20RuntimeBaseAllocator9ConstructIN7mecanim9animation4ClipEEEPT_m
1560:__ZN7mecanim9animation4ClipC2Ev
1561:__ZN7mecanim9animation12StreamedClipC2Ev
1562:__ZN7mecanim9animation9DenseClipC2Ev
1563:__ZN7mecanim9animation12ConstantClipC2Ev
1564:__ZN8BlobSize13CalculateSizeIKN4math7_float3EEEmRT_bb
1565:__ZN15SerializeTraitsIKN4math7_float3EE8TransferI9BlobWriteEEvRS2_RT_
1566:__ZN8BlobSize12TransferBaseIKN4math7_float3EEEvRT_17TransferMetaFlags
1567:__ZN8BlobSize8TransferIKN4math7_float3EEEvRT_PKc17TransferMetaFlags
1568:__ZN15SerializeTraitsIKN4math7_float3EE8TransferI8BlobSizeEEvRS2_RT_
1569:__ZN8BlobSize13CalculateSizeIN4math4trsXEEEmRT_bb
1570:__ZN15SerializeTraitsIN4math4trsXEE8TransferI9BlobWriteEEvRS1_RT_
1571:__ZN15SerializeTraitsIKN4math7_float4EE8TransferI9BlobWriteEEvRS2_RT_
1572:__ZN8BlobSize12TransferBaseIN4math4trsXEEEvRT_17TransferMetaFlags
1573:__ZN8BlobSize8TransferIN4math4trsXEEEvRT_PKc17TransferMetaFlags
1574:__ZN15SerializeTraitsIN4math4trsXEE8TransferI8BlobSizeEEvRS1_RT_
1575:__ZN8BlobSize13CalculateSizeIN7mecanim5human9HumanPoseEEEmRT_bb
1576:__ZN15SerializeTraitsIN7mecanim5human9HumanPoseEE8TransferI9BlobWriteEEvRS2_RT_
1577:__ZN7mecanim5human9HumanPose8TransferI9BlobWriteEEvRT_
1578:__ZN9BlobWrite8TransferIKN4math7_float4EEEvRT_PKc17TransferMetaFlags
1579:__Z13TransferArrayILi4EN7mecanim5human9HumanGoalE9BlobWriteEmRAT__T0_PKcRT1_
1580:__ZN9BlobWrite8TransferIN7mecanim4hand8HandPoseEEEvRT_PKc17TransferMetaFlags
1581:__Z13TransferArrayILi55Ef9BlobWriteEmRAT__T0_PKcRT1_
1582:__Z13TransferArrayILi21EKN4math7_float3E9BlobWriteEmRAT__T0_PKcRT1_
1583:__ZN7mecanim5human9HumanPose30TransferBackwardsCompatibilityI9BlobWriteEEvRT_m
1584:__ZN19StaticArrayTransferIKN4math7_float3ELi21EEC2ERA21_S2_
1585:__ZN9BlobWrite8TransferI19StaticArrayTransferIKN4math7_float3ELi21EEEEvRT_PKc17TransferMetaFlags
1586:__ZN8BlobSize13CalculateSizeI19StaticArrayTransferIKN4math7_float3ELi21EEEEmRT_bb
1587:__ZN15SerializeTraitsI19StaticArrayTransferIKN4math7_float3ELi21EEE8TransferI9BlobWriteEEvRS4_RT_
1588:__ZN9BlobWrite21TransferSTLStyleArrayI19StaticArrayTransferIKN4math7_float3ELi21EEEEvRT_17TransferMetaFlags
1589:__ZN34BlobWriteTransferSTLStyleArrayImplI19StaticArrayTransferIKN4math7_float3ELi21EEEclERS4_17TransferMetaFlagsR9BlobWrite
1590:__ZN19StaticArrayTransferIKN4math7_float3ELi21EE3endEv
1591:__ZN19StaticArrayTransferIKN4math7_float3ELi21EE5beginEv
1592:__ZN8BlobSize12TransferBaseI19StaticArrayTransferIKN4math7_float3ELi21EEEEvRT_17TransferMetaFlags
1593:__ZN8BlobSize8TransferI19StaticArrayTransferIKN4math7_float3ELi21EEEEvRT_PKc17TransferMetaFlags
1594:__ZN15SerializeTraitsI19StaticArrayTransferIKN4math7_float3ELi21EEE8TransferI8BlobSizeEEvRS4_RT_
1595:__ZN8BlobSize21TransferSTLStyleArrayI19StaticArrayTransferIKN4math7_float3ELi21EEEEvRT_17TransferMetaFlags
1596:__ZN33BlobSizeTransferSTLStyleArrayImplI19StaticArrayTransferIKN4math7_float3ELi21EEEclERS4_17TransferMetaFlagsR8BlobSize
1597:__ZN19StaticArrayTransferIfLi55EEC2ERA55_f
1598:__ZN8BlobSize13CalculateSizeIN7mecanim4hand8HandPoseEEEmRT_bb
1599:__ZN15SerializeTraitsIN7mecanim4hand8HandPoseEE8TransferI9BlobWriteEEvRS2_RT_
1600:__ZN7mecanim4hand8HandPose8TransferI9BlobWriteEEvRT_
1601:__Z13TransferArrayILi20Ef9BlobWriteEmRAT__T0_PKcRT1_
1602:__ZN19StaticArrayTransferIfLi20EEC2ERA20_f
1603:__ZN8BlobSize12TransferBaseIN7mecanim4hand8HandPoseEEEvRT_17TransferMetaFlags
1604:__ZN8BlobSize8TransferIN7mecanim4hand8HandPoseEEEvRT_PKc17TransferMetaFlags
1605:__ZN15SerializeTraitsIN7mecanim4hand8HandPoseEE8TransferI8BlobSizeEEvRS2_RT_
1606:__ZN7mecanim4hand8HandPose8TransferI8BlobSizeEEvRT_
1607:__Z13TransferArrayILi20Ef8BlobSizeEmRAT__T0_PKcRT1_
1608:__ZN19StaticArrayTransferIN7mecanim5human9HumanGoalELi4EEC2ERA4_S2_
1609:__ZN9BlobWrite8TransferI19StaticArrayTransferIN7mecanim5human9HumanGoalELi4EEEEvRT_PKc17TransferMetaFlags
1610:__ZN8BlobSize13CalculateSizeI19StaticArrayTransferIN7mecanim5human9HumanGoalELi4EEEEmRT_bb
1611:__ZN15SerializeTraitsI19StaticArrayTransferIN7mecanim5human9HumanGoalELi4EEE8TransferI9BlobWriteEEvRS4_RT_
1612:__ZN9BlobWrite21TransferSTLStyleArrayI19StaticArrayTransferIN7mecanim5human9HumanGoalELi4EEEEvRT_17TransferMetaFlags
1613:__ZN34BlobWriteTransferSTLStyleArrayImplI19StaticArrayTransferIN7mecanim5human9HumanGoalELi4EEEclERS4_17TransferMetaFlagsR9BlobWrite
1614:__ZN19StaticArrayTransferIN7mecanim5human9HumanGoalELi4EE3endEv
1615:__ZN9BlobWrite8TransferIN7mecanim5human9HumanGoalEEEvRT_PKc17TransferMetaFlags
1616:__ZN8BlobSize13CalculateSizeIN7mecanim5human9HumanGoalEEEmRT_bb
1617:__ZN15SerializeTraitsIN7mecanim5human9HumanGoalEE8TransferI9BlobWriteEEvRS2_RT_
1618:__ZN7mecanim5human9HumanGoal8TransferI9BlobWriteEEvRT_
1619:__ZN8BlobSize12TransferBaseIN7mecanim5human9HumanGoalEEEvRT_17TransferMetaFlags
1620:__ZN8BlobSize8TransferIN7mecanim5human9HumanGoalEEEvRT_PKc17TransferMetaFlags
1621:__ZN15SerializeTraitsIN7mecanim5human9HumanGoalEE8TransferI8BlobSizeEEvRS2_RT_
1622:__ZN7mecanim5human9HumanGoal8TransferI8BlobSizeEEvRT_
1623:__ZN8BlobSize12TransferBaseI19StaticArrayTransferIN7mecanim5human9HumanGoalELi4EEEEvRT_17TransferMetaFlags
1624:__ZN8BlobSize8TransferI19StaticArrayTransferIN7mecanim5human9HumanGoalELi4EEEEvRT_PKc17TransferMetaFlags
1625:__ZN15SerializeTraitsI19StaticArrayTransferIN7mecanim5human9HumanGoalELi4EEE8TransferI8BlobSizeEEvRS4_RT_
1626:__ZN8BlobSize21TransferSTLStyleArrayI19StaticArrayTransferIN7mecanim5human9HumanGoalELi4EEEEvRT_17TransferMetaFlags
1627:__ZN33BlobSizeTransferSTLStyleArrayImplI19StaticArrayTransferIN7mecanim5human9HumanGoalELi4EEEclERS4_17TransferMetaFlagsR8BlobSize
1628:__ZN8BlobSize13CalculateSizeIKN4math7_float4EEEmRT_bb
1629:__ZN8BlobSize12TransferBaseIKN4math7_float4EEEvRT_17TransferMetaFlags
1630:__ZN8BlobSize8TransferIKN4math7_float4EEEvRT_PKc17TransferMetaFlags
1631:__ZN15SerializeTraitsIKN4math7_float4EE8TransferI8BlobSizeEEvRS2_RT_
1632:__ZN8BlobSize12TransferBaseIN7mecanim5human9HumanPoseEEEvRT_17TransferMetaFlags
1633:__ZN8BlobSize8TransferIN7mecanim5human9HumanPoseEEEvRT_PKc17TransferMetaFlags
1634:__ZN15SerializeTraitsIN7mecanim5human9HumanPoseEE8TransferI8BlobSizeEEvRS2_RT_
1635:__ZN7mecanim5human9HumanPose8TransferI8BlobSizeEEvRT_
1636:__Z13TransferArrayILi4EN7mecanim5human9HumanGoalE8BlobSizeEmRAT__T0_PKcRT1_
1637:__Z13TransferArrayILi55Ef8BlobSizeEmRAT__T0_PKcRT1_
1638:__Z13TransferArrayILi21EKN4math7_float3E8BlobSizeEmRAT__T0_PKcRT1_
1639:__ZN8BlobSize12TransferBaseIN7mecanim9animation18ClipMuscleConstantEEEvRT_17TransferMetaFlags
1640:__ZN8BlobSize8TransferIN7mecanim9animation18ClipMuscleConstantEEEvRT_PKc17TransferMetaFlags
1641:__ZN15SerializeTraitsIN7mecanim9animation18ClipMuscleConstantEE8TransferI8BlobSizeEEvRS2_RT_
1642:__ZN7mecanim9animation18ClipMuscleConstant8TransferI8BlobSizeEEvRT_
1643:__Z13TransferArrayILi200Ei8BlobSizeEmRAT__T0_PKcRT1_
1644:__Z22AddCurveToStreamedClipI8Vector3fEvP19StreamedClipBuilderiRK17AnimationCurveTplIT_E
1645:__Z19AddCurveToDenseClipI8Vector3fEvRN7mecanim9animation9DenseClipEiRK17AnimationCurveTplIT_E
1646:__Z22AddCurveToStreamedClipI11QuaternionfEvP19StreamedClipBuilderiRK17AnimationCurveTplIT_E
1647:__Z19AddCurveToDenseClipI11QuaternionfEvRN7mecanim9animation9DenseClipEiRK17AnimationCurveTplIT_E
1648:__Z22AddCurveToStreamedClipIfEvP19StreamedClipBuilderiRK17AnimationCurveTplIT_E
1649:__Z19AddCurveToDenseClipIfEvRN7mecanim9animation9DenseClipEiRK17AnimationCurveTplIT_E
1650:__ZL32AddMappedPPtrCurveToStreamedClipP19StreamedClipBuilderiRN11UnityEngine9Animation28AnimationClipBindingConstantERK13dynamic_arrayI12PPtrKeyframeLm0EE
1651:__Z24CreateStreamClipConstantP19StreamedClipBuilderRN7mecanim9animation12StreamedClipER20RuntimeBaseAllocator
1652:__Z26DestroyStreamedClipBuilderP19StreamedClipBuilder
1653:__ZN7mecanim9animation24CreateClipMuscleConstantEPNS0_4ClipER20RuntimeBaseAllocator
1654:__ZN7mecanim9animation16CreateClipSimpleEjR20RuntimeBaseAllocator
1655:__Z25CreateStreamedClipBuilderjj
1656:__ZN7mecanim9animation18CreateConstantClipERNS0_12ConstantClipEmR20RuntimeBaseAllocator
1657:__Z15CreateDenseClipRN7mecanim9animation9DenseClipEjfffR20RuntimeBaseAllocator
1658:__ZNSt3__26__sortIRNS_6__lessI13BuildCurveKeyS2_EEPS2_EEvT0_S6_T_
1659:__ZNSt3__27__sort4IRNS_6__lessI13BuildCurveKeyS2_EEPS2_EEjT0_S6_S6_S6_T_
1660:__ZNSt3__27__sort5IRNS_6__lessI13BuildCurveKeyS2_EEPS2_EEjT0_S6_S6_S6_S6_T_
1661:__ZNSt3__218__insertion_sort_3IRNS_6__lessI13BuildCurveKeyS2_EEPS2_EEvT0_S6_T_
1662:__ZNSt3__227__insertion_sort_incompleteIRNS_6__lessI13BuildCurveKeyS2_EEPS2_EEbT0_S6_T_
1663:__Z29AddIntegerCurveToStreamedClipP19StreamedClipBuilderiPfPii
1664:__Z23ConvertCacheToBuildKeysI11QuaternionfEvRN17AnimationCurveTplIT_E5CacheEiP19StreamedClipBuilder
1665:__Z23ConvertCacheToBuildKeysI8Vector3fEvRN17AnimationCurveTplIT_E5CacheEiP19StreamedClipBuilder
1666:__ZN11UnityEngine9Animation20IsDiscreteIntBindingE4PPtrI10MonoScriptERKN4core12basic_stringIcNS4_20StringStorageDefaultIcEEEEPKN5Unity4TypeE
1667:__ZNSt3__214__split_bufferIP17AnimationCurveTplIfER13stl_allocatorIS3_L18MemLabelIdentifier1ELi16EEEC2EmmS7_
1668:__ZNSt3__26vectorIP17AnimationCurveTplIfE13stl_allocatorIS3_L18MemLabelIdentifier1ELi16EEE26__swap_out_circular_bufferERNS_14__split_bufferIS3_RS6_EE
1669:__ZNSt3__214__split_bufferIP17AnimationCurveTplIfER13stl_allocatorIS3_L18MemLabelIdentifier1ELi16EEED2Ev
1670:__ZN13stl_allocatorIP17AnimationCurveTplIfEL18MemLabelIdentifier1ELi16EE8allocateEmPKv
1671:__ZN21DebugStringToFileDataC2Ev
1672:__ZN12StringTraits13AsConstTCharsIcN4core20StringStorageDefaultIcEEEEPKT_RKNS1_12basic_stringIS4_T0_EE
1673:__ZNK4core12basic_stringIcNS_20StringStorageDefaultIcEEE16get_memory_labelEv
1674:__ZN4core12basic_stringIcNS_20StringStorageDefaultIcEEEC2ERK10MemLabelId
1675:__ZNSt3__211char_traitsIcE6lengthEPKc
1676:__ZNK4core12basic_stringIcNS_20StringStorageDefaultIcEEE6lengthEv
1677:__ZN4core12basic_stringIcNS_20StringStorageDefaultIcEEE7reserveEm
1678:__ZN4core12basic_stringIcNS_20StringStorageDefaultIcEEE6assignEPKcm
1679:__ZN4core12basic_stringIcNS_20StringStorageDefaultIcEEE6appendERKS3_
1680:__ZN4core12basic_stringIcNS_20StringStorageDefaultIcEEE6appendEPKcm
1681:__ZN4core20StringStorageDefaultIcE6appendEPKcm
1682:__ZNK4core20StringStorageDefaultIcE4sizeEv
1683:__ZN4core20StringStorageDefaultIcE8get_dataEv
1684:__ZN4core20StringStorageDefaultIcE6resizeEmb
1685:__ZNK4core20StringStorageDefaultIcE8capacityEv
1686:__ZN4core20StringStorageDefaultIcE6assignEPKcm
1687:__ZNK4core20StringStorageDefaultIcE9owns_dataEv
1688:__ZN4core20StringStorageDefaultIcE7reserveEm
1689:__ZNK4core20StringStorageDefaultIcE16get_memory_labelEv
1690:__ZL13ClassifyCurveI8Vector3fE11ClipOptTypeR17AnimationCurveTplIT_Ebf
1691:__ZN11UnityEngine9Animation22CreateTransformBindingERKN4core12basic_stringIcNS1_20StringStorageDefaultIcEEEEiRNS0_14GenericBindingE
1692:__ZNK4core12basic_stringIcNS_20StringStorageDefaultIcEEE7compareEPKc14ComparisonType
1693:__ZN4core23basic_string_operationsIcE7ToLowerEc
1694:__ZN5crc32C2Ev
1695:__ZN5crc3213process_bytesEPKvm
1696:__ZNK5crc328checksumEv
1697:__ZN13stl_allocatorIP17AnimationCurveTplIfEL18MemLabelIdentifier1ELi16EE12set_root_refE22AllocationRootWithSalt
1698:__ZNK13dynamic_arrayI12PPtrKeyframeLm0EE5emptyEv
1699:__Z8IsFiniteRKf
1700:__ZN18MecanimClipBuilderC2Ev
1701:__ZNK14AnimationAsset6NotifyE29AnimationAssetChangeEventType
1702:__ZN13dynamic_arrayIN11UnityEngine9Animation14GenericBindingELm0EE13clear_deallocEv
1703:__ZN20dynamic_array_detail18dynamic_array_data22set_capacity_not_ownedEm
1704:__ZNK22AnimationAssetObserver6NotifyE29AnimationAssetChangeEventType
1705:__ZN13AnimationClip35ClipWasModifiedAndUpdateMuscleRangeEv
1706:__ZN13AnimationClip15ClipWasModifiedEb
1707:__ZN6Motion17NotifyObjectUsersERK17MessageIdentifier
1708:__ZN13AnimationClipC2E10MemLabelId18ObjectCreationMode
1709:__ZN6MotionC2E10MemLabelId18ObjectCreationMode
1710:__ZN7mecanim6memory16ChainedAllocatorC2ERK10MemLabelIdm
1711:__ZN4ListI8ListNodeI14AnimationStateEEC2Ev
1712:__ZN21AnimationClipSettingsC2Ev
1713:__ZN11UnityEngine9Animation28AnimationClipBindingConstantC2Ev
1714:__ZN4AABBC2ERK8Vector3fS2_
1715:__ZN11ListElementC2Ev
1716:__ZN11ListElement13SetAsListRootEv
1717:__ZN13AnimationClipD2Ev
1718:__ZN13AnimationClipD0Ev
1719:__ZN13AnimationClip17MainThreadCleanupEv
1720:__ZN13AnimationClip13AwakeFromLoadE17AwakeFromLoadMode
1721:__ZN13AnimationClip16CheckConsistencyEv
1722:__ZN13AnimationClip5ResetEv
1723:__ZNK13AnimationClip22GetTypeVirtualInternalEv
1724:__ZN13AnimationClip7SetNameEPKc
1725:__ZN13AnimationClip23VirtualRedirectTransferER19StreamedBinaryWrite
1726:__ZN13AnimationClip23VirtualRedirectTransferER18StreamedBinaryRead
1727:__ZN13AnimationClip23VirtualRedirectTransferER17RemapPPtrTransfer
1728:__ZN13AnimationClip23VirtualRedirectTransferER24GenerateTypeTreeTransfer
1729:__ZN13AnimationClip23VirtualRedirectTransferER14SafeBinaryRead
1730:__ZNK13AnimationClip18GetAverageDurationEv
1731:__ZNK13AnimationClip22GetAverageAngularSpeedEv
1732:__ZNK13AnimationClip15GetAverageSpeedEv
1733:__ZNK13AnimationClip16GetApparentSpeedEv
1734:__ZNK13AnimationClip13IsHumanMotionEv
1735:__ZNK13AnimationClip9IsLoopingEv
1736:__ZNK13AnimationClip17GetAnimationClipsEv
1737:__ZNK13AnimationClip8IsLegacyEv
1738:__ZN6Motion21AddSelfToDependenciesER8UserList
1739:__ZN13dynamic_arrayI4PPtrI13AnimationClipELm0EE9push_backIPKS1_EEvRKT_
1740:__ZN13dynamic_arrayI4PPtrI13AnimationClipELm0EE12emplace_backIJRKPKS1_EEERS2_DpOT_
1741:__Z23arg_construct_autolabelI4PPtrI13AnimationClipEJRKPKS1_EEvPT_RK10MemLabelIdDpOT0_
1742:__ZN15AllocatorTraitsI4PPtrI13AnimationClipELb0EE9ConstructIJRKPKS1_EEEvPS2_RK10MemLabelIdDpOT_
1743:__ZN4PPtrI13AnimationClipEC2EPKS0_
1744:__ZN4PPtrI13AnimationClipE12AssignObjectEPK6Object
1745:__Z9MagnitudeRK8Vector3f
1746:__Z3DotRK8Vector3fS1_
1747:__Z8SqrtImplf
1748:__Z16float3ToVector3fRKN4math7_float3E
1749:__ZN8Vector3fC2ERKS_
1750:__ZN8Vector3f6GetPtrEv
1751:__ZN14SafeBinaryRead12TransferBaseI13AnimationClipEEvRT_17TransferMetaFlags
1752:__ZN14SafeBinaryRead8TransferI13AnimationClipEEvRT_PKc17TransferMetaFlags
1753:__ZN15SerializeTraitsI13AnimationClipE13GetTypeStringEPv
1754:__ZN14SafeBinaryRead22TransferWithTypeStringI13AnimationClipEEvRT_PKcS5_17TransferMetaFlags
1755:__ZN15SerializeTraitsI13AnimationClipE8TransferI14SafeBinaryReadEEvRS0_RT_
1756:__ZN13AnimationClip8TransferI14SafeBinaryReadEEvRT_
1757:__ZN14SafeBinaryRead8TransferIbEEvRT_PKc17TransferMetaFlags
1758:__ZN14SafeBinaryRead8TransferINSt3__26vectorIN13AnimationClip15QuaternionCurveE13stl_allocatorIS4_L18MemLabelIdentifier30ELi16EEEEEEvRT_PKc17TransferMetaFlags
1759:__ZN14SafeBinaryRead8TransferINSt3__26vectorI24CompressedAnimationCurve13stl_allocatorIS3_L18MemLabelIdentifier30ELi16EEEEEEvRT_PKc17TransferMetaFlags
1760:__ZNSt3__26vectorI24CompressedAnimationCurve13stl_allocatorIS1_L18MemLabelIdentifier30ELi16EEED2Ev
1761:__Zan24TransferInstructionFlagsS_
1762:__ZN15SerializeTraitsINSt3__26vectorI24CompressedAnimationCurve13stl_allocatorIS2_L18MemLabelIdentifier30ELi16EEEEE16MightContainPPtrEv
1763:__ZN13AnimationClip14CompressCurvesERNSt3__26vectorI24CompressedAnimationCurve13stl_allocatorIS2_L18MemLabelIdentifier30ELi16EEEE
1764:__ZN14SafeBinaryRead19DidReadLastPropertyEv
1765:__ZN13AnimationClip16DecompressCurvesERNSt3__26vectorI24CompressedAnimationCurve13stl_allocatorIS2_L18MemLabelIdentifier30ELi16EEEE
1766:__ZNSt3__26vectorIN13AnimationClip15QuaternionCurveE13stl_allocatorIS2_L18MemLabelIdentifier30ELi16EEED2Ev
1767:__ZN14SafeBinaryRead8TransferINSt3__26vectorIN13AnimationClip12Vector3CurveE13stl_allocatorIS4_L18MemLabelIdentifier30ELi16EEEEEEvRT_PKc17TransferMetaFlags
1768:__ZN14SafeBinaryRead8TransferINSt3__26vectorIN13AnimationClip10FloatCurveE13stl_allocatorIS4_L18MemLabelIdentifier30ELi16EEEEEEvRT_PKc17TransferMetaFlags
1769:__ZN14SafeBinaryRead8TransferINSt3__26vectorIN13AnimationClip9PPtrCurveE13stl_allocatorIS4_L18MemLabelIdentifier30ELi16EEEEEEvRT_PKc17TransferMetaFlags
1770:__ZN14SafeBinaryRead8TransferIfEEvRT_PKc17TransferMetaFlags
1771:__Z32TransferEnumWithNameForceIntSizeI14SafeBinaryRead8WrapModeEvRT_RT0_PKc17TransferMetaFlags
1772:__ZN14SafeBinaryRead8TransferI4AABBEEvRT_PKc17TransferMetaFlags
1773:__ZL51RenameMotionCurvesToRootCurvesBackwardCompatibilityRNSt3__26vectorIN13AnimationClip10FloatCurveE13stl_allocatorIS2_L18MemLabelIdentifier30ELi16EEEE
1774:__ZN14SafeBinaryRead8TransferIiEEvRT_PKc17TransferMetaFlags
1775:__ZN12TransferBase11SetUserDataEPv
1776:__Z21TransferBlobSerializeIN7mecanim9animation18ClipMuscleConstantE14SafeBinaryReadEvRPT_PKcRjS8_RT0_
1777:__ZN14SafeBinaryRead8TransferIN11UnityEngine9Animation28AnimationClipBindingConstantEEEvRT_PKc17TransferMetaFlags
1778:__ZN14SafeBinaryRead8TransferINSt3__26vectorI14AnimationEvent13stl_allocatorIS3_L18MemLabelIdentifier30ELi16EEEEEEvRT_PKc17TransferMetaFlags
1779:__ZN15SerializeTraitsINSt3__26vectorI14AnimationEvent13stl_allocatorIS2_L18MemLabelIdentifier30ELi16EEEEE13GetTypeStringEPv
1780:__ZN14SafeBinaryRead22TransferWithTypeStringINSt3__26vectorI14AnimationEvent13stl_allocatorIS3_L18MemLabelIdentifier30ELi16EEEEEEvRT_PKcSB_17TransferMetaFlags
1781:__ZN15SerializeTraitsINSt3__26vectorI14AnimationEvent13stl_allocatorIS2_L18MemLabelIdentifier30ELi16EEEEE8TransferI14SafeBinaryReadEEvRS6_RT_
1782:__ZN14SafeBinaryRead21TransferSTLStyleArrayINSt3__26vectorI14AnimationEvent13stl_allocatorIS3_L18MemLabelIdentifier30ELi16EEEEEEvRT_17TransferMetaFlags
1783:__ZN15SerializeTraitsINSt3__26vectorI14AnimationEvent13stl_allocatorIS2_L18MemLabelIdentifier30ELi16EEEEE19ResizeSTLStyleArrayERS6_i
1784:__ZN15SerializeTraitsI14AnimationEventE13GetTypeStringEPv
1785:__ZNK16TypeTreeIteratorptEv
1786:__ZN3VFS8FileSizeC2ERKS0_
1787:__ZNK3VFS16FileSizeTemplateIyEplERKy
1788:__ZN3VFS8FileSizeC2ENS_16FileSizeTemplateIyEE
1789:__ZN15SerializeTraitsI14AnimationEventE8TransferI14SafeBinaryReadEEvRS0_RT_
1790:__ZN14SafeBinaryRead8TransferI14AnimationEventEEvRT_PKc17TransferMetaFlags
1791:__ZN14SafeBinaryRead22TransferWithTypeStringI14AnimationEventEEvRT_PKcS5_17TransferMetaFlags
1792:__ZN14AnimationEvent8TransferI14SafeBinaryReadEEvRT_
1793:__ZNK3VFS16FileSizeTemplateIyE4CastIyEET_v
1794:__ZN3VFS16FileSizeTemplateIyEC2ERKy
1795:__ZN14AnimationEvent13GetTypeStringEv
1796:__Z14resize_trimmedINSt3__26vectorI14AnimationEvent13stl_allocatorIS2_L18MemLabelIdentifier30ELi16EEEEEvRT_j
1797:__ZN13stl_allocatorI14AnimationEventL18MemLabelIdentifier30ELi16EEC2ERKS2_
1798:__ZNSt3__26vectorI14AnimationEvent13stl_allocatorIS1_L18MemLabelIdentifier30ELi16EEE7reserveEm
1799:__ZNSt3__26vectorI14AnimationEvent13stl_allocatorIS1_L18MemLabelIdentifier30ELi16EEE6assignINS_11__wrap_iterIPS1_EEEENS_9enable_ifIXaasr21__is_forward_iteratorIT_EE5valuesr16is_constructibleIS1_NS_15iterator_traitsISB_E9referenceEEE5valueEvE4typeESB_SB_
1800:__ZNSt3__26vectorI14AnimationEvent13stl_allocatorIS1_L18MemLabelIdentifier30ELi16EEE6resizeEm
1801:__ZNSt3__26vectorI14AnimationEvent13stl_allocatorIS1_L18MemLabelIdentifier30ELi16EEE4swapERS5_
1802:__ZNSt3__26vectorI14AnimationEvent13stl_allocatorIS1_L18MemLabelIdentifier30ELi16EEED2Ev
1803:__ZNSt3__26vectorI14AnimationEvent13stl_allocatorIS1_L18MemLabelIdentifier30ELi16EEEC2INS_11__wrap_iterIPS1_EEEET_SA_RKS4_PNS_9enable_ifIXaasr21__is_forward_iteratorISA_EE5valuesr16is_constructibleIS1_NS_15iterator_traitsISA_E9referenceEEE5valueEvE4typeE
1804:__ZNSt3__26vectorI14AnimationEvent13stl_allocatorIS1_L18MemLabelIdentifier30ELi16EEE8allocateEm
1805:__ZNSt3__26vectorI14AnimationEvent13stl_allocatorIS1_L18MemLabelIdentifier30ELi16EEE18__construct_at_endINS_11__wrap_iterIPS1_EEEENS_9enable_ifIXsr21__is_forward_iteratorIT_EE5valueEvE4typeESB_SB_m
1806:__ZN13stl_allocatorI14AnimationEventL18MemLabelIdentifier30ELi16EE9constructEPS0_RKS0_
1807:__ZN14AnimationEventC2ERKS_
1808:__ZNSt3__213__vector_baseI14AnimationEvent13stl_allocatorIS1_L18MemLabelIdentifier30ELi16EEED2Ev
1809:__ZN13stl_allocatorI14AnimationEventL18MemLabelIdentifier30ELi16EE7destroyEPS0_
1810:__ZN14AnimationEventD2Ev
1811:__ZNSt3__26vectorI14AnimationEvent13stl_allocatorIS1_L18MemLabelIdentifier30ELi16EEE8__appendEm
1812:__ZN14AnimationEventC2Ev
1813:__ZN14AnimationEventaSERKS_
1814:__ZNSt3__26vectorI14AnimationEvent13stl_allocatorIS1_L18MemLabelIdentifier30ELi16EEE10deallocateEv
1815:__ZNSt3__26vectorI14AnimationEvent13stl_allocatorIS1_L18MemLabelIdentifier30ELi16EEE26__swap_out_circular_bufferERNS_14__split_bufferIS1_RS4_EE
1816:__ZNSt3__214__split_bufferI14AnimationEventR13stl_allocatorIS1_L18MemLabelIdentifier30ELi16EEED2Ev
1817:__ZN15SerializeTraitsIN11UnityEngine9Animation28AnimationClipBindingConstantEE13GetTypeStringEPv
1818:__ZN14SafeBinaryRead22TransferWithTypeStringIN11UnityEngine9Animation28AnimationClipBindingConstantEEEvRT_PKcS7_17TransferMetaFlags
1819:__ZN15SerializeTraitsIN11UnityEngine9Animation28AnimationClipBindingConstantEE8TransferI14SafeBinaryReadEEvRS2_RT_
1820:__ZN11UnityEngine9Animation28AnimationClipBindingConstant8TransferI14SafeBinaryReadEEvRT_
1821:__ZN14SafeBinaryRead8TransferI13dynamic_arrayIN11UnityEngine9Animation14GenericBindingELm0EEEEvRT_PKc17TransferMetaFlags
1822:__ZN14SafeBinaryRead8TransferI13dynamic_arrayI4PPtrI6ObjectELm0EEEEvRT_PKc17TransferMetaFlags
1823:__ZN14SafeBinaryRead22TransferWithTypeStringI13dynamic_arrayI4PPtrI6ObjectELm0EEEEvRT_PKcS9_17TransferMetaFlags
1824:__ZN15SerializeTraitsI13dynamic_arrayI4PPtrI6ObjectELm0EEE8TransferI14SafeBinaryReadEEvRS4_RT_
1825:__ZN14SafeBinaryRead21TransferSTLStyleArrayI13dynamic_arrayI4PPtrI6ObjectELm0EEEEvRT_17TransferMetaFlags
1826:__ZN15SerializeTraitsI13dynamic_arrayI4PPtrI6ObjectELm0EEE19ResizeSTLStyleArrayERS4_i
1827:__ZN13dynamic_arrayI4PPtrI6ObjectELm0EE3endEv
1828:__ZN15SerializeTraitsI4PPtrI6ObjectEE13GetTypeStringEPv
1829:__ZN15SerializeTraitsI4PPtrI6ObjectEE8TransferI14SafeBinaryReadEEvRS2_RT_
1830:__ZN14SafeBinaryRead8TransferI4PPtrI6ObjectEEEvRT_PKc17TransferMetaFlags
1831:__ZN14SafeBinaryRead22TransferWithTypeStringI4PPtrI6ObjectEEEvRT_PKcS7_17TransferMetaFlags
1832:__ZN4PPtrI6ObjectE8TransferI14SafeBinaryReadEEvRT_
1833:__ZN4PPtrI6ObjectE13GetTypeStringEv
1834:__ZN6Object17GetPPtrTypeStringEv
1835:__ZN13dynamic_arrayI4PPtrI6ObjectELm0EE18resize_initializedEm12ResizePolicy
1836:__ZN13dynamic_arrayI4PPtrI6ObjectELm0EE21resize_buffer_nocheckEm12ResizePolicy
1837:__Z29default_construct_n_autolabelI4PPtrI6ObjectEEvPT_mRK10MemLabelId
1838:__Z27default_construct_autolabelI4PPtrI6ObjectEEvPT_RK10MemLabelId
1839:__ZN15AllocatorTraitsI4PPtrI6ObjectELb0EE9ConstructEPS2_RK10MemLabelId
1840:__ZN14SafeBinaryRead22TransferWithTypeStringI13dynamic_arrayIN11UnityEngine9Animation14GenericBindingELm0EEEEvRT_PKcS9_17TransferMetaFlags
1841:__ZN15SerializeTraitsI13dynamic_arrayIN11UnityEngine9Animation14GenericBindingELm0EEE8TransferI14SafeBinaryReadEEvRS4_RT_
1842:__ZN14SafeBinaryRead21TransferSTLStyleArrayI13dynamic_arrayIN11UnityEngine9Animation14GenericBindingELm0EEEEvRT_17TransferMetaFlags
1843:__ZN15SerializeTraitsI13dynamic_arrayIN11UnityEngine9Animation14GenericBindingELm0EEE19ResizeSTLStyleArrayERS4_i
1844:__ZN13dynamic_arrayIN11UnityEngine9Animation14GenericBindingELm0EE3endEv
1845:__ZN15SerializeTraitsIN11UnityEngine9Animation14GenericBindingEE13GetTypeStringEPv
1846:__ZN15SerializeTraitsIN11UnityEngine9Animation14GenericBindingEE8TransferI14SafeBinaryReadEEvRS2_RT_
1847:__ZN14SafeBinaryRead8TransferIN11UnityEngine9Animation14GenericBindingEEEvRT_PKc17TransferMetaFlags
1848:__ZN14SafeBinaryRead22TransferWithTypeStringIN11UnityEngine9Animation14GenericBindingEEEvRT_PKcS7_17TransferMetaFlags
1849:__ZN11UnityEngine9Animation14GenericBinding8TransferI14SafeBinaryReadEEvRT_
1850:__ZN14SafeBinaryRead8TransferIjEEvRT_PKc17TransferMetaFlags
1851:__ZN14SafeBinaryRead8TransferIPKN5Unity4TypeEEEvRT_PKc17TransferMetaFlags
1852:__ZN14SafeBinaryRead8TransferIhEEvRT_PKc17TransferMetaFlags
1853:__ZN15SerializeTraitsIhE13GetTypeStringEPv
1854:__ZN14SafeBinaryRead22TransferWithTypeStringIhEEvRT_PKcS4_17TransferMetaFlags
1855:__ZN31SerializeTraitsBaseForBasicTypeIhE19AllowTypeConversionEv
1856:__ZN31SerializeTraitsBaseForBasicTypeIhE8TransferI14SafeBinaryReadEEvRhRT_
1857:__ZN14SafeBinaryRead17TransferBasicDataIhEEvRT_
1858:__ZNK3VFS16FileSizeTemplateIyE4CastImEET_v
1859:__ZN12CachedReader4ReadIhEEvRT_m
1860:__ZN14SafeBinaryRead16ConvertEndianessEv
1861:__ZN15SerializeTraitsIPKN5Unity4TypeEE13GetTypeStringEPS3_
1862:__ZN14SafeBinaryRead22TransferWithTypeStringIPKN5Unity4TypeEEEvRT_PKcS8_17TransferMetaFlags
1863:__ZN15SerializeTraitsIPKN5Unity4TypeEE8TransferI14SafeBinaryReadEEvRS3_RT_
1864:__ZN14SafeBinaryRead17TransferBasicDataIiEEvRT_
1865:__ZN12CachedReader4ReadIiEEvRT_m
1866:__Z15SwapEndianBytesRi
1867:__Z15SwapEndianBytesRj
1868:__ZN11UnityEngine9Animation14GenericBinding13GetTypeStringEv
1869:__ZN13dynamic_arrayIN11UnityEngine9Animation14GenericBindingELm0EE18resize_initializedEm12ResizePolicy
1870:__Z29default_construct_n_autolabelIN11UnityEngine9Animation14GenericBindingEEvPT_mRK10MemLabelId
1871:__Z27default_construct_autolabelIN11UnityEngine9Animation14GenericBindingEEvPT_RK10MemLabelId
1872:__ZN15AllocatorTraitsIN11UnityEngine9Animation14GenericBindingELb0EE9ConstructEPS2_RK10MemLabelId
1873:__ZN11UnityEngine9Animation28AnimationClipBindingConstant13GetTypeStringEv
1874:__ZN7mecanim6memory16ChainedAllocator7ReserveEm
1875:__ZN14SafeBinaryRead8TransferIN7mecanim9animation18ClipMuscleConstantEEEvRT_PKc17TransferMetaFlags
1876:__ZN15SerializeTraitsIN7mecanim9animation18ClipMuscleConstantEE13GetTypeStringEPv
1877:__ZN14SafeBinaryRead22TransferWithTypeStringIN7mecanim9animation18ClipMuscleConstantEEEvRT_PKcS7_17TransferMetaFlags
1878:__ZN15SerializeTraitsIN7mecanim9animation18ClipMuscleConstantEE8TransferI14SafeBinaryReadEEvRS2_RT_
1879:__ZN7mecanim9animation18ClipMuscleConstant8TransferI14SafeBinaryReadEEvRT_
1880:__ZN14SafeBinaryRead8TransferIN7mecanim5human9HumanPoseEEEvRT_PKc17TransferMetaFlags
1881:__ZN14SafeBinaryRead8TransferIN4math4trsXEEEvRT_PKc17TransferMetaFlags
1882:__ZN14SafeBinaryRead8TransferIKN4math7_float3EEEvRT_PKc17TransferMetaFlags
1883:__ZN14SafeBinaryRead8TransferI9OffsetPtrIN7mecanim9animation4ClipEEEEvRT_PKc17TransferMetaFlags
1884:__Z13TransferArrayILi200Ei14SafeBinaryReadEmRAT__T0_PKcRT1_
1885:__Z17TransferOffsetPtrI9OffsetPtrIN7mecanim9animation10ValueDeltaEE14SafeBinaryReadEvRT_PKcRjRT0_
1886:__Z17TransferOffsetPtrI9OffsetPtrIfE14SafeBinaryReadEvRT_PKcRjRT0_
1887:__ZN7mecanim9animation18ClipMuscleConstant30TransferBackwardsCompatibilityI14SafeBinaryReadEEvRT_
1888:__ZN14SafeBinaryRead8TransferI22OffsetPtrArrayTransferIfEEEvRT_PKc17TransferMetaFlags
1889:__ZN14SafeBinaryRead22TransferWithTypeStringI22OffsetPtrArrayTransferIfEEEvRT_PKcS6_17TransferMetaFlags
1890:__ZN15SerializeTraitsI22OffsetPtrArrayTransferIfEE8TransferI14SafeBinaryReadEEvRS1_RT_
1891:__ZN14SafeBinaryRead11TransferPtrIfEEvbP14ReduceCopyData
1892:__ZN14SafeBinaryRead21TransferSTLStyleArrayI22OffsetPtrArrayTransferIfEEEvRT_17TransferMetaFlags
1893:__ZN14SafeBinaryRead8TransferI22OffsetPtrArrayTransferIN7mecanim9animation10ValueDeltaEEEEvRT_PKc17TransferMetaFlags
1894:__ZN14SafeBinaryRead22TransferWithTypeStringI22OffsetPtrArrayTransferIN7mecanim9animation10ValueDeltaEEEEvRT_PKcS9_17TransferMetaFlags
1895:__ZN15SerializeTraitsI22OffsetPtrArrayTransferIN7mecanim9animation10ValueDeltaEEE8TransferI14SafeBinaryReadEEvRS4_RT_
1896:__ZN14SafeBinaryRead21TransferSTLStyleArrayI22OffsetPtrArrayTransferIN7mecanim9animation10ValueDeltaEEEEvRT_17TransferMetaFlags
1897:__ZN15SerializeTraitsI22OffsetPtrArrayTransferIN7mecanim9animation10ValueDeltaEEE19ResizeSTLStyleArrayERS4_i
1898:__ZN15SerializeTraitsIN7mecanim9animation10ValueDeltaEE13GetTypeStringEPv
1899:__ZN15SerializeTraitsIN7mecanim9animation10ValueDeltaEE8TransferI14SafeBinaryReadEEvRS2_RT_
1900:__ZN14SafeBinaryRead8TransferIN7mecanim9animation10ValueDeltaEEEvRT_PKc17TransferMetaFlags
1901:__ZN14SafeBinaryRead22TransferWithTypeStringIN7mecanim9animation10ValueDeltaEEEvRT_PKcS7_17TransferMetaFlags
1902:__ZN7mecanim9animation10ValueDelta8TransferI14SafeBinaryReadEEvRT_
1903:__ZN7mecanim9animation10ValueDelta13GetTypeStringEv
1904:__ZN22OffsetPtrArrayTransferIN7mecanim9animation10ValueDeltaEE6resizeEi
1905:__ZN20RuntimeBaseAllocator14ConstructArrayIN7mecanim9animation10ValueDeltaEEEPT_mRKS4_m
1906:__ZNSt3__218uninitialized_fillIPN7mecanim9animation10ValueDeltaES3_EEvT_S5_RKT0_
1907:__ZN14SafeBinaryRead8TransferI19StaticArrayTransferIiLi200EEEEvRT_PKc17TransferMetaFlags
1908:__ZN15SerializeTraitsI19StaticArrayTransferIiLi200EEE13GetTypeStringEPv
1909:__ZN14SafeBinaryRead22TransferWithTypeStringI19StaticArrayTransferIiLi200EEEEvRT_PKcS6_17TransferMetaFlags
1910:__ZN15SerializeTraitsI19StaticArrayTransferIiLi200EEE8TransferI14SafeBinaryReadEEvRS1_RT_
1911:__ZN14SafeBinaryRead21TransferSTLStyleArrayI19StaticArrayTransferIiLi200EEEEvRT_17TransferMetaFlags
1912:__ZN15SerializeTraitsI19StaticArrayTransferIiLi200EEE19ResizeSTLStyleArrayERS1_i
1913:__ZN15SerializeTraitsIiE13GetTypeStringEPv
1914:__ZN31SerializeTraitsBaseForBasicTypeIiE8TransferI14SafeBinaryReadEEvRiRT_
1915:__ZN19StaticArrayTransferIiLi200EE7reserveEm
1916:__ZN15SerializeTraitsI9OffsetPtrIN7mecanim9animation4ClipEEE13GetTypeStringEPv
1917:__ZN14SafeBinaryRead22TransferWithTypeStringI9OffsetPtrIN7mecanim9animation4ClipEEEEvRT_PKcS9_17TransferMetaFlags
1918:__ZN15SerializeTraitsI9OffsetPtrIN7mecanim9animation4ClipEEE8TransferI14SafeBinaryReadEEvRS4_RT_
1919:__ZN14SafeBinaryRead8TransferIN7mecanim9animation4ClipEEEvRT_PKc17TransferMetaFlags
1920:__ZN15SerializeTraitsIN7mecanim9animation4ClipEE13GetTypeStringEPv
1921:__ZN14SafeBinaryRead22TransferWithTypeStringIN7mecanim9animation4ClipEEEvRT_PKcS7_17TransferMetaFlags
1922:__ZN15SerializeTraitsIN7mecanim9animation4ClipEE8TransferI14SafeBinaryReadEEvRS2_RT_
1923:__ZN7mecanim9animation4Clip8TransferI14SafeBinaryReadEEvRT_
1924:__ZN14SafeBinaryRead8TransferIN7mecanim9animation12StreamedClipEEEvRT_PKc17TransferMetaFlags
1925:__ZN14SafeBinaryRead8TransferIN7mecanim9animation9DenseClipEEEvRT_PKc17TransferMetaFlags
1926:__ZN14SafeBinaryRead8TransferIN7mecanim9animation12ConstantClipEEEvRT_PKc17TransferMetaFlags
1927:__ZN15SerializeTraitsIN7mecanim9animation12ConstantClipEE13GetTypeStringEPv
1928:__ZN14SafeBinaryRead22TransferWithTypeStringIN7mecanim9animation12ConstantClipEEEvRT_PKcS7_17TransferMetaFlags
1929:__ZN15SerializeTraitsIN7mecanim9animation12ConstantClipEE8TransferI14SafeBinaryReadEEvRS2_RT_
1930:__ZN7mecanim9animation12ConstantClip8TransferI14SafeBinaryReadEEvRT_
1931:__ZN7mecanim9animation12ConstantClip13GetTypeStringEv
1932:__ZN15SerializeTraitsIN7mecanim9animation9DenseClipEE13GetTypeStringEPv
1933:__ZN14SafeBinaryRead22TransferWithTypeStringIN7mecanim9animation9DenseClipEEEvRT_PKcS7_17TransferMetaFlags
1934:__ZN15SerializeTraitsIN7mecanim9animation9DenseClipEE8TransferI14SafeBinaryReadEEvRS2_RT_
1935:__ZN7mecanim9animation9DenseClip8TransferI14SafeBinaryReadEEvRT_
1936:__ZN7mecanim9animation9DenseClip13GetTypeStringEv
1937:__ZN15SerializeTraitsIN7mecanim9animation12StreamedClipEE13GetTypeStringEPv
1938:__ZN14SafeBinaryRead22TransferWithTypeStringIN7mecanim9animation12StreamedClipEEEvRT_PKcS7_17TransferMetaFlags
1939:__ZN15SerializeTraitsIN7mecanim9animation12StreamedClipEE8TransferI14SafeBinaryReadEEvRS2_RT_
1940:__ZN7mecanim9animation12StreamedClip8TransferI14SafeBinaryReadEEvRT_
1941:__Z17TransferOffsetPtrI9OffsetPtrIjE14SafeBinaryReadEvRT_PKcRjRT0_
1942:__ZN14SafeBinaryRead8TransferI22OffsetPtrArrayTransferIjEEEvRT_PKc17TransferMetaFlags
1943:__ZN14SafeBinaryRead22TransferWithTypeStringI22OffsetPtrArrayTransferIjEEEvRT_PKcS6_17TransferMetaFlags
1944:__ZN15SerializeTraitsI22OffsetPtrArrayTransferIjEE8TransferI14SafeBinaryReadEEvRS1_RT_
1945:__ZN14SafeBinaryRead21TransferSTLStyleArrayI22OffsetPtrArrayTransferIjEEEvRT_17TransferMetaFlags
1946:__ZN7mecanim9animation12StreamedClip13GetTypeStringEv
1947:__ZN7mecanim9animation4Clip13GetTypeStringEv
1948:__ZN15SerializeTraitsIKN4math7_float3EE13GetTypeStringEPS2_
1949:__ZN14SafeBinaryRead22TransferWithTypeStringIKN4math7_float3EEEvRT_PKcS7_17TransferMetaFlags
1950:__ZN15SerializeTraitsIN4math4trsXEE13GetTypeStringEPS1_
1951:__ZN14SafeBinaryRead22TransferWithTypeStringIN4math4trsXEEEvRT_PKcS6_17TransferMetaFlags
1952:__ZN15SerializeTraitsIN4math4trsXEE8TransferI14SafeBinaryReadEEvRS1_RT_
1953:__ZN15SerializeTraitsIN7mecanim5human9HumanPoseEE13GetTypeStringEPv
1954:__ZN14SafeBinaryRead22TransferWithTypeStringIN7mecanim5human9HumanPoseEEEvRT_PKcS7_17TransferMetaFlags
1955:__ZN15SerializeTraitsIN7mecanim5human9HumanPoseEE8TransferI14SafeBinaryReadEEvRS2_RT_
1956:__ZN7mecanim5human9HumanPose8TransferI14SafeBinaryReadEEvRT_
1957:__ZN14SafeBinaryRead8TransferIKN4math7_float4EEEvRT_PKc17TransferMetaFlags
1958:__Z13TransferArrayILi4EN7mecanim5human9HumanGoalE14SafeBinaryReadEmRAT__T0_PKcRT1_
1959:__ZN14SafeBinaryRead8TransferIN7mecanim4hand8HandPoseEEEvRT_PKc17TransferMetaFlags
1960:__Z13TransferArrayILi55Ef14SafeBinaryReadEmRAT__T0_PKcRT1_
1961:__Z13TransferArrayILi21EKN4math7_float3E14SafeBinaryReadEmRAT__T0_PKcRT1_
1962:__ZN7mecanim5human9HumanPose30TransferBackwardsCompatibilityI14SafeBinaryReadEEvRT_m
1963:__ZN14SafeBinaryRead8TransferI19StaticArrayTransferIKN4math7_float3ELi21EEEEvRT_PKc17TransferMetaFlags
1964:__ZN14SafeBinaryRead22TransferWithTypeStringI19StaticArrayTransferIKN4math7_float3ELi21EEEEvRT_PKcS9_17TransferMetaFlags
1965:__ZN15SerializeTraitsI19StaticArrayTransferIKN4math7_float3ELi21EEE8TransferI14SafeBinaryReadEEvRS4_RT_
1966:__ZN14SafeBinaryRead21TransferSTLStyleArrayI19StaticArrayTransferIKN4math7_float3ELi21EEEEvRT_17TransferMetaFlags
1967:__ZN15SerializeTraitsI19StaticArrayTransferIKN4math7_float3ELi21EEE19ResizeSTLStyleArrayERS4_i
1968:__ZN19StaticArrayTransferIKN4math7_float3ELi21EE7reserveEm
1969:__ZN14SafeBinaryRead8TransferI19StaticArrayTransferIfLi55EEEEvRT_PKc17TransferMetaFlags
1970:__ZN14SafeBinaryRead22TransferWithTypeStringI19StaticArrayTransferIfLi55EEEEvRT_PKcS6_17TransferMetaFlags
1971:__ZN15SerializeTraitsI19StaticArrayTransferIfLi55EEE8TransferI14SafeBinaryReadEEvRS1_RT_
1972:__ZN14SafeBinaryRead21TransferSTLStyleArrayI19StaticArrayTransferIfLi55EEEEvRT_17TransferMetaFlags
1973:__ZN15SerializeTraitsI19StaticArrayTransferIfLi55EEE19ResizeSTLStyleArrayERS1_i
1974:__ZN15SerializeTraitsIfE13GetTypeStringEPv
1975:__ZN31SerializeTraitsBaseForBasicTypeIfE8TransferI14SafeBinaryReadEEvRfRT_
1976:__ZN14SafeBinaryRead17TransferBasicDataIfEEvRT_
1977:__ZN12CachedReader4ReadIfEEvRT_m
1978:__Z15SwapEndianBytesRf
1979:__ZN19StaticArrayTransferIfLi55EE7reserveEm
1980:__ZN15SerializeTraitsIN7mecanim4hand8HandPoseEE13GetTypeStringEPv
1981:__ZN14SafeBinaryRead22TransferWithTypeStringIN7mecanim4hand8HandPoseEEEvRT_PKcS7_17TransferMetaFlags
1982:__ZN15SerializeTraitsIN7mecanim4hand8HandPoseEE8TransferI14SafeBinaryReadEEvRS2_RT_
1983:__ZN7mecanim4hand8HandPose8TransferI14SafeBinaryReadEEvRT_
1984:__Z13TransferArrayILi20Ef14SafeBinaryReadEmRAT__T0_PKcRT1_
1985:__ZN14SafeBinaryRead8TransferI19StaticArrayTransferIfLi20EEEEvRT_PKc17TransferMetaFlags
1986:__ZN14SafeBinaryRead22TransferWithTypeStringI19StaticArrayTransferIfLi20EEEEvRT_PKcS6_17TransferMetaFlags
1987:__ZN15SerializeTraitsI19StaticArrayTransferIfLi20EEE8TransferI14SafeBinaryReadEEvRS1_RT_
1988:__ZN14SafeBinaryRead21TransferSTLStyleArrayI19StaticArrayTransferIfLi20EEEEvRT_17TransferMetaFlags
1989:__ZN15SerializeTraitsI19StaticArrayTransferIfLi20EEE19ResizeSTLStyleArrayERS1_i
1990:__ZN19StaticArrayTransferIfLi20EE7reserveEm
1991:__ZN7mecanim4hand8HandPose13GetTypeStringEv
1992:__ZN14SafeBinaryRead8TransferI19StaticArrayTransferIN7mecanim5human9HumanGoalELi4EEEEvRT_PKc17TransferMetaFlags
1993:__ZN14SafeBinaryRead22TransferWithTypeStringI19StaticArrayTransferIN7mecanim5human9HumanGoalELi4EEEEvRT_PKcS9_17TransferMetaFlags
1994:__ZN15SerializeTraitsI19StaticArrayTransferIN7mecanim5human9HumanGoalELi4EEE8TransferI14SafeBinaryReadEEvRS4_RT_
1995:__ZN14SafeBinaryRead21TransferSTLStyleArrayI19StaticArrayTransferIN7mecanim5human9HumanGoalELi4EEEEvRT_17TransferMetaFlags
1996:__ZN15SerializeTraitsI19StaticArrayTransferIN7mecanim5human9HumanGoalELi4EEE19ResizeSTLStyleArrayERS4_i
1997:__ZN15SerializeTraitsIN7mecanim5human9HumanGoalEE13GetTypeStringEPv
1998:__ZN15SerializeTraitsIN7mecanim5human9HumanGoalEE8TransferI14SafeBinaryReadEEvRS2_RT_
1999:__ZN14SafeBinaryRead8TransferIN7mecanim5human9HumanGoalEEEvRT_PKc17TransferMetaFlags
2000:__ZN14SafeBinaryRead22TransferWithTypeStringIN7mecanim5human9HumanGoalEEEvRT_PKcS7_17TransferMetaFlags
2001:__ZN7mecanim5human9HumanGoal8TransferI14SafeBinaryReadEEvRT_
2002:__ZN7mecanim5human9HumanGoal13GetTypeStringEv
2003:__ZN19StaticArrayTransferIN7mecanim5human9HumanGoalELi4EE7reserveEm
2004:__ZN15SerializeTraitsIKN4math7_float4EE13GetTypeStringEPS2_
2005:__ZN14SafeBinaryRead22TransferWithTypeStringIKN4math7_float4EEEvRT_PKcS7_17TransferMetaFlags
2006:__ZN7mecanim5human9HumanPose13GetTypeStringEv
2007:__ZN7mecanim9animation18ClipMuscleConstant13GetTypeStringEv
2008:__ZN14SafeBinaryRead22TransferWithTypeStringIiEEvRT_PKcS4_17TransferMetaFlags
2009:__ZN4coreeqERKNS_12basic_stringIcNS_20StringStorageDefaultIcEEEES5_
2010:__ZN4core12basic_stringIcNS_20StringStorageDefaultIcEEEaSEPKc
2011:__ZN15SerializeTraitsI4AABBE13GetTypeStringEPv
2012:__ZN14SafeBinaryRead22TransferWithTypeStringI4AABBEEvRT_PKcS5_17TransferMetaFlags
2013:__ZN15SerializeTraitsI4AABBE8TransferI14SafeBinaryReadEEvRS0_RT_
2014:__ZN4AABB13GetTypeStringEv
2015:__ZN10EnumTraits5ToIntI8WrapModeEEiT_
2016:__ZN14SafeBinaryRead22TransferWithTypeStringIfEEvRT_PKcS4_17TransferMetaFlags
2017:__ZN14SafeBinaryRead22TransferWithTypeStringINSt3__26vectorIN13AnimationClip9PPtrCurveE13stl_allocatorIS4_L18MemLabelIdentifier30ELi16EEEEEEvRT_PKcSC_17TransferMetaFlags
2018:__ZN15SerializeTraitsINSt3__26vectorIN13AnimationClip9PPtrCurveE13stl_allocatorIS3_L18MemLabelIdentifier30ELi16EEEEE8TransferI14SafeBinaryReadEEvRS7_RT_
2019:__ZN14SafeBinaryRead21TransferSTLStyleArrayINSt3__26vectorIN13AnimationClip9PPtrCurveE13stl_allocatorIS4_L18MemLabelIdentifier30ELi16EEEEEEvRT_17TransferMetaFlags
2020:__ZN15SerializeTraitsINSt3__26vectorIN13AnimationClip9PPtrCurveE13stl_allocatorIS3_L18MemLabelIdentifier30ELi16EEEEE19ResizeSTLStyleArrayERS7_i
2021:__ZN15SerializeTraitsIN13AnimationClip9PPtrCurveEE13GetTypeStringEPv
2022:__ZN15SerializeTraitsIN13AnimationClip9PPtrCurveEE8TransferI14SafeBinaryReadEEvRS1_RT_
2023:__ZN14SafeBinaryRead8TransferIN13AnimationClip9PPtrCurveEEEvRT_PKc17TransferMetaFlags
2024:__ZN14SafeBinaryRead22TransferWithTypeStringIN13AnimationClip9PPtrCurveEEEvRT_PKcS6_17TransferMetaFlags
2025:__ZN13AnimationClip9PPtrCurve8TransferI14SafeBinaryReadEEvRT_
2026:__ZN14SafeBinaryRead8TransferI13dynamic_arrayI12PPtrKeyframeLm0EEEEvRT_PKc17TransferMetaFlags
2027:__ZN14SafeBinaryRead8TransferIN4core12basic_stringIcNS1_20StringStorageDefaultIcEEEEEEvRT_PKc17TransferMetaFlags
2028:__ZN14SafeBinaryRead8TransferI4PPtrI10MonoScriptEEEvRT_PKc17TransferMetaFlags
2029:__ZN15SerializeTraitsI4PPtrI10MonoScriptEE13GetTypeStringEPv
2030:__ZN4PPtrI10MonoScriptE13GetTypeStringEv
2031:__ZN10MonoScript17GetPPtrTypeStringEv
2032:__ZN29SerializeTraitsForStringTypesIN4core12basic_stringIcNS0_20StringStorageDefaultIcEEEEE13GetTypeStringEPS4_
2033:__ZN14SafeBinaryRead22TransferWithTypeStringIN4core12basic_stringIcNS1_20StringStorageDefaultIcEEEEEEvRT_PKcS9_17TransferMetaFlags
2034:__ZN29SerializeTraitsForStringTypesIN4core12basic_stringIcNS0_20StringStorageDefaultIcEEEEE8TransferI14SafeBinaryReadEEvRS4_RT_
2035:__ZN14SafeBinaryRead22TransferWithTypeStringI13dynamic_arrayI12PPtrKeyframeLm0EEEEvRT_PKcS7_17TransferMetaFlags
2036:__ZN15SerializeTraitsI13dynamic_arrayI12PPtrKeyframeLm0EEE8TransferI14SafeBinaryReadEEvRS2_RT_
2037:__ZN14SafeBinaryRead21TransferSTLStyleArrayI13dynamic_arrayI12PPtrKeyframeLm0EEEEvRT_17TransferMetaFlags
2038:__ZN15SerializeTraitsI13dynamic_arrayI12PPtrKeyframeLm0EEE19ResizeSTLStyleArrayERS2_i
2039:__ZN15SerializeTraitsI12PPtrKeyframeE13GetTypeStringEPv
2040:__ZN15SerializeTraitsI12PPtrKeyframeE8TransferI14SafeBinaryReadEEvRS0_RT_
2041:__ZN14SafeBinaryRead8TransferI12PPtrKeyframeEEvRT_PKc17TransferMetaFlags
2042:__ZN14SafeBinaryRead22TransferWithTypeStringI12PPtrKeyframeEEvRT_PKcS5_17TransferMetaFlags
2043:__ZN12PPtrKeyframe8TransferI14SafeBinaryReadEEvRT_
2044:__ZN12PPtrKeyframe13GetTypeStringEv
2045:__ZN13dynamic_arrayI12PPtrKeyframeLm0EE18resize_initializedEm12ResizePolicy
2046:__Z29default_construct_n_autolabelI12PPtrKeyframeEvPT_mRK10MemLabelId
2047:__Z27default_construct_autolabelI12PPtrKeyframeEvPT_RK10MemLabelId
2048:__ZN15AllocatorTraitsI12PPtrKeyframeLb0EE9ConstructEPS0_RK10MemLabelId
2049:__ZN12PPtrKeyframeC2Ev
2050:__ZN13AnimationClip9PPtrCurve13GetTypeStringEv
2051:__Z14resize_trimmedINSt3__26vectorIN13AnimationClip9PPtrCurveE13stl_allocatorIS3_L18MemLabelIdentifier30ELi16EEEEEvRT_j
2052:__ZNSt3__26vectorIN13AnimationClip9PPtrCurveE13stl_allocatorIS2_L18MemLabelIdentifier30ELi16EEE7reserveEm
2053:__ZNSt3__26vectorIN13AnimationClip9PPtrCurveE13stl_allocatorIS2_L18MemLabelIdentifier30ELi16EEE6assignINS_11__wrap_iterIPS2_EEEENS_9enable_ifIXaasr21__is_forward_iteratorIT_EE5valuesr16is_constructibleIS2_NS_15iterator_traitsISC_E9referenceEEE5valueEvE4typeESC_SC_
2054:__ZNSt3__26vectorIN13AnimationClip9PPtrCurveE13stl_allocatorIS2_L18MemLabelIdentifier30ELi16EEE6resizeEm
2055:__ZNSt3__26vectorIN13AnimationClip9PPtrCurveE13stl_allocatorIS2_L18MemLabelIdentifier30ELi16EEED2Ev
2056:__ZNSt3__26vectorIN13AnimationClip9PPtrCurveE13stl_allocatorIS2_L18MemLabelIdentifier30ELi16EEEC2INS_11__wrap_iterIPS2_EEEET_SB_RKS5_PNS_9enable_ifIXaasr21__is_forward_iteratorISB_EE5valuesr16is_constructibleIS2_NS_15iterator_traitsISB_E9referenceEEE5valueEvE4typeE
2057:__ZNSt3__26vectorIN13AnimationClip9PPtrCurveE13stl_allocatorIS2_L18MemLabelIdentifier30ELi16EEE18__construct_at_endINS_11__wrap_iterIPS2_EEEENS_9enable_ifIXsr21__is_forward_iteratorIT_EE5valueEvE4typeESC_SC_m
2058:__ZNSt3__213__vector_baseIN13AnimationClip9PPtrCurveE13stl_allocatorIS2_L18MemLabelIdentifier30ELi16EEED2Ev
2059:__ZNSt3__26vectorIN13AnimationClip9PPtrCurveE13stl_allocatorIS2_L18MemLabelIdentifier30ELi16EEE8__appendEm
2060:__ZNSt3__26vectorIN13AnimationClip9PPtrCurveE13stl_allocatorIS2_L18MemLabelIdentifier30ELi16EEE18__construct_at_endEm
2061:__ZNSt3__214__split_bufferIN13AnimationClip9PPtrCurveER13stl_allocatorIS2_L18MemLabelIdentifier30ELi16EEE18__construct_at_endEm
2062:__ZN13AnimationClip9PPtrCurveaSERKS0_
2063:__ZNSt3__26vectorIN13AnimationClip9PPtrCurveE13stl_allocatorIS2_L18MemLabelIdentifier30ELi16EEE10deallocateEv
2064:__ZN14SafeBinaryRead22TransferWithTypeStringINSt3__26vectorIN13AnimationClip10FloatCurveE13stl_allocatorIS4_L18MemLabelIdentifier30ELi16EEEEEEvRT_PKcSC_17TransferMetaFlags
2065:__ZN15SerializeTraitsINSt3__26vectorIN13AnimationClip10FloatCurveE13stl_allocatorIS3_L18MemLabelIdentifier30ELi16EEEEE8TransferI14SafeBinaryReadEEvRS7_RT_
2066:__ZN14SafeBinaryRead21TransferSTLStyleArrayINSt3__26vectorIN13AnimationClip10FloatCurveE13stl_allocatorIS4_L18MemLabelIdentifier30ELi16EEEEEEvRT_17TransferMetaFlags
2067:__ZN15SerializeTraitsINSt3__26vectorIN13AnimationClip10FloatCurveE13stl_allocatorIS3_L18MemLabelIdentifier30ELi16EEEEE19ResizeSTLStyleArrayERS7_i
2068:__ZN15SerializeTraitsIN13AnimationClip10FloatCurveEE13GetTypeStringEPv
2069:__ZN15SerializeTraitsIN13AnimationClip10FloatCurveEE8TransferI14SafeBinaryReadEEvRS1_RT_
2070:__ZN14SafeBinaryRead8TransferIN13AnimationClip10FloatCurveEEEvRT_PKc17TransferMetaFlags
2071:__ZN14SafeBinaryRead22TransferWithTypeStringIN13AnimationClip10FloatCurveEEEvRT_PKcS6_17TransferMetaFlags
2072:__ZN13AnimationClip10FloatCurve8TransferI14SafeBinaryReadEEvRT_
2073:__ZN14SafeBinaryRead8TransferI17AnimationCurveTplIfEEEvRT_PKc17TransferMetaFlags
2074:__ZN15SerializeTraitsI17AnimationCurveTplIfEE13GetTypeStringEPv
2075:__ZN14SafeBinaryRead22TransferWithTypeStringI17AnimationCurveTplIfEEEvRT_PKcS6_17TransferMetaFlags
2076:__ZN15SerializeTraitsI17AnimationCurveTplIfEE8TransferI14SafeBinaryReadEEvRS1_RT_
2077:__ZN17AnimationCurveTplIfE8TransferI14SafeBinaryReadEEvRT_
2078:__ZN14SafeBinaryRead8TransferI13dynamic_arrayI11KeyframeTplIfELm0EEEEvRT_PKc17TransferMetaFlags
2079:__ZN14SafeBinaryRead22TransferWithTypeStringI13dynamic_arrayI11KeyframeTplIfELm0EEEEvRT_PKcS8_17TransferMetaFlags
2080:__ZN15SerializeTraitsI13dynamic_arrayI11KeyframeTplIfELm0EEE8TransferI14SafeBinaryReadEEvRS3_RT_
2081:__ZN14SafeBinaryRead21TransferSTLStyleArrayI13dynamic_arrayI11KeyframeTplIfELm0EEEEvRT_17TransferMetaFlags
2082:__ZN15SerializeTraitsI13dynamic_arrayI11KeyframeTplIfELm0EEE19ResizeSTLStyleArrayERS3_i
2083:__ZN15SerializeTraitsI11KeyframeTplIfEE13GetTypeStringEPv
2084:__ZN15SerializeTraitsI11KeyframeTplIfEE8TransferI14SafeBinaryReadEEvRS1_RT_
2085:__ZN14SafeBinaryRead8TransferI11KeyframeTplIfEEEvRT_PKc17TransferMetaFlags
2086:__ZN14SafeBinaryRead22TransferWithTypeStringI11KeyframeTplIfEEEvRT_PKcS6_17TransferMetaFlags
2087:__ZN11KeyframeTplIfE8TransferI14SafeBinaryReadEEvRT_
2088:__ZN11KeyframeTplIfE13GetTypeStringEv
2089:__ZN13dynamic_arrayI11KeyframeTplIfELm0EE18resize_initializedEm12ResizePolicy
2090:__Z29default_construct_n_autolabelI11KeyframeTplIfEEvPT_mRK10MemLabelId
2091:__Z27default_construct_autolabelI11KeyframeTplIfEEvPT_RK10MemLabelId
2092:__ZN15AllocatorTraitsI11KeyframeTplIfELb0EE9ConstructEPS1_RK10MemLabelId
2093:__ZN11KeyframeTplIfEC2Ev
2094:__ZL4ZeroIfET_v
2095:__ZL13DefaultWeightIfET_v
2096:__ZN17AnimationCurveTplIfE13GetTypeStringEv
2097:__ZN13AnimationClip10FloatCurve13GetTypeStringEv
2098:__Z14resize_trimmedINSt3__26vectorIN13AnimationClip10FloatCurveE13stl_allocatorIS3_L18MemLabelIdentifier30ELi16EEEEEvRT_j
2099:__ZNSt3__26vectorIN13AnimationClip10FloatCurveE13stl_allocatorIS2_L18MemLabelIdentifier30ELi16EEE7reserveEm
2100:__ZNSt3__26vectorIN13AnimationClip10FloatCurveE13stl_allocatorIS2_L18MemLabelIdentifier30ELi16EEE6assignINS_11__wrap_iterIPS2_EEEENS_9enable_ifIXaasr21__is_forward_iteratorIT_EE5valuesr16is_constructibleIS2_NS_15iterator_traitsISC_E9referenceEEE5valueEvE4typeESC_SC_
2101:__ZNSt3__26vectorIN13AnimationClip10FloatCurveE13stl_allocatorIS2_L18MemLabelIdentifier30ELi16EEE6resizeEm
2102:__ZNSt3__26vectorIN13AnimationClip10FloatCurveE13stl_allocatorIS2_L18MemLabelIdentifier30ELi16EEED2Ev
2103:__ZNSt3__26vectorIN13AnimationClip10FloatCurveE13stl_allocatorIS2_L18MemLabelIdentifier30ELi16EEEC2INS_11__wrap_iterIPS2_EEEET_SB_RKS5_PNS_9enable_ifIXaasr21__is_forward_iteratorISB_EE5valuesr16is_constructibleIS2_NS_15iterator_traitsISB_E9referenceEEE5valueEvE4typeE
2104:__ZNSt3__26vectorIN13AnimationClip10FloatCurveE13stl_allocatorIS2_L18MemLabelIdentifier30ELi16EEE8allocateEm
2105:__ZNSt3__26vectorIN13AnimationClip10FloatCurveE13stl_allocatorIS2_L18MemLabelIdentifier30ELi16EEE18__construct_at_endINS_11__wrap_iterIPS2_EEEENS_9enable_ifIXsr21__is_forward_iteratorIT_EE5valueEvE4typeESC_SC_m
2106:__ZNSt3__213__vector_baseIN13AnimationClip10FloatCurveE13stl_allocatorIS2_L18MemLabelIdentifier30ELi16EEED2Ev
2107:__ZNSt3__26vectorIN13AnimationClip10FloatCurveE13stl_allocatorIS2_L18MemLabelIdentifier30ELi16EEE8__appendEm
2108:__ZNSt3__26vectorIN13AnimationClip10FloatCurveE13stl_allocatorIS2_L18MemLabelIdentifier30ELi16EEE18__construct_at_endEm
2109:__ZNSt3__214__split_bufferIN13AnimationClip10FloatCurveER13stl_allocatorIS2_L18MemLabelIdentifier30ELi16EEE18__construct_at_endEm
2110:__ZN13AnimationClip10FloatCurveaSERKS0_
2111:__ZNSt3__26vectorIN13AnimationClip10FloatCurveE13stl_allocatorIS2_L18MemLabelIdentifier30ELi16EEE10deallocateEv
2112:__ZN14SafeBinaryRead22TransferWithTypeStringINSt3__26vectorIN13AnimationClip12Vector3CurveE13stl_allocatorIS4_L18MemLabelIdentifier30ELi16EEEEEEvRT_PKcSC_17TransferMetaFlags
2113:__ZN15SerializeTraitsINSt3__26vectorIN13AnimationClip12Vector3CurveE13stl_allocatorIS3_L18MemLabelIdentifier30ELi16EEEEE8TransferI14SafeBinaryReadEEvRS7_RT_
2114:__ZN14SafeBinaryRead21TransferSTLStyleArrayINSt3__26vectorIN13AnimationClip12Vector3CurveE13stl_allocatorIS4_L18MemLabelIdentifier30ELi16EEEEEEvRT_17TransferMetaFlags
2115:__ZN15SerializeTraitsINSt3__26vectorIN13AnimationClip12Vector3CurveE13stl_allocatorIS3_L18MemLabelIdentifier30ELi16EEEEE19ResizeSTLStyleArrayERS7_i
2116:__ZN15SerializeTraitsIN13AnimationClip12Vector3CurveEE13GetTypeStringEPv
2117:__ZN15SerializeTraitsIN13AnimationClip12Vector3CurveEE8TransferI14SafeBinaryReadEEvRS1_RT_
2118:__ZN14SafeBinaryRead8TransferIN13AnimationClip12Vector3CurveEEEvRT_PKc17TransferMetaFlags
2119:__ZN14SafeBinaryRead22TransferWithTypeStringIN13AnimationClip12Vector3CurveEEEvRT_PKcS6_17TransferMetaFlags
2120:__ZN13AnimationClip12Vector3Curve8TransferI14SafeBinaryReadEEvRT_
2121:__ZN14SafeBinaryRead8TransferI17AnimationCurveTplI8Vector3fEEEvRT_PKc17TransferMetaFlags
2122:__ZN14SafeBinaryRead22TransferWithTypeStringI17AnimationCurveTplI8Vector3fEEEvRT_PKcS7_17TransferMetaFlags
2123:__ZN15SerializeTraitsI17AnimationCurveTplI8Vector3fEE8TransferI14SafeBinaryReadEEvRS2_RT_
2124:__ZN17AnimationCurveTplI8Vector3fE8TransferI14SafeBinaryReadEEvRT_
2125:__ZN14SafeBinaryRead8TransferI13dynamic_arrayI11KeyframeTplI8Vector3fELm0EEEEvRT_PKc17TransferMetaFlags
2126:__ZN14SafeBinaryRead22TransferWithTypeStringI13dynamic_arrayI11KeyframeTplI8Vector3fELm0EEEEvRT_PKcS9_17TransferMetaFlags
2127:__ZN15SerializeTraitsI13dynamic_arrayI11KeyframeTplI8Vector3fELm0EEE8TransferI14SafeBinaryReadEEvRS4_RT_
2128:__ZN14SafeBinaryRead21TransferSTLStyleArrayI13dynamic_arrayI11KeyframeTplI8Vector3fELm0EEEEvRT_17TransferMetaFlags
2129:__ZN15SerializeTraitsI13dynamic_arrayI11KeyframeTplI8Vector3fELm0EEE19ResizeSTLStyleArrayERS4_i
2130:__ZN15SerializeTraitsI11KeyframeTplI8Vector3fEE8TransferI14SafeBinaryReadEEvRS2_RT_
2131:__ZN14SafeBinaryRead8TransferI11KeyframeTplI8Vector3fEEEvRT_PKc17TransferMetaFlags
2132:__ZN14SafeBinaryRead22TransferWithTypeStringI11KeyframeTplI8Vector3fEEEvRT_PKcS7_17TransferMetaFlags
2133:__ZN11KeyframeTplI8Vector3fE8TransferI14SafeBinaryReadEEvRT_
2134:__ZN14SafeBinaryRead8TransferI8Vector3fEEvRT_PKc17TransferMetaFlags
2135:__ZN15SerializeTraitsI8Vector3fE13GetTypeStringEPv
2136:__ZN14SafeBinaryRead22TransferWithTypeStringI8Vector3fEEvRT_PKcS5_17TransferMetaFlags
2137:__ZN15SerializeTraitsI8Vector3fE8TransferI14SafeBinaryReadEEvRS0_RT_
2138:__ZN8Vector3f13GetTypeStringEv
2139:__ZN13dynamic_arrayI11KeyframeTplI8Vector3fELm0EE18resize_initializedEm12ResizePolicy
2140:__Z29default_construct_n_autolabelI11KeyframeTplI8Vector3fEEvPT_mRK10MemLabelId
2141:__Z27default_construct_autolabelI11KeyframeTplI8Vector3fEEvPT_RK10MemLabelId
2142:__ZN15AllocatorTraitsI11KeyframeTplI8Vector3fELb0EE9ConstructEPS2_RK10MemLabelId
2143:__ZN11KeyframeTplI8Vector3fEC2Ev
2144:__ZL4ZeroI8Vector3fET_v
2145:__ZL13DefaultWeightI8Vector3fET_v
2146:__ZN8Vector3fC2Efff
2147:__ZN13AnimationClip12Vector3Curve13GetTypeStringEv
2148:__Z14resize_trimmedINSt3__26vectorIN13AnimationClip12Vector3CurveE13stl_allocatorIS3_L18MemLabelIdentifier30ELi16EEEEEvRT_j
2149:__ZNSt3__26vectorIN13AnimationClip12Vector3CurveE13stl_allocatorIS2_L18MemLabelIdentifier30ELi16EEE7reserveEm
2150:__ZNSt3__26vectorIN13AnimationClip12Vector3CurveE13stl_allocatorIS2_L18MemLabelIdentifier30ELi16EEE6assignINS_11__wrap_iterIPS2_EEEENS_9enable_ifIXaasr21__is_forward_iteratorIT_EE5valuesr16is_constructibleIS2_NS_15iterator_traitsISC_E9referenceEEE5valueEvE4typeESC_SC_
2151:__ZNSt3__26vectorIN13AnimationClip12Vector3CurveE13stl_allocatorIS2_L18MemLabelIdentifier30ELi16EEE6resizeEm
2152:__ZNSt3__26vectorIN13AnimationClip12Vector3CurveE13stl_allocatorIS2_L18MemLabelIdentifier30ELi16EEED2Ev
2153:__ZNSt3__26vectorIN13AnimationClip12Vector3CurveE13stl_allocatorIS2_L18MemLabelIdentifier30ELi16EEEC2INS_11__wrap_iterIPS2_EEEET_SB_RKS5_PNS_9enable_ifIXaasr21__is_forward_iteratorISB_EE5valuesr16is_constructibleIS2_NS_15iterator_traitsISB_E9referenceEEE5valueEvE4typeE
2154:__ZNSt3__26vectorIN13AnimationClip12Vector3CurveE13stl_allocatorIS2_L18MemLabelIdentifier30ELi16EEE8allocateEm
2155:__ZNSt3__26vectorIN13AnimationClip12Vector3CurveE13stl_allocatorIS2_L18MemLabelIdentifier30ELi16EEE18__construct_at_endINS_11__wrap_iterIPS2_EEEENS_9enable_ifIXsr21__is_forward_iteratorIT_EE5valueEvE4typeESC_SC_m
2156:__ZNSt3__213__vector_baseIN13AnimationClip12Vector3CurveE13stl_allocatorIS2_L18MemLabelIdentifier30ELi16EEED2Ev
2157:__ZNSt3__26vectorIN13AnimationClip12Vector3CurveE13stl_allocatorIS2_L18MemLabelIdentifier30ELi16EEE8__appendEm
2158:__ZNSt3__26vectorIN13AnimationClip12Vector3CurveE13stl_allocatorIS2_L18MemLabelIdentifier30ELi16EEE18__construct_at_endEm
2159:__ZNSt3__214__split_bufferIN13AnimationClip12Vector3CurveER13stl_allocatorIS2_L18MemLabelIdentifier30ELi16EEE18__construct_at_endEm
2160:__ZN13AnimationClip12Vector3CurveaSERKS0_
2161:__ZNSt3__26vectorIN13AnimationClip12Vector3CurveE13stl_allocatorIS2_L18MemLabelIdentifier30ELi16EEE10deallocateEv
2162:__ZNSt3__213__vector_baseIN13AnimationClip15QuaternionCurveE13stl_allocatorIS2_L18MemLabelIdentifier30ELi16EEED2Ev
2163:__ZNSt3__26vectorIN13AnimationClip15QuaternionCurveE13stl_allocatorIS2_L18MemLabelIdentifier30ELi16EEE6resizeEm
2164:__ZNSt3__26vectorIN13AnimationClip15QuaternionCurveE13stl_allocatorIS2_L18MemLabelIdentifier30ELi16EEE8__appendEm
2165:__ZNSt3__26vectorIN13AnimationClip15QuaternionCurveE13stl_allocatorIS2_L18MemLabelIdentifier30ELi16EEE18__construct_at_endEm
2166:__ZNSt3__214__split_bufferIN13AnimationClip15QuaternionCurveER13stl_allocatorIS2_L18MemLabelIdentifier30ELi16EEE18__construct_at_endEm
2167:__ZNSt3__26vectorI24CompressedAnimationCurve13stl_allocatorIS1_L18MemLabelIdentifier30ELi16EEE6resizeEm
2168:__ZNK17AnimationCurveTplI11QuaternionfE11GetKeyCountEv
2169:__ZN17AnimationCurveTplI11QuaternionfE6GetKeyEi
2170:__ZN13dynamic_arrayI11KeyframeTplI11QuaternionfELm0EEixEm
2171:__ZNSt3__26vectorI24CompressedAnimationCurve13stl_allocatorIS1_L18MemLabelIdentifier30ELi16EEE8__appendEm
2172:__ZN13stl_allocatorI24CompressedAnimationCurveL18MemLabelIdentifier30ELi16EE7destroyEPS0_
2173:__ZN24CompressedAnimationCurveD2Ev
2174:__ZN17PackedFloatVectorD2Ev
2175:__ZN16PackedQuatVectorD2Ev
2176:__ZN15PackedIntVectorD2Ev
2177:__ZNSt3__26vectorI24CompressedAnimationCurve13stl_allocatorIS1_L18MemLabelIdentifier30ELi16EEE18__construct_at_endEm
2178:__ZNSt3__214__split_bufferI24CompressedAnimationCurveR13stl_allocatorIS1_L18MemLabelIdentifier30ELi16EEEC2EmmS5_
2179:__ZNSt3__214__split_bufferI24CompressedAnimationCurveR13stl_allocatorIS1_L18MemLabelIdentifier30ELi16EEE18__construct_at_endEm
2180:__ZNSt3__26vectorI24CompressedAnimationCurve13stl_allocatorIS1_L18MemLabelIdentifier30ELi16EEE26__swap_out_circular_bufferERNS_14__split_bufferIS1_RS4_EE
2181:__ZNSt3__214__split_bufferI24CompressedAnimationCurveR13stl_allocatorIS1_L18MemLabelIdentifier30ELi16EEED2Ev
2182:__ZN13stl_allocatorI24CompressedAnimationCurveL18MemLabelIdentifier30ELi16EE9constructEPS0_RKS0_
2183:__ZN24CompressedAnimationCurveC2ERKS_
2184:__ZN15PackedIntVectorC2ERKS_
2185:__ZN16PackedQuatVectorC2ERKS_
2186:__ZN17PackedFloatVectorC2ERKS_
2187:__ZN13dynamic_arrayIhLm0EEC2ERKS0_
2188:__ZNK13dynamic_arrayIhLm0EE3endEv
2189:__ZN13dynamic_arrayIhLm0EE6assignEPKhS2_
2190:__Z30copy_construct_array_autolabelIhEvPT_mPKS0_RK10MemLabelId
2191:__ZN24CompressedAnimationCurveC2Ev
2192:__ZN15PackedIntVectorC2Ev
2193:__ZN16PackedQuatVectorC2Ev
2194:__ZN17PackedFloatVectorC2Ev
2195:__ZN13stl_allocatorI24CompressedAnimationCurveL18MemLabelIdentifier30ELi16EE8allocateEmPKv
2196:__ZN15SerializeTraitsI24CompressedAnimationCurveE16MightContainPPtrEv
2197:__ZNSt3__213__vector_baseI24CompressedAnimationCurve13stl_allocatorIS1_L18MemLabelIdentifier30ELi16EEED2Ev
2198:__ZN14SafeBinaryRead22TransferWithTypeStringINSt3__26vectorI24CompressedAnimationCurve13stl_allocatorIS3_L18MemLabelIdentifier30ELi16EEEEEEvRT_PKcSB_17TransferMetaFlags
2199:__ZN15SerializeTraitsINSt3__26vectorI24CompressedAnimationCurve13stl_allocatorIS2_L18MemLabelIdentifier30ELi16EEEEE8TransferI14SafeBinaryReadEEvRS6_RT_
2200:__ZN14SafeBinaryRead21TransferSTLStyleArrayINSt3__26vectorI24CompressedAnimationCurve13stl_allocatorIS3_L18MemLabelIdentifier30ELi16EEEEEEvRT_17TransferMetaFlags
2201:__ZN15SerializeTraitsINSt3__26vectorI24CompressedAnimationCurve13stl_allocatorIS2_L18MemLabelIdentifier30ELi16EEEEE19ResizeSTLStyleArrayERS6_i
2202:__ZN15SerializeTraitsI24CompressedAnimationCurveE13GetTypeStringEPv
2203:__ZN15SerializeTraitsI24CompressedAnimationCurveE8TransferI14SafeBinaryReadEEvRS0_RT_
2204:__ZN14SafeBinaryRead8TransferI24CompressedAnimationCurveEEvRT_PKc17TransferMetaFlags
2205:__ZN14SafeBinaryRead22TransferWithTypeStringI24CompressedAnimationCurveEEvRT_PKcS5_17TransferMetaFlags
2206:__ZN24CompressedAnimationCurve8TransferI14SafeBinaryReadEEvRT_
2207:__ZN14SafeBinaryRead8TransferI15PackedIntVectorEEvRT_PKc17TransferMetaFlags
2208:__ZN14SafeBinaryRead8TransferI16PackedQuatVectorEEvRT_PKc17TransferMetaFlags
2209:__ZN14SafeBinaryRead8TransferI17PackedFloatVectorEEvRT_PKc17TransferMetaFlags
2210:__ZN15SerializeTraitsI17PackedFloatVectorE13GetTypeStringEPv
2211:__ZN14SafeBinaryRead22TransferWithTypeStringI17PackedFloatVectorEEvRT_PKcS5_17TransferMetaFlags
2212:__ZN15SerializeTraitsI17PackedFloatVectorE8TransferI14SafeBinaryReadEEvRS0_RT_
2213:__ZN17PackedFloatVector8TransferI14SafeBinaryReadEEvRT_
2214:__ZN14SafeBinaryRead8TransferI13dynamic_arrayIhLm0EEEEvRT_PKc17TransferMetaFlags
2215:__ZN14SafeBinaryRead22TransferWithTypeStringI13dynamic_arrayIhLm0EEEEvRT_PKcS6_17TransferMetaFlags
2216:__ZN15SerializeTraitsI13dynamic_arrayIhLm0EEE8TransferI14SafeBinaryReadEEvRS1_RT_
2217:__ZN17PackedFloatVector13GetTypeStringEv
2218:__ZN14SafeBinaryRead22TransferWithTypeStringI16PackedQuatVectorEEvRT_PKcS5_17TransferMetaFlags
2219:__ZN15SerializeTraitsI16PackedQuatVectorE8TransferI14SafeBinaryReadEEvRS0_RT_
2220:__ZN16PackedQuatVector8TransferI14SafeBinaryReadEEvRT_
2221:__ZN14SafeBinaryRead22TransferWithTypeStringI15PackedIntVectorEEvRT_PKcS5_17TransferMetaFlags
2222:__ZN15SerializeTraitsI15PackedIntVectorE8TransferI14SafeBinaryReadEEvRS0_RT_
2223:__ZN15PackedIntVector8TransferI14SafeBinaryReadEEvRT_
2224:__ZN24CompressedAnimationCurve13GetTypeStringEv
2225:__Z14resize_trimmedINSt3__26vectorI24CompressedAnimationCurve13stl_allocatorIS2_L18MemLabelIdentifier30ELi16EEEEEvRT_j
2226:__ZNSt3__26vectorI24CompressedAnimationCurve13stl_allocatorIS1_L18MemLabelIdentifier30ELi16EEE7reserveEm
2227:__ZNSt3__26vectorI24CompressedAnimationCurve13stl_allocatorIS1_L18MemLabelIdentifier30ELi16EEE6assignINS_11__wrap_iterIPS1_EEEENS_9enable_ifIXaasr21__is_forward_iteratorIT_EE5valuesr16is_constructibleIS1_NS_15iterator_traitsISB_E9referenceEEE5valueEvE4typeESB_SB_
2228:__ZNSt3__26vectorI24CompressedAnimationCurve13stl_allocatorIS1_L18MemLabelIdentifier30ELi16EEEC2INS_11__wrap_iterIPS1_EEEET_SA_RKS4_PNS_9enable_ifIXaasr21__is_forward_iteratorISA_EE5valuesr16is_constructibleIS1_NS_15iterator_traitsISA_E9referenceEEE5valueEvE4typeE
2229:__ZNSt3__26vectorI24CompressedAnimationCurve13stl_allocatorIS1_L18MemLabelIdentifier30ELi16EEE8allocateEm
2230:__ZNSt3__26vectorI24CompressedAnimationCurve13stl_allocatorIS1_L18MemLabelIdentifier30ELi16EEE18__construct_at_endINS_11__wrap_iterIPS1_EEEENS_9enable_ifIXsr21__is_forward_iteratorIT_EE5valueEvE4typeESB_SB_m
2231:__ZN24CompressedAnimationCurveaSERKS_
2232:__ZNSt3__26vectorI24CompressedAnimationCurve13stl_allocatorIS1_L18MemLabelIdentifier30ELi16EEE10deallocateEv
2233:__ZN15PackedIntVectoraSERKS_
2234:__ZN16PackedQuatVectoraSERKS_
2235:__ZN17PackedFloatVectoraSERKS_
2236:__ZN13dynamic_arrayIhLm0EEaSERKS0_
2237:__ZN14SafeBinaryRead22TransferWithTypeStringINSt3__26vectorIN13AnimationClip15QuaternionCurveE13stl_allocatorIS4_L18MemLabelIdentifier30ELi16EEEEEEvRT_PKcSC_17TransferMetaFlags
2238:__ZN15SerializeTraitsINSt3__26vectorIN13AnimationClip15QuaternionCurveE13stl_allocatorIS3_L18MemLabelIdentifier30ELi16EEEEE8TransferI14SafeBinaryReadEEvRS7_RT_
2239:__ZN14SafeBinaryRead21TransferSTLStyleArrayINSt3__26vectorIN13AnimationClip15QuaternionCurveE13stl_allocatorIS4_L18MemLabelIdentifier30ELi16EEEEEEvRT_17TransferMetaFlags
2240:__ZN15SerializeTraitsINSt3__26vectorIN13AnimationClip15QuaternionCurveE13stl_allocatorIS3_L18MemLabelIdentifier30ELi16EEEEE19ResizeSTLStyleArrayERS7_i
2241:__ZN15SerializeTraitsIN13AnimationClip15QuaternionCurveEE13GetTypeStringEPv
2242:__ZN15SerializeTraitsIN13AnimationClip15QuaternionCurveEE8TransferI14SafeBinaryReadEEvRS1_RT_
2243:__ZN14SafeBinaryRead8TransferIN13AnimationClip15QuaternionCurveEEEvRT_PKc17TransferMetaFlags
2244:__ZN14SafeBinaryRead22TransferWithTypeStringIN13AnimationClip15QuaternionCurveEEEvRT_PKcS6_17TransferMetaFlags
2245:__ZN13AnimationClip15QuaternionCurve8TransferI14SafeBinaryReadEEvRT_
2246:__ZN14SafeBinaryRead8TransferI17AnimationCurveTplI11QuaternionfEEEvRT_PKc17TransferMetaFlags
2247:__ZN14SafeBinaryRead22TransferWithTypeStringI17AnimationCurveTplI11QuaternionfEEEvRT_PKcS7_17TransferMetaFlags
2248:__ZN15SerializeTraitsI17AnimationCurveTplI11QuaternionfEE8TransferI14SafeBinaryReadEEvRS2_RT_
2249:__ZN17AnimationCurveTplI11QuaternionfE8TransferI14SafeBinaryReadEEvRT_
2250:__ZN14SafeBinaryRead8TransferI13dynamic_arrayI11KeyframeTplI11QuaternionfELm0EEEEvRT_PKc17TransferMetaFlags
2251:__ZN14SafeBinaryRead22TransferWithTypeStringI13dynamic_arrayI11KeyframeTplI11QuaternionfELm0EEEEvRT_PKcS9_17TransferMetaFlags
2252:__ZN15SerializeTraitsI13dynamic_arrayI11KeyframeTplI11QuaternionfELm0EEE8TransferI14SafeBinaryReadEEvRS4_RT_
2253:__ZN14SafeBinaryRead21TransferSTLStyleArrayI13dynamic_arrayI11KeyframeTplI11QuaternionfELm0EEEEvRT_17TransferMetaFlags
2254:__ZN15SerializeTraitsI13dynamic_arrayI11KeyframeTplI11QuaternionfELm0EEE19ResizeSTLStyleArrayERS4_i
2255:__ZN15SerializeTraitsI11KeyframeTplI11QuaternionfEE8TransferI14SafeBinaryReadEEvRS2_RT_
2256:__ZN14SafeBinaryRead8TransferI11KeyframeTplI11QuaternionfEEEvRT_PKc17TransferMetaFlags
2257:__ZN14SafeBinaryRead22TransferWithTypeStringI11KeyframeTplI11QuaternionfEEEvRT_PKcS7_17TransferMetaFlags
2258:__ZN11KeyframeTplI11QuaternionfE8TransferI14SafeBinaryReadEEvRT_
2259:__ZN14SafeBinaryRead8TransferI11QuaternionfEEvRT_PKc17TransferMetaFlags
2260:__ZN15SerializeTraitsI11QuaternionfE13GetTypeStringEPv
2261:__ZN14SafeBinaryRead22TransferWithTypeStringI11QuaternionfEEvRT_PKcS5_17TransferMetaFlags
2262:__ZN15SerializeTraitsI11QuaternionfE8TransferI14SafeBinaryReadEEvRS0_RT_
2263:__ZN11Quaternionf13GetTypeStringEv
2264:__ZN13dynamic_arrayI11KeyframeTplI11QuaternionfELm0EE18resize_initializedEm12ResizePolicy
2265:__Z29default_construct_n_autolabelI11KeyframeTplI11QuaternionfEEvPT_mRK10MemLabelId
2266:__Z27default_construct_autolabelI11KeyframeTplI11QuaternionfEEvPT_RK10MemLabelId
2267:__ZN15AllocatorTraitsI11KeyframeTplI11QuaternionfELb0EE9ConstructEPS2_RK10MemLabelId
2268:__ZN11KeyframeTplI11QuaternionfEC2Ev
2269:__ZL4ZeroI11QuaternionfET_v
2270:__ZL13DefaultWeightI11QuaternionfET_v
2271:__ZN11QuaternionfC2Effff
2272:__ZN13AnimationClip15QuaternionCurve13GetTypeStringEv
2273:__Z14resize_trimmedINSt3__26vectorIN13AnimationClip15QuaternionCurveE13stl_allocatorIS3_L18MemLabelIdentifier30ELi16EEEEEvRT_j
2274:__ZNSt3__26vectorIN13AnimationClip15QuaternionCurveE13stl_allocatorIS2_L18MemLabelIdentifier30ELi16EEE7reserveEm
2275:__ZNSt3__26vectorIN13AnimationClip15QuaternionCurveE13stl_allocatorIS2_L18MemLabelIdentifier30ELi16EEE6assignINS_11__wrap_iterIPS2_EEEENS_9enable_ifIXaasr21__is_forward_iteratorIT_EE5valuesr16is_constructibleIS2_NS_15iterator_traitsISC_E9referenceEEE5valueEvE4typeESC_SC_
2276:__ZNSt3__26vectorIN13AnimationClip15QuaternionCurveE13stl_allocatorIS2_L18MemLabelIdentifier30ELi16EEEC2INS_11__wrap_iterIPS2_EEEET_SB_RKS5_PNS_9enable_ifIXaasr21__is_forward_iteratorISB_EE5valuesr16is_constructibleIS2_NS_15iterator_traitsISB_E9referenceEEE5valueEvE4typeE
2277:__ZNSt3__26vectorIN13AnimationClip15QuaternionCurveE13stl_allocatorIS2_L18MemLabelIdentifier30ELi16EEE8allocateEm
2278:__ZNSt3__26vectorIN13AnimationClip15QuaternionCurveE13stl_allocatorIS2_L18MemLabelIdentifier30ELi16EEE18__construct_at_endINS_11__wrap_iterIPS2_EEEENS_9enable_ifIXsr21__is_forward_iteratorIT_EE5valueEvE4typeESC_SC_m
2279:__ZN13AnimationClip15QuaternionCurveaSERKS0_
2280:__ZNSt3__26vectorIN13AnimationClip15QuaternionCurveE13stl_allocatorIS2_L18MemLabelIdentifier30ELi16EEE10deallocateEv
2281:__ZN15SerializeTraitsIbE13GetTypeStringEPv
2282:__ZN14SafeBinaryRead22TransferWithTypeStringIbEEvRT_PKcS4_17TransferMetaFlags
2283:__ZN15SerializeTraitsIbE8TransferI14SafeBinaryReadEEvRbRT_
2284:__ZN13AnimationClip13GetTypeStringEv
2285:__ZNK5Unity4Type7GetNameEv
2286:__ZN24GenerateTypeTreeTransfer12TransferBaseI13AnimationClipEEvRT_17TransferMetaFlags
2287:__ZN24GenerateTypeTreeTransfer8TransferI13AnimationClipEEvRT_PKc17TransferMetaFlags
2288:__ZN15SerializeTraitsI13AnimationClipE8TransferI24GenerateTypeTreeTransferEEvRS0_RT_
2289:__ZN13AnimationClip8TransferI24GenerateTypeTreeTransferEEvRT_
2290:__ZN24GenerateTypeTreeTransfer8TransferIbEEvRT_PKc17TransferMetaFlags
2291:__ZN24GenerateTypeTreeTransfer8TransferINSt3__26vectorIN13AnimationClip15QuaternionCurveE13stl_allocatorIS4_L18MemLabelIdentifier30ELi16EEEEEEvRT_PKc17TransferMetaFlags
2292:__ZN24GenerateTypeTreeTransfer8TransferINSt3__26vectorI24CompressedAnimationCurve13stl_allocatorIS3_L18MemLabelIdentifier30ELi16EEEEEEvRT_PKc17TransferMetaFlags
2293:__ZN24GenerateTypeTreeTransfer8TransferINSt3__26vectorIN13AnimationClip12Vector3CurveE13stl_allocatorIS4_L18MemLabelIdentifier30ELi16EEEEEEvRT_PKc17TransferMetaFlags
2294:__ZN24GenerateTypeTreeTransfer8TransferINSt3__26vectorIN13AnimationClip10FloatCurveE13stl_allocatorIS4_L18MemLabelIdentifier30ELi16EEEEEEvRT_PKc17TransferMetaFlags
2295:__ZN24GenerateTypeTreeTransfer8TransferINSt3__26vectorIN13AnimationClip9PPtrCurveE13stl_allocatorIS4_L18MemLabelIdentifier30ELi16EEEEEEvRT_PKc17TransferMetaFlags
2296:__ZN24GenerateTypeTreeTransfer8TransferIfEEvRT_PKc17TransferMetaFlags
2297:__Z32TransferEnumWithNameForceIntSizeI24GenerateTypeTreeTransfer8WrapModeEvRT_RT0_PKc17TransferMetaFlags
2298:__ZN24GenerateTypeTreeTransfer8TransferI4AABBEEvRT_PKc17TransferMetaFlags
2299:__ZN24GenerateTypeTreeTransfer8TransferIiEEvRT_PKc17TransferMetaFlags
2300:__Z21TransferBlobSerializeIN7mecanim9animation18ClipMuscleConstantE24GenerateTypeTreeTransferEvRPT_PKcRjS8_RT0_
2301:__ZN24GenerateTypeTreeTransfer8TransferIN11UnityEngine9Animation28AnimationClipBindingConstantEEEvRT_PKc17TransferMetaFlags
2302:__ZN24GenerateTypeTreeTransfer8TransferINSt3__26vectorI14AnimationEvent13stl_allocatorIS3_L18MemLabelIdentifier30ELi16EEEEEEvRT_PKc17TransferMetaFlags
2303:__ZN15SerializeTraitsINSt3__26vectorI14AnimationEvent13stl_allocatorIS2_L18MemLabelIdentifier30ELi16EEEEE8TransferI24GenerateTypeTreeTransferEEvRS6_RT_
2304:__ZN24GenerateTypeTreeTransfer21TransferSTLStyleArrayINSt3__26vectorI14AnimationEvent13stl_allocatorIS3_L18MemLabelIdentifier30ELi16EEEEEEvRT_17TransferMetaFlags
2305:__Z27default_construct_autolabelI14AnimationEventEvPT_RK10MemLabelId
2306:__ZN24GenerateTypeTreeTransfer32TransferSTLStyleArrayWithElementI14AnimationEventEEvRT_17TransferMetaFlags
2307:__Z8destructI14AnimationEventEvPT_
2308:__ZN17destruct_internalILb0EE8destructI14AnimationEventEEvPT_
2309:__ZN24GenerateTypeTreeTransfer8TransferI14AnimationEventEEvRT_PKc17TransferMetaFlags
2310:__ZN15SerializeTraitsI14AnimationEventE8TransferI24GenerateTypeTreeTransferEEvRS0_RT_
2311:__ZN14AnimationEvent8TransferI24GenerateTypeTreeTransferEEvRT_
2312:__ZN15AllocatorTraitsI14AnimationEventLb0EE9ConstructEPS0_RK10MemLabelId
2313:__ZN15SerializeTraitsIN11UnityEngine9Animation28AnimationClipBindingConstantEE8TransferI24GenerateTypeTreeTransferEEvRS2_RT_
2314:__ZN11UnityEngine9Animation28AnimationClipBindingConstant8TransferI24GenerateTypeTreeTransferEEvRT_
2315:__ZN24GenerateTypeTreeTransfer8TransferI13dynamic_arrayIN11UnityEngine9Animation14GenericBindingELm0EEEEvRT_PKc17TransferMetaFlags
2316:__ZN24GenerateTypeTreeTransfer8TransferI13dynamic_arrayI4PPtrI6ObjectELm0EEEEvRT_PKc17TransferMetaFlags
2317:__ZN15SerializeTraitsI13dynamic_arrayI4PPtrI6ObjectELm0EEE8TransferI24GenerateTypeTreeTransferEEvRS4_RT_
2318:__ZN24GenerateTypeTreeTransfer21TransferSTLStyleArrayI13dynamic_arrayI4PPtrI6ObjectELm0EEEEvRT_17TransferMetaFlags
2319:__ZN24GenerateTypeTreeTransfer32TransferSTLStyleArrayWithElementI4PPtrI6ObjectEEEvRT_17TransferMetaFlags
2320:__ZN24GenerateTypeTreeTransfer8TransferI4PPtrI6ObjectEEEvRT_PKc17TransferMetaFlags
2321:__ZN15SerializeTraitsI4PPtrI6ObjectEE8TransferI24GenerateTypeTreeTransferEEvRS2_RT_
2322:__ZN4PPtrI6ObjectE8TransferI24GenerateTypeTreeTransferEEvRT_
2323:__Z12TransferPPtrI24GenerateTypeTreeTransferEvRiRT_
2324:__ZN31LocalSerializedObjectIdentifierC2Ev
2325:__Zor17TransferMetaFlagsS_
2326:__ZN24GenerateTypeTreeTransfer8TransferIxEEvRT_PKc17TransferMetaFlags
2327:__ZN15SerializeTraitsIxE13GetTypeStringEPv
2328:__ZN31SerializeTraitsBaseForBasicTypeIxE8TransferI24GenerateTypeTreeTransferEEvRxRT_
2329:__ZN24GenerateTypeTreeTransfer17TransferBasicDataIxEEvRT_
2330:__ZN19SerializeTraitsBaseIxE11GetByteSizeEv
2331:__ZNK16TypeTreeIterator15GetWritableNodeER8TypeTree
2332:__ZNK21TypeTreeShareableData11GetWritableEm
2333:__ZNK13dynamic_arrayI12TypeTreeNodeLm0EEixEm
2334:__ZN15SerializeTraitsI13dynamic_arrayIN11UnityEngine9Animation14GenericBindingELm0EEE8TransferI24GenerateTypeTreeTransferEEvRS4_RT_
2335:__ZN24GenerateTypeTreeTransfer21TransferSTLStyleArrayI13dynamic_arrayIN11UnityEngine9Animation14GenericBindingELm0EEEEvRT_17TransferMetaFlags
2336:__ZN24GenerateTypeTreeTransfer32TransferSTLStyleArrayWithElementIN11UnityEngine9Animation14GenericBindingEEEvRT_17TransferMetaFlags
2337:__ZN24GenerateTypeTreeTransfer8TransferIN11UnityEngine9Animation14GenericBindingEEEvRT_PKc17TransferMetaFlags
2338:__ZN15SerializeTraitsIN11UnityEngine9Animation14GenericBindingEE8TransferI24GenerateTypeTreeTransferEEvRS2_RT_
2339:__ZN11UnityEngine9Animation14GenericBinding8TransferI24GenerateTypeTreeTransferEEvRT_
2340:__ZN24GenerateTypeTreeTransfer8TransferIjEEvRT_PKc17TransferMetaFlags
2341:__ZN24GenerateTypeTreeTransfer8TransferIPKN5Unity4TypeEEEvRT_PKc17TransferMetaFlags
2342:__ZN24GenerateTypeTreeTransfer8TransferIhEEvRT_PKc17TransferMetaFlags
2343:__ZN31SerializeTraitsBaseForBasicTypeIhE8TransferI24GenerateTypeTreeTransferEEvRhRT_
2344:__ZN24GenerateTypeTreeTransfer17TransferBasicDataIhEEvRT_
2345:__ZN15SerializeTraitsIPKN5Unity4TypeEE8TransferI24GenerateTypeTreeTransferEEvRS3_RT_
2346:__ZN24GenerateTypeTreeTransfer17TransferBasicDataIiEEvRT_
2347:__ZN15SerializeTraitsIjE13GetTypeStringEPv
2348:__ZN31SerializeTraitsBaseForBasicTypeIjE8TransferI24GenerateTypeTreeTransferEEvRjRT_
2349:__ZN24GenerateTypeTreeTransfer8TransferIN7mecanim9animation18ClipMuscleConstantEEEvRT_PKc17TransferMetaFlags
2350:__ZN15SerializeTraitsIN7mecanim9animation18ClipMuscleConstantEE8TransferI24GenerateTypeTreeTransferEEvRS2_RT_
2351:__ZN7mecanim9animation18ClipMuscleConstant8TransferI24GenerateTypeTreeTransferEEvRT_
2352:__ZN24GenerateTypeTreeTransfer8TransferIN7mecanim5human9HumanPoseEEEvRT_PKc17TransferMetaFlags
2353:__ZN24GenerateTypeTreeTransfer8TransferIN4math4trsXEEEvRT_PKc17TransferMetaFlags
2354:__ZN24GenerateTypeTreeTransfer8TransferIKN4math7_float3EEEvRT_PKc17TransferMetaFlags
2355:__ZN24GenerateTypeTreeTransfer8TransferI9OffsetPtrIN7mecanim9animation4ClipEEEEvRT_PKc17TransferMetaFlags
2356:__Z13TransferArrayILi200Ei24GenerateTypeTreeTransferEmRAT__T0_PKcRT1_
2357:__Z17TransferOffsetPtrI9OffsetPtrIN7mecanim9animation10ValueDeltaEE24GenerateTypeTreeTransferEvRT_PKcRjRT0_
2358:__Z17TransferOffsetPtrI9OffsetPtrIfE24GenerateTypeTreeTransferEvRT_PKcRjRT0_
2359:__ZN24GenerateTypeTreeTransfer8TransferI22OffsetPtrArrayTransferIfEEEvRT_PKc17TransferMetaFlags
2360:__ZN15SerializeTraitsI22OffsetPtrArrayTransferIfEE8TransferI24GenerateTypeTreeTransferEEvRS1_RT_
2361:__ZN24GenerateTypeTreeTransfer21TransferSTLStyleArrayI22OffsetPtrArrayTransferIfEEEvRT_17TransferMetaFlags
2362:__Z27default_construct_autolabelIfEvPT_RK10MemLabelId
2363:__ZN24GenerateTypeTreeTransfer32TransferSTLStyleArrayWithElementIfEEvRT_17TransferMetaFlags
2364:__ZN15AllocatorTraitsIfLb0EE9ConstructEPfRK10MemLabelId
2365:__ZN24GenerateTypeTreeTransfer8TransferI22OffsetPtrArrayTransferIN7mecanim9animation10ValueDeltaEEEEvRT_PKc17TransferMetaFlags
2366:__ZN15SerializeTraitsI22OffsetPtrArrayTransferIN7mecanim9animation10ValueDeltaEEE8TransferI24GenerateTypeTreeTransferEEvRS4_RT_
2367:__ZN24GenerateTypeTreeTransfer21TransferSTLStyleArrayI22OffsetPtrArrayTransferIN7mecanim9animation10ValueDeltaEEEEvRT_17TransferMetaFlags
2368:__Z27default_construct_autolabelIN7mecanim9animation10ValueDeltaEEvPT_RK10MemLabelId
2369:__ZN24GenerateTypeTreeTransfer32TransferSTLStyleArrayWithElementIN7mecanim9animation10ValueDeltaEEEvRT_17TransferMetaFlags
2370:__ZN24GenerateTypeTreeTransfer8TransferIN7mecanim9animation10ValueDeltaEEEvRT_PKc17TransferMetaFlags
2371:__ZN15SerializeTraitsIN7mecanim9animation10ValueDeltaEE8TransferI24GenerateTypeTreeTransferEEvRS2_RT_
2372:__ZN7mecanim9animation10ValueDelta8TransferI24GenerateTypeTreeTransferEEvRT_
2373:__ZN15AllocatorTraitsIN7mecanim9animation10ValueDeltaELb0EE9ConstructEPS2_RK10MemLabelId
2374:__ZN24GenerateTypeTreeTransfer8TransferI19StaticArrayTransferIiLi200EEEEvRT_PKc17TransferMetaFlags
2375:__ZN15SerializeTraitsI19StaticArrayTransferIiLi200EEE8TransferI24GenerateTypeTreeTransferEEvRS1_RT_
2376:__ZN24GenerateTypeTreeTransfer21TransferSTLStyleArrayI19StaticArrayTransferIiLi200EEEEvRT_17TransferMetaFlags
2377:__Z27default_construct_autolabelIiEvPT_RK10MemLabelId
2378:__ZN24GenerateTypeTreeTransfer32TransferSTLStyleArrayWithElementIiEEvRT_17TransferMetaFlags
2379:__ZN15AllocatorTraitsIiLb0EE9ConstructEPiRK10MemLabelId
2380:__ZN15SerializeTraitsI9OffsetPtrIN7mecanim9animation4ClipEEE8TransferI24GenerateTypeTreeTransferEEvRS4_RT_
2381:__ZN24GenerateTypeTreeTransfer8TransferIN7mecanim9animation4ClipEEEvRT_PKc17TransferMetaFlags
2382:__ZN15SerializeTraitsIN7mecanim9animation4ClipEE8TransferI24GenerateTypeTreeTransferEEvRS2_RT_
2383:__ZN7mecanim9animation4Clip8TransferI24GenerateTypeTreeTransferEEvRT_
2384:__ZN24GenerateTypeTreeTransfer8TransferIN7mecanim9animation12StreamedClipEEEvRT_PKc17TransferMetaFlags
2385:__ZN24GenerateTypeTreeTransfer8TransferIN7mecanim9animation9DenseClipEEEvRT_PKc17TransferMetaFlags
2386:__ZN24GenerateTypeTreeTransfer8TransferIN7mecanim9animation12ConstantClipEEEvRT_PKc17TransferMetaFlags
2387:__ZN15SerializeTraitsIN7mecanim9animation12ConstantClipEE8TransferI24GenerateTypeTreeTransferEEvRS2_RT_
2388:__ZN7mecanim9animation12ConstantClip8TransferI24GenerateTypeTreeTransferEEvRT_
2389:__ZN15SerializeTraitsIN7mecanim9animation9DenseClipEE8TransferI24GenerateTypeTreeTransferEEvRS2_RT_
2390:__ZN7mecanim9animation9DenseClip8TransferI24GenerateTypeTreeTransferEEvRT_
2391:__ZN15SerializeTraitsIN7mecanim9animation12StreamedClipEE8TransferI24GenerateTypeTreeTransferEEvRS2_RT_
2392:__ZN7mecanim9animation12StreamedClip8TransferI24GenerateTypeTreeTransferEEvRT_
2393:__Z17TransferOffsetPtrI9OffsetPtrIjE24GenerateTypeTreeTransferEvRT_PKcRjRT0_
2394:__ZN24GenerateTypeTreeTransfer8TransferI22OffsetPtrArrayTransferIjEEEvRT_PKc17TransferMetaFlags
2395:__ZN15SerializeTraitsI22OffsetPtrArrayTransferIjEE8TransferI24GenerateTypeTreeTransferEEvRS1_RT_
2396:__ZN24GenerateTypeTreeTransfer21TransferSTLStyleArrayI22OffsetPtrArrayTransferIjEEEvRT_17TransferMetaFlags
2397:__ZN24GenerateTypeTreeTransfer32TransferSTLStyleArrayWithElementIjEEvRT_17TransferMetaFlags
2398:__ZN15SerializeTraitsIKN4math7_float3EE8TransferI24GenerateTypeTreeTransferEEvRS2_RT_
2399:__ZN24GenerateTypeTreeTransfer11AddMetaFlagE17TransferMetaFlags
2400:__ZN15SerializeTraitsIN7mecanim5human9HumanPoseEE8TransferI24GenerateTypeTreeTransferEEvRS2_RT_
2401:__ZN7mecanim5human9HumanPose8TransferI24GenerateTypeTreeTransferEEvRT_
2402:__ZN24GenerateTypeTreeTransfer8TransferIKN4math7_float4EEEvRT_PKc17TransferMetaFlags
2403:__Z13TransferArrayILi4EN7mecanim5human9HumanGoalE24GenerateTypeTreeTransferEmRAT__T0_PKcRT1_
2404:__ZN24GenerateTypeTreeTransfer8TransferIN7mecanim4hand8HandPoseEEEvRT_PKc17TransferMetaFlags
2405:__Z13TransferArrayILi55Ef24GenerateTypeTreeTransferEmRAT__T0_PKcRT1_
2406:__Z13TransferArrayILi21EKN4math7_float3E24GenerateTypeTreeTransferEmRAT__T0_PKcRT1_
2407:__ZN24GenerateTypeTreeTransfer8TransferI19StaticArrayTransferIKN4math7_float3ELi21EEEEvRT_PKc17TransferMetaFlags
2408:__ZN15SerializeTraitsI19StaticArrayTransferIKN4math7_float3ELi21EEE8TransferI24GenerateTypeTreeTransferEEvRS4_RT_
2409:__ZN24GenerateTypeTreeTransfer21TransferSTLStyleArrayI19StaticArrayTransferIKN4math7_float3ELi21EEEEvRT_17TransferMetaFlags
2410:__Z27default_construct_autolabelIKN4math7_float3EEvPT_RK10MemLabelId
2411:__ZN24GenerateTypeTreeTransfer32TransferSTLStyleArrayWithElementIKN4math7_float3EEEvRT_17TransferMetaFlags
2412:__ZN15AllocatorTraitsIKN4math7_float3ELb0EE9ConstructEPS2_RK10MemLabelId
2413:__ZN24GenerateTypeTreeTransfer8TransferI19StaticArrayTransferIfLi55EEEEvRT_PKc17TransferMetaFlags
2414:__ZN15SerializeTraitsI19StaticArrayTransferIfLi55EEE8TransferI24GenerateTypeTreeTransferEEvRS1_RT_
2415:__ZN15SerializeTraitsIN7mecanim4hand8HandPoseEE8TransferI24GenerateTypeTreeTransferEEvRS2_RT_
2416:__ZN7mecanim4hand8HandPose8TransferI24GenerateTypeTreeTransferEEvRT_
2417:__Z13TransferArrayILi20Ef24GenerateTypeTreeTransferEmRAT__T0_PKcRT1_
2418:__ZN24GenerateTypeTreeTransfer8TransferI19StaticArrayTransferIN7mecanim5human9HumanGoalELi4EEEEvRT_PKc17TransferMetaFlags
2419:__ZN15SerializeTraitsI19StaticArrayTransferIN7mecanim5human9HumanGoalELi4EEE8TransferI24GenerateTypeTreeTransferEEvRS4_RT_
2420:__ZN24GenerateTypeTreeTransfer21TransferSTLStyleArrayI19StaticArrayTransferIN7mecanim5human9HumanGoalELi4EEEEvRT_17TransferMetaFlags
2421:__Z27default_construct_autolabelIN7mecanim5human9HumanGoalEEvPT_RK10MemLabelId
2422:__ZN24GenerateTypeTreeTransfer32TransferSTLStyleArrayWithElementIN7mecanim5human9HumanGoalEEEvRT_17TransferMetaFlags
2423:__ZN24GenerateTypeTreeTransfer8TransferIN7mecanim5human9HumanGoalEEEvRT_PKc17TransferMetaFlags
2424:__ZN15SerializeTraitsIN7mecanim5human9HumanGoalEE8TransferI24GenerateTypeTreeTransferEEvRS2_RT_
2425:__ZN7mecanim5human9HumanGoal8TransferI24GenerateTypeTreeTransferEEvRT_
2426:__ZN15AllocatorTraitsIN7mecanim5human9HumanGoalELb0EE9ConstructEPS2_RK10MemLabelId
2427:__ZN7mecanim5human9HumanGoalC2Ev
2428:__ZN15SerializeTraitsI4AABBE8TransferI24GenerateTypeTreeTransferEEvRS0_RT_
2429:__ZN4AABB8TransferI24GenerateTypeTreeTransferEEvRT_
2430:__ZN24GenerateTypeTreeTransfer8TransferI8Vector3fEEvRT_PKc17TransferMetaFlags
2431:__ZN15SerializeTraitsI8Vector3fE8TransferI24GenerateTypeTreeTransferEEvRS0_RT_
2432:__ZN8Vector3f8TransferI24GenerateTypeTreeTransferEEvRT_
2433:__ZN15SerializeTraitsINSt3__26vectorIN13AnimationClip9PPtrCurveE13stl_allocatorIS3_L18MemLabelIdentifier30ELi16EEEEE8TransferI24GenerateTypeTreeTransferEEvRS7_RT_
2434:__ZN24GenerateTypeTreeTransfer21TransferSTLStyleArrayINSt3__26vectorIN13AnimationClip9PPtrCurveE13stl_allocatorIS4_L18MemLabelIdentifier30ELi16EEEEEEvRT_17TransferMetaFlags
2435:__Z27default_construct_autolabelIN13AnimationClip9PPtrCurveEEvPT_RK10MemLabelId
2436:__ZN24GenerateTypeTreeTransfer32TransferSTLStyleArrayWithElementIN13AnimationClip9PPtrCurveEEEvRT_17TransferMetaFlags
2437:__Z8destructIN13AnimationClip9PPtrCurveEEvPT_
2438:__ZN17destruct_internalILb0EE8destructIN13AnimationClip9PPtrCurveEEEvPT_
2439:__ZN24GenerateTypeTreeTransfer8TransferIN13AnimationClip9PPtrCurveEEEvRT_PKc17TransferMetaFlags
2440:__ZN15SerializeTraitsIN13AnimationClip9PPtrCurveEE8TransferI24GenerateTypeTreeTransferEEvRS1_RT_
2441:__ZN13AnimationClip9PPtrCurve8TransferI24GenerateTypeTreeTransferEEvRT_
2442:__ZN24GenerateTypeTreeTransfer8TransferI13dynamic_arrayI12PPtrKeyframeLm0EEEEvRT_PKc17TransferMetaFlags
2443:__ZN24GenerateTypeTreeTransfer8TransferIN4core12basic_stringIcNS1_20StringStorageDefaultIcEEEEEEvRT_PKc17TransferMetaFlags
2444:__ZN24GenerateTypeTreeTransfer8TransferI4PPtrI10MonoScriptEEEvRT_PKc17TransferMetaFlags
2445:__ZN29SerializeTraitsForStringTypesIN4core12basic_stringIcNS0_20StringStorageDefaultIcEEEEE8TransferI24GenerateTypeTreeTransferEEvRS4_RT_
2446:__ZN24GenerateTypeTreeTransfer21TransferSTLStyleArrayIN4core12basic_stringIcNS1_20StringStorageDefaultIcEEEEEEvRT_17TransferMetaFlags
2447:__Z27default_construct_autolabelIcEvPT_RK10MemLabelId
2448:__ZN24GenerateTypeTreeTransfer32TransferSTLStyleArrayWithElementIcEEvRT_17TransferMetaFlags
2449:__ZN24GenerateTypeTreeTransfer8TransferIcEEvRT_PKc17TransferMetaFlags
2450:__ZN15SerializeTraitsIcE13GetTypeStringEPv
2451:__ZN15AllocatorTraitsIcLb0EE9ConstructEPcRK10MemLabelId
2452:__ZN15SerializeTraitsI13dynamic_arrayI12PPtrKeyframeLm0EEE8TransferI24GenerateTypeTreeTransferEEvRS2_RT_
2453:__ZN24GenerateTypeTreeTransfer21TransferSTLStyleArrayI13dynamic_arrayI12PPtrKeyframeLm0EEEEvRT_17TransferMetaFlags
2454:__ZN24GenerateTypeTreeTransfer32TransferSTLStyleArrayWithElementI12PPtrKeyframeEEvRT_17TransferMetaFlags
2455:__ZN24GenerateTypeTreeTransfer8TransferI12PPtrKeyframeEEvRT_PKc17TransferMetaFlags
2456:__ZN15SerializeTraitsI12PPtrKeyframeE8TransferI24GenerateTypeTreeTransferEEvRS0_RT_
2457:__ZN12PPtrKeyframe8TransferI24GenerateTypeTreeTransferEEvRT_
2458:__ZN15AllocatorTraitsIN13AnimationClip9PPtrCurveELb0EE9ConstructEPS1_RK10MemLabelId
2459:__ZN15SerializeTraitsINSt3__26vectorIN13AnimationClip10FloatCurveE13stl_allocatorIS3_L18MemLabelIdentifier30ELi16EEEEE8TransferI24GenerateTypeTreeTransferEEvRS7_RT_
2460:__ZN24GenerateTypeTreeTransfer21TransferSTLStyleArrayINSt3__26vectorIN13AnimationClip10FloatCurveE13stl_allocatorIS4_L18MemLabelIdentifier30ELi16EEEEEEvRT_17TransferMetaFlags
2461:__Z27default_construct_autolabelIN13AnimationClip10FloatCurveEEvPT_RK10MemLabelId
2462:__ZN24GenerateTypeTreeTransfer32TransferSTLStyleArrayWithElementIN13AnimationClip10FloatCurveEEEvRT_17TransferMetaFlags
2463:__Z8destructIN13AnimationClip10FloatCurveEEvPT_
2464:__ZN17destruct_internalILb0EE8destructIN13AnimationClip10FloatCurveEEEvPT_
2465:__ZN24GenerateTypeTreeTransfer8TransferIN13AnimationClip10FloatCurveEEEvRT_PKc17TransferMetaFlags
2466:__ZN15SerializeTraitsIN13AnimationClip10FloatCurveEE8TransferI24GenerateTypeTreeTransferEEvRS1_RT_
2467:__ZN13AnimationClip10FloatCurve8TransferI24GenerateTypeTreeTransferEEvRT_
2468:__ZN24GenerateTypeTreeTransfer8TransferI17AnimationCurveTplIfEEEvRT_PKc17TransferMetaFlags
2469:__ZN15SerializeTraitsI17AnimationCurveTplIfEE8TransferI24GenerateTypeTreeTransferEEvRS1_RT_
2470:__ZN17AnimationCurveTplIfE8TransferI24GenerateTypeTreeTransferEEvRT_
2471:__ZN24GenerateTypeTreeTransfer8TransferI13dynamic_arrayI11KeyframeTplIfELm0EEEEvRT_PKc17TransferMetaFlags
2472:__ZN15SerializeTraitsI13dynamic_arrayI11KeyframeTplIfELm0EEE8TransferI24GenerateTypeTreeTransferEEvRS3_RT_
2473:__ZN24GenerateTypeTreeTransfer21TransferSTLStyleArrayI13dynamic_arrayI11KeyframeTplIfELm0EEEEvRT_17TransferMetaFlags
2474:__ZN24GenerateTypeTreeTransfer32TransferSTLStyleArrayWithElementI11KeyframeTplIfEEEvRT_17TransferMetaFlags
2475:__ZN24GenerateTypeTreeTransfer8TransferI11KeyframeTplIfEEEvRT_PKc17TransferMetaFlags
2476:__ZN15SerializeTraitsI11KeyframeTplIfEE8TransferI24GenerateTypeTreeTransferEEvRS1_RT_
2477:__ZN11KeyframeTplIfE8TransferI24GenerateTypeTreeTransferEEvRT_
2478:__ZN15AllocatorTraitsIN13AnimationClip10FloatCurveELb0EE9ConstructEPS1_RK10MemLabelId
2479:__ZN15SerializeTraitsINSt3__26vectorIN13AnimationClip12Vector3CurveE13stl_allocatorIS3_L18MemLabelIdentifier30ELi16EEEEE8TransferI24GenerateTypeTreeTransferEEvRS7_RT_
2480:__ZN24GenerateTypeTreeTransfer21TransferSTLStyleArrayINSt3__26vectorIN13AnimationClip12Vector3CurveE13stl_allocatorIS4_L18MemLabelIdentifier30ELi16EEEEEEvRT_17TransferMetaFlags
2481:__Z27default_construct_autolabelIN13AnimationClip12Vector3CurveEEvPT_RK10MemLabelId
2482:__ZN24GenerateTypeTreeTransfer32TransferSTLStyleArrayWithElementIN13AnimationClip12Vector3CurveEEEvRT_17TransferMetaFlags
2483:__Z8destructIN13AnimationClip12Vector3CurveEEvPT_
2484:__ZN17destruct_internalILb0EE8destructIN13AnimationClip12Vector3CurveEEEvPT_
2485:__ZN24GenerateTypeTreeTransfer8TransferIN13AnimationClip12Vector3CurveEEEvRT_PKc17TransferMetaFlags
2486:__ZN15SerializeTraitsIN13AnimationClip12Vector3CurveEE8TransferI24GenerateTypeTreeTransferEEvRS1_RT_
2487:__ZN13AnimationClip12Vector3Curve8TransferI24GenerateTypeTreeTransferEEvRT_
2488:__ZN24GenerateTypeTreeTransfer8TransferI17AnimationCurveTplI8Vector3fEEEvRT_PKc17TransferMetaFlags
2489:__ZN15SerializeTraitsI17AnimationCurveTplI8Vector3fEE8TransferI24GenerateTypeTreeTransferEEvRS2_RT_
2490:__ZN17AnimationCurveTplI8Vector3fE8TransferI24GenerateTypeTreeTransferEEvRT_
2491:__ZN24GenerateTypeTreeTransfer8TransferI13dynamic_arrayI11KeyframeTplI8Vector3fELm0EEEEvRT_PKc17TransferMetaFlags
2492:__ZN15SerializeTraitsI13dynamic_arrayI11KeyframeTplI8Vector3fELm0EEE8TransferI24GenerateTypeTreeTransferEEvRS4_RT_
2493:__ZN24GenerateTypeTreeTransfer21TransferSTLStyleArrayI13dynamic_arrayI11KeyframeTplI8Vector3fELm0EEEEvRT_17TransferMetaFlags
2494:__ZN24GenerateTypeTreeTransfer32TransferSTLStyleArrayWithElementI11KeyframeTplI8Vector3fEEEvRT_17TransferMetaFlags
2495:__ZN24GenerateTypeTreeTransfer8TransferI11KeyframeTplI8Vector3fEEEvRT_PKc17TransferMetaFlags
2496:__ZN15SerializeTraitsI11KeyframeTplI8Vector3fEE8TransferI24GenerateTypeTreeTransferEEvRS2_RT_
2497:__ZN11KeyframeTplI8Vector3fE8TransferI24GenerateTypeTreeTransferEEvRT_
2498:__ZN15AllocatorTraitsIN13AnimationClip12Vector3CurveELb0EE9ConstructEPS1_RK10MemLabelId
2499:__ZN15SerializeTraitsINSt3__26vectorI24CompressedAnimationCurve13stl_allocatorIS2_L18MemLabelIdentifier30ELi16EEEEE8TransferI24GenerateTypeTreeTransferEEvRS6_RT_
2500:__ZN24GenerateTypeTreeTransfer21TransferSTLStyleArrayINSt3__26vectorI24CompressedAnimationCurve13stl_allocatorIS3_L18MemLabelIdentifier30ELi16EEEEEEvRT_17TransferMetaFlags
2501:__Z27default_construct_autolabelI24CompressedAnimationCurveEvPT_RK10MemLabelId
2502:__ZN24GenerateTypeTreeTransfer32TransferSTLStyleArrayWithElementI24CompressedAnimationCurveEEvRT_17TransferMetaFlags
2503:__Z8destructI24CompressedAnimationCurveEvPT_
2504:__ZN17destruct_internalILb0EE8destructI24CompressedAnimationCurveEEvPT_
2505:__ZN24GenerateTypeTreeTransfer8TransferI24CompressedAnimationCurveEEvRT_PKc17TransferMetaFlags
2506:__ZN15SerializeTraitsI24CompressedAnimationCurveE8TransferI24GenerateTypeTreeTransferEEvRS0_RT_
2507:__ZN24CompressedAnimationCurve8TransferI24GenerateTypeTreeTransferEEvRT_
2508:__ZN24GenerateTypeTreeTransfer8TransferI15PackedIntVectorEEvRT_PKc17TransferMetaFlags
2509:__ZN24GenerateTypeTreeTransfer8TransferI16PackedQuatVectorEEvRT_PKc17TransferMetaFlags
2510:__ZN24GenerateTypeTreeTransfer8TransferI17PackedFloatVectorEEvRT_PKc17TransferMetaFlags
2511:__ZN15SerializeTraitsI17PackedFloatVectorE8TransferI24GenerateTypeTreeTransferEEvRS0_RT_
2512:__ZN17PackedFloatVector8TransferI24GenerateTypeTreeTransferEEvRT_
2513:__ZN24GenerateTypeTreeTransfer8TransferI13dynamic_arrayIhLm0EEEEvRT_PKc17TransferMetaFlags
2514:__ZN15SerializeTraitsI13dynamic_arrayIhLm0EEE8TransferI24GenerateTypeTreeTransferEEvRS1_RT_
2515:__ZN24GenerateTypeTreeTransfer21TransferSTLStyleArrayI13dynamic_arrayIhLm0EEEEvRT_17TransferMetaFlags
2516:__ZN24GenerateTypeTreeTransfer32TransferSTLStyleArrayWithElementIhEEvRT_17TransferMetaFlags
2517:__ZN15SerializeTraitsI16PackedQuatVectorE8TransferI24GenerateTypeTreeTransferEEvRS0_RT_
2518:__ZN16PackedQuatVector8TransferI24GenerateTypeTreeTransferEEvRT_
2519:__ZN15SerializeTraitsI15PackedIntVectorE8TransferI24GenerateTypeTreeTransferEEvRS0_RT_
2520:__ZN15PackedIntVector8TransferI24GenerateTypeTreeTransferEEvRT_
2521:__ZN15AllocatorTraitsI24CompressedAnimationCurveLb0EE9ConstructEPS0_RK10MemLabelId
2522:__ZN15SerializeTraitsINSt3__26vectorIN13AnimationClip15QuaternionCurveE13stl_allocatorIS3_L18MemLabelIdentifier30ELi16EEEEE8TransferI24GenerateTypeTreeTransferEEvRS7_RT_
2523:__ZN24GenerateTypeTreeTransfer21TransferSTLStyleArrayINSt3__26vectorIN13AnimationClip15QuaternionCurveE13stl_allocatorIS4_L18MemLabelIdentifier30ELi16EEEEEEvRT_17TransferMetaFlags
2524:__Z27default_construct_autolabelIN13AnimationClip15QuaternionCurveEEvPT_RK10MemLabelId
2525:__ZN24GenerateTypeTreeTransfer32TransferSTLStyleArrayWithElementIN13AnimationClip15QuaternionCurveEEEvRT_17TransferMetaFlags
2526:__Z8destructIN13AnimationClip15QuaternionCurveEEvPT_
2527:__ZN17destruct_internalILb0EE8destructIN13AnimationClip15QuaternionCurveEEEvPT_
2528:__ZN24GenerateTypeTreeTransfer8TransferIN13AnimationClip15QuaternionCurveEEEvRT_PKc17TransferMetaFlags
2529:__ZN15SerializeTraitsIN13AnimationClip15QuaternionCurveEE8TransferI24GenerateTypeTreeTransferEEvRS1_RT_
2530:__ZN13AnimationClip15QuaternionCurve8TransferI24GenerateTypeTreeTransferEEvRT_
2531:__ZN24GenerateTypeTreeTransfer8TransferI17AnimationCurveTplI11QuaternionfEEEvRT_PKc17TransferMetaFlags
2532:__ZN15SerializeTraitsI17AnimationCurveTplI11QuaternionfEE8TransferI24GenerateTypeTreeTransferEEvRS2_RT_
2533:__ZN17AnimationCurveTplI11QuaternionfE8TransferI24GenerateTypeTreeTransferEEvRT_
2534:__ZN24GenerateTypeTreeTransfer8TransferI13dynamic_arrayI11KeyframeTplI11QuaternionfELm0EEEEvRT_PKc17TransferMetaFlags
2535:__ZN15SerializeTraitsI13dynamic_arrayI11KeyframeTplI11QuaternionfELm0EEE8TransferI24GenerateTypeTreeTransferEEvRS4_RT_
2536:__ZN24GenerateTypeTreeTransfer21TransferSTLStyleArrayI13dynamic_arrayI11KeyframeTplI11QuaternionfELm0EEEEvRT_17TransferMetaFlags
2537:__ZN24GenerateTypeTreeTransfer32TransferSTLStyleArrayWithElementI11KeyframeTplI11QuaternionfEEEvRT_17TransferMetaFlags
2538:__ZN24GenerateTypeTreeTransfer8TransferI11KeyframeTplI11QuaternionfEEEvRT_PKc17TransferMetaFlags
2539:__ZN15SerializeTraitsI11KeyframeTplI11QuaternionfEE8TransferI24GenerateTypeTreeTransferEEvRS2_RT_
2540:__ZN11KeyframeTplI11QuaternionfE8TransferI24GenerateTypeTreeTransferEEvRT_
2541:__ZN24GenerateTypeTreeTransfer8TransferI11QuaternionfEEvRT_PKc17TransferMetaFlags
2542:__ZN15SerializeTraitsI11QuaternionfE8TransferI24GenerateTypeTreeTransferEEvRS0_RT_
2543:__ZN15AllocatorTraitsIN13AnimationClip15QuaternionCurveELb0EE9ConstructEPS1_RK10MemLabelId
2544:__ZN15SerializeTraitsIbE8TransferI24GenerateTypeTreeTransferEEvRbRT_
2545:__ZN17RemapPPtrTransfer12TransferBaseI13AnimationClipEEvRT_17TransferMetaFlags
2546:__ZN17RemapPPtrTransfer8TransferI13AnimationClipEEvRT_PKc17TransferMetaFlags
2547:__ZN17RemapPPtrTransfer32GetNewInstanceIDforOldInstanceIDEi
2548:__ZNK18ScriptingObjectPtrneERK19ScriptingObjectNull
2549:__ZN15SerializeTraitsI13AnimationClipE8TransferI17RemapPPtrTransferEEvRS0_RT_
2550:__ZN13AnimationClip8TransferI17RemapPPtrTransferEEvRT_
2551:__ZN17RemapPPtrTransfer8TransferIbEEvRT_PKc17TransferMetaFlags
2552:__ZN17RemapPPtrTransfer8TransferINSt3__26vectorIN13AnimationClip15QuaternionCurveE13stl_allocatorIS4_L18MemLabelIdentifier30ELi16EEEEEEvRT_PKc17TransferMetaFlags
2553:__ZN17RemapPPtrTransfer8TransferINSt3__26vectorI24CompressedAnimationCurve13stl_allocatorIS3_L18MemLabelIdentifier30ELi16EEEEEEvRT_PKc17TransferMetaFlags
2554:__ZN17RemapPPtrTransfer8TransferINSt3__26vectorIN13AnimationClip12Vector3CurveE13stl_allocatorIS4_L18MemLabelIdentifier30ELi16EEEEEEvRT_PKc17TransferMetaFlags
2555:__ZN17RemapPPtrTransfer8TransferINSt3__26vectorIN13AnimationClip10FloatCurveE13stl_allocatorIS4_L18MemLabelIdentifier30ELi16EEEEEEvRT_PKc17TransferMetaFlags
2556:__ZN17RemapPPtrTransfer8TransferINSt3__26vectorIN13AnimationClip9PPtrCurveE13stl_allocatorIS4_L18MemLabelIdentifier30ELi16EEEEEEvRT_PKc17TransferMetaFlags
2557:__ZN17RemapPPtrTransfer8TransferIfEEvRT_PKc17TransferMetaFlags
2558:__Z32TransferEnumWithNameForceIntSizeI17RemapPPtrTransfer8WrapModeEvRT_RT0_PKc17TransferMetaFlags
2559:__ZN17RemapPPtrTransfer8TransferI4AABBEEvRT_PKc17TransferMetaFlags
2560:__Z21TransferBlobSerializeIN7mecanim9animation18ClipMuscleConstantE17RemapPPtrTransferEvRPT_PKcRjS8_RT0_
2561:__ZN17RemapPPtrTransfer8TransferIN11UnityEngine9Animation28AnimationClipBindingConstantEEEvRT_PKc17TransferMetaFlags
2562:__ZN17RemapPPtrTransfer8TransferINSt3__26vectorI14AnimationEvent13stl_allocatorIS3_L18MemLabelIdentifier30ELi16EEEEEEvRT_PKc17TransferMetaFlags
2563:__ZN15SerializeTraitsINSt3__26vectorI14AnimationEvent13stl_allocatorIS2_L18MemLabelIdentifier30ELi16EEEEE8TransferI17RemapPPtrTransferEEvRS6_RT_
2564:__ZN17RemapPPtrTransfer21TransferSTLStyleArrayINSt3__26vectorI14AnimationEvent13stl_allocatorIS3_L18MemLabelIdentifier30ELi16EEEEEEvRT_17TransferMetaFlags
2565:__ZN17RemapPPtrTransfer8TransferI14AnimationEventEEvRT_PKc17TransferMetaFlags
2566:__ZN15SerializeTraitsI14AnimationEventE8TransferI17RemapPPtrTransferEEvRS0_RT_
2567:__ZN14AnimationEvent8TransferI17RemapPPtrTransferEEvRT_
2568:__ZN15SerializeTraitsIN11UnityEngine9Animation28AnimationClipBindingConstantEE8TransferI17RemapPPtrTransferEEvRS2_RT_
2569:__ZN11UnityEngine9Animation28AnimationClipBindingConstant8TransferI17RemapPPtrTransferEEvRT_
2570:__ZN17RemapPPtrTransfer8TransferI13dynamic_arrayIN11UnityEngine9Animation14GenericBindingELm0EEEEvRT_PKc17TransferMetaFlags
2571:__ZN17RemapPPtrTransfer8TransferI13dynamic_arrayI4PPtrI6ObjectELm0EEEEvRT_PKc17TransferMetaFlags
2572:__ZN15SerializeTraitsI13dynamic_arrayI4PPtrI6ObjectELm0EEE8TransferI17RemapPPtrTransferEEvRS4_RT_
2573:__ZN17RemapPPtrTransfer21TransferSTLStyleArrayI13dynamic_arrayI4PPtrI6ObjectELm0EEEEvRT_17TransferMetaFlags
2574:__ZN17RemapPPtrTransfer8TransferI4PPtrI6ObjectEEEvRT_PKc17TransferMetaFlags
2575:__ZN15RemapPPtrTraitsI4PPtrI6ObjectEE19SetInstanceIDOfPPtrERS2_i
2576:__ZN15SerializeTraitsI4PPtrI6ObjectEE8TransferI17RemapPPtrTransferEEvRS2_RT_
2577:__ZN4PPtrI6ObjectE8TransferI17RemapPPtrTransferEEvRT_
2578:__Z12TransferPPtrI17RemapPPtrTransferEvRiRT_
2579:__ZN31SerializeTraitsBaseForBasicTypeIxE8TransferI17RemapPPtrTransferEEvRxRT_
2580:__ZN15SerializeTraitsI13dynamic_arrayIN11UnityEngine9Animation14GenericBindingELm0EEE8TransferI17RemapPPtrTransferEEvRS4_RT_
2581:__ZN17RemapPPtrTransfer21TransferSTLStyleArrayI13dynamic_arrayIN11UnityEngine9Animation14GenericBindingELm0EEEEvRT_17TransferMetaFlags
2582:__ZN17RemapPPtrTransfer8TransferIN11UnityEngine9Animation14GenericBindingEEEvRT_PKc17TransferMetaFlags
2583:__ZN15SerializeTraitsIN11UnityEngine9Animation14GenericBindingEE8TransferI17RemapPPtrTransferEEvRS2_RT_
2584:__ZN11UnityEngine9Animation14GenericBinding8TransferI17RemapPPtrTransferEEvRT_
2585:__ZN17RemapPPtrTransfer8TransferIPKN5Unity4TypeEEEvRT_PKc17TransferMetaFlags
2586:__ZN15SerializeTraitsIPKN5Unity4TypeEE8TransferI17RemapPPtrTransferEEvRS3_RT_
2587:__ZN17RemapPPtrTransfer8TransferIN7mecanim9animation18ClipMuscleConstantEEEvRT_PKc17TransferMetaFlags
2588:__ZN15SerializeTraitsIN7mecanim9animation18ClipMuscleConstantEE8TransferI17RemapPPtrTransferEEvRS2_RT_
2589:__ZN7mecanim9animation18ClipMuscleConstant8TransferI17RemapPPtrTransferEEvRT_
2590:__ZN17RemapPPtrTransfer8TransferIN7mecanim5human9HumanPoseEEEvRT_PKc17TransferMetaFlags
2591:__ZN17RemapPPtrTransfer8TransferIN4math4trsXEEEvRT_PKc17TransferMetaFlags
2592:__ZN17RemapPPtrTransfer8TransferIKN4math7_float3EEEvRT_PKc17TransferMetaFlags
2593:__ZN17RemapPPtrTransfer8TransferI9OffsetPtrIN7mecanim9animation4ClipEEEEvRT_PKc17TransferMetaFlags
2594:__Z13TransferArrayILi200Ei17RemapPPtrTransferEmRAT__T0_PKcRT1_
2595:__Z17TransferOffsetPtrI9OffsetPtrIN7mecanim9animation10ValueDeltaEE17RemapPPtrTransferEvRT_PKcRjRT0_
2596:__Z17TransferOffsetPtrI9OffsetPtrIfE17RemapPPtrTransferEvRT_PKcRjRT0_
2597:__ZN17RemapPPtrTransfer8TransferI22OffsetPtrArrayTransferIfEEEvRT_PKc17TransferMetaFlags
2598:__ZN15SerializeTraitsI22OffsetPtrArrayTransferIfEE16MightContainPPtrEv
2599:__ZN15SerializeTraitsI22OffsetPtrArrayTransferIfEE8TransferI17RemapPPtrTransferEEvRS1_RT_
2600:__ZN17RemapPPtrTransfer21TransferSTLStyleArrayI22OffsetPtrArrayTransferIfEEEvRT_17TransferMetaFlags
2601:__ZN22OffsetPtrArrayTransferIfE3endEv
2602:__ZN17RemapPPtrTransfer8TransferI22OffsetPtrArrayTransferIN7mecanim9animation10ValueDeltaEEEEvRT_PKc17TransferMetaFlags
2603:__ZN15SerializeTraitsI22OffsetPtrArrayTransferIN7mecanim9animation10ValueDeltaEEE8TransferI17RemapPPtrTransferEEvRS4_RT_
2604:__ZN17RemapPPtrTransfer21TransferSTLStyleArrayI22OffsetPtrArrayTransferIN7mecanim9animation10ValueDeltaEEEEvRT_17TransferMetaFlags
2605:__ZN17RemapPPtrTransfer8TransferIN7mecanim9animation10ValueDeltaEEEvRT_PKc17TransferMetaFlags
2606:__ZN15SerializeTraitsIN7mecanim9animation10ValueDeltaEE8TransferI17RemapPPtrTransferEEvRS2_RT_
2607:__ZN7mecanim9animation10ValueDelta8TransferI17RemapPPtrTransferEEvRT_
2608:__ZN17RemapPPtrTransfer8TransferI19StaticArrayTransferIiLi200EEEEvRT_PKc17TransferMetaFlags
2609:__ZN15SerializeTraitsI19StaticArrayTransferIiLi200EEE8TransferI17RemapPPtrTransferEEvRS1_RT_
2610:__ZN17RemapPPtrTransfer21TransferSTLStyleArrayI19StaticArrayTransferIiLi200EEEEvRT_17TransferMetaFlags
2611:__ZN15SerializeTraitsI9OffsetPtrIN7mecanim9animation4ClipEEE8TransferI17RemapPPtrTransferEEvRS4_RT_
2612:__ZN17RemapPPtrTransfer8TransferIN7mecanim9animation4ClipEEEvRT_PKc17TransferMetaFlags
2613:__ZN15SerializeTraitsIN7mecanim9animation4ClipEE8TransferI17RemapPPtrTransferEEvRS2_RT_
2614:__ZN7mecanim9animation4Clip8TransferI17RemapPPtrTransferEEvRT_
2615:__ZN17RemapPPtrTransfer8TransferIN7mecanim9animation12StreamedClipEEEvRT_PKc17TransferMetaFlags
2616:__ZN17RemapPPtrTransfer8TransferIN7mecanim9animation9DenseClipEEEvRT_PKc17TransferMetaFlags
2617:__ZN17RemapPPtrTransfer8TransferIN7mecanim9animation12ConstantClipEEEvRT_PKc17TransferMetaFlags
2618:__ZN15SerializeTraitsIN7mecanim9animation12ConstantClipEE8TransferI17RemapPPtrTransferEEvRS2_RT_
2619:__ZN7mecanim9animation12ConstantClip8TransferI17RemapPPtrTransferEEvRT_
2620:__ZN15SerializeTraitsIN7mecanim9animation9DenseClipEE8TransferI17RemapPPtrTransferEEvRS2_RT_
2621:__ZN7mecanim9animation9DenseClip8TransferI17RemapPPtrTransferEEvRT_
2622:__ZN15SerializeTraitsIN7mecanim9animation12StreamedClipEE8TransferI17RemapPPtrTransferEEvRS2_RT_
2623:__ZN7mecanim9animation12StreamedClip8TransferI17RemapPPtrTransferEEvRT_
2624:__ZN15SerializeTraitsIKN4math7_float3EE8TransferI17RemapPPtrTransferEEvRS2_RT_
2625:__ZN15SerializeTraitsIN4math4trsXEE8TransferI17RemapPPtrTransferEEvRS1_RT_
2626:__ZN17RemapPPtrTransfer8TransferIKN4math7_float4EEEvRT_PKc17TransferMetaFlags
2627:__ZN15SerializeTraitsIKN4math7_float4EE8TransferI17RemapPPtrTransferEEvRS2_RT_
2628:__ZN15SerializeTraitsIN7mecanim5human9HumanPoseEE8TransferI17RemapPPtrTransferEEvRS2_RT_
2629:__ZN7mecanim5human9HumanPose8TransferI17RemapPPtrTransferEEvRT_
2630:__Z13TransferArrayILi4EN7mecanim5human9HumanGoalE17RemapPPtrTransferEmRAT__T0_PKcRT1_
2631:__ZN17RemapPPtrTransfer8TransferIN7mecanim4hand8HandPoseEEEvRT_PKc17TransferMetaFlags
2632:__Z13TransferArrayILi55Ef17RemapPPtrTransferEmRAT__T0_PKcRT1_
2633:__Z13TransferArrayILi21EKN4math7_float3E17RemapPPtrTransferEmRAT__T0_PKcRT1_
2634:__ZN17RemapPPtrTransfer8TransferI19StaticArrayTransferIKN4math7_float3ELi21EEEEvRT_PKc17TransferMetaFlags
2635:__ZN15SerializeTraitsI19StaticArrayTransferIKN4math7_float3ELi21EEE8TransferI17RemapPPtrTransferEEvRS4_RT_
2636:__ZN17RemapPPtrTransfer21TransferSTLStyleArrayI19StaticArrayTransferIKN4math7_float3ELi21EEEEvRT_17TransferMetaFlags
2637:__ZN15SerializeTraitsIN7mecanim4hand8HandPoseEE8TransferI17RemapPPtrTransferEEvRS2_RT_
2638:__ZN7mecanim4hand8HandPose8TransferI17RemapPPtrTransferEEvRT_
2639:__Z13TransferArrayILi20Ef17RemapPPtrTransferEmRAT__T0_PKcRT1_
2640:__ZN17RemapPPtrTransfer8TransferI19StaticArrayTransferIN7mecanim5human9HumanGoalELi4EEEEvRT_PKc17TransferMetaFlags
2641:__ZN15SerializeTraitsI19StaticArrayTransferIN7mecanim5human9HumanGoalELi4EEE8TransferI17RemapPPtrTransferEEvRS4_RT_
2642:__ZN17RemapPPtrTransfer21TransferSTLStyleArrayI19StaticArrayTransferIN7mecanim5human9HumanGoalELi4EEEEvRT_17TransferMetaFlags
2643:__ZN17RemapPPtrTransfer8TransferIN7mecanim5human9HumanGoalEEEvRT_PKc17TransferMetaFlags
2644:__ZN15SerializeTraitsIN7mecanim5human9HumanGoalEE8TransferI17RemapPPtrTransferEEvRS2_RT_
2645:__ZN7mecanim5human9HumanGoal8TransferI17RemapPPtrTransferEEvRT_
2646:__ZN15SerializeTraitsI4AABBE8TransferI17RemapPPtrTransferEEvRS0_RT_
2647:__ZN4AABB8TransferI17RemapPPtrTransferEEvRT_
2648:__ZN17RemapPPtrTransfer8TransferI8Vector3fEEvRT_PKc17TransferMetaFlags
2649:__ZN15SerializeTraitsI8Vector3fE8TransferI17RemapPPtrTransferEEvRS0_RT_
2650:__ZN8Vector3f8TransferI17RemapPPtrTransferEEvRT_
2651:__ZN15SerializeTraitsINSt3__26vectorIN13AnimationClip9PPtrCurveE13stl_allocatorIS3_L18MemLabelIdentifier30ELi16EEEEE8TransferI17RemapPPtrTransferEEvRS7_RT_
2652:__ZN17RemapPPtrTransfer21TransferSTLStyleArrayINSt3__26vectorIN13AnimationClip9PPtrCurveE13stl_allocatorIS4_L18MemLabelIdentifier30ELi16EEEEEEvRT_17TransferMetaFlags
2653:__ZN17RemapPPtrTransfer8TransferIN13AnimationClip9PPtrCurveEEEvRT_PKc17TransferMetaFlags
2654:__ZN15SerializeTraitsIN13AnimationClip9PPtrCurveEE8TransferI17RemapPPtrTransferEEvRS1_RT_
2655:__ZN13AnimationClip9PPtrCurve8TransferI17RemapPPtrTransferEEvRT_
2656:__ZN17RemapPPtrTransfer8TransferI13dynamic_arrayI12PPtrKeyframeLm0EEEEvRT_PKc17TransferMetaFlags
2657:__ZN17RemapPPtrTransfer8TransferIN4core12basic_stringIcNS1_20StringStorageDefaultIcEEEEEEvRT_PKc17TransferMetaFlags
2658:__ZN29SerializeTraitsForStringTypesIN4core12basic_stringIcNS0_20StringStorageDefaultIcEEEEE8TransferI17RemapPPtrTransferEEvRS4_RT_
2659:__ZN17RemapPPtrTransfer21TransferSTLStyleArrayIN4core12basic_stringIcNS1_20StringStorageDefaultIcEEEEEEvRT_17TransferMetaFlags
2660:__ZN4core12basic_stringIcNS_20StringStorageDefaultIcEEE5beginEv
2661:__ZN4core12basic_stringIcNS_20StringStorageDefaultIcEEE3endEv
2662:__ZNK4core19contiguous_iteratorIcEneERKS1_
2663:__ZN4core19contiguous_iteratorIcEppEv
2664:__ZNK4core19contiguous_iteratorIcEeqERKS1_
2665:__ZN4core20StringStorageDefaultIcE11make_uniqueEv
2666:__ZN15SerializeTraitsI13dynamic_arrayI12PPtrKeyframeLm0EEE8TransferI17RemapPPtrTransferEEvRS2_RT_
2667:__ZN17RemapPPtrTransfer21TransferSTLStyleArrayI13dynamic_arrayI12PPtrKeyframeLm0EEEEvRT_17TransferMetaFlags
2668:__ZN17RemapPPtrTransfer8TransferI12PPtrKeyframeEEvRT_PKc17TransferMetaFlags
2669:__ZN15SerializeTraitsI12PPtrKeyframeE8TransferI17RemapPPtrTransferEEvRS0_RT_
2670:__ZN12PPtrKeyframe8TransferI17RemapPPtrTransferEEvRT_
2671:__ZN15SerializeTraitsINSt3__26vectorIN13AnimationClip10FloatCurveE13stl_allocatorIS3_L18MemLabelIdentifier30ELi16EEEEE8TransferI17RemapPPtrTransferEEvRS7_RT_
2672:__ZN17RemapPPtrTransfer21TransferSTLStyleArrayINSt3__26vectorIN13AnimationClip10FloatCurveE13stl_allocatorIS4_L18MemLabelIdentifier30ELi16EEEEEEvRT_17TransferMetaFlags
2673:__ZN17RemapPPtrTransfer8TransferIN13AnimationClip10FloatCurveEEEvRT_PKc17TransferMetaFlags
2674:__ZN15SerializeTraitsIN13AnimationClip10FloatCurveEE8TransferI17RemapPPtrTransferEEvRS1_RT_
2675:__ZN13AnimationClip10FloatCurve8TransferI17RemapPPtrTransferEEvRT_
2676:__ZN17RemapPPtrTransfer8TransferI17AnimationCurveTplIfEEEvRT_PKc17TransferMetaFlags
2677:__ZN15SerializeTraitsI17AnimationCurveTplIfEE8TransferI17RemapPPtrTransferEEvRS1_RT_
2678:__ZN17AnimationCurveTplIfE8TransferI17RemapPPtrTransferEEvRT_
2679:__ZN17RemapPPtrTransfer8TransferI13dynamic_arrayI11KeyframeTplIfELm0EEEEvRT_PKc17TransferMetaFlags
2680:__ZN15SerializeTraitsI13dynamic_arrayI11KeyframeTplIfELm0EEE16MightContainPPtrEv
2681:__ZN15SerializeTraitsI13dynamic_arrayI11KeyframeTplIfELm0EEE8TransferI17RemapPPtrTransferEEvRS3_RT_
2682:__ZN17RemapPPtrTransfer21TransferSTLStyleArrayI13dynamic_arrayI11KeyframeTplIfELm0EEEEvRT_17TransferMetaFlags
2683:__ZN17RemapPPtrTransfer8TransferI11KeyframeTplIfEEEvRT_PKc17TransferMetaFlags
2684:__ZN15SerializeTraitsI11KeyframeTplIfEE8TransferI17RemapPPtrTransferEEvRS1_RT_
2685:__ZN11KeyframeTplIfE8TransferI17RemapPPtrTransferEEvRT_
2686:__ZN15SerializeTraitsINSt3__26vectorIN13AnimationClip12Vector3CurveE13stl_allocatorIS3_L18MemLabelIdentifier30ELi16EEEEE8TransferI17RemapPPtrTransferEEvRS7_RT_
2687:__ZN17RemapPPtrTransfer21TransferSTLStyleArrayINSt3__26vectorIN13AnimationClip12Vector3CurveE13stl_allocatorIS4_L18MemLabelIdentifier30ELi16EEEEEEvRT_17TransferMetaFlags
2688:__ZN17RemapPPtrTransfer8TransferIN13AnimationClip12Vector3CurveEEEvRT_PKc17TransferMetaFlags
2689:__ZN15SerializeTraitsIN13AnimationClip12Vector3CurveEE8TransferI17RemapPPtrTransferEEvRS1_RT_
2690:__ZN13AnimationClip12Vector3Curve8TransferI17RemapPPtrTransferEEvRT_
2691:__ZN17RemapPPtrTransfer8TransferI17AnimationCurveTplI8Vector3fEEEvRT_PKc17TransferMetaFlags
2692:__ZN15SerializeTraitsI17AnimationCurveTplI8Vector3fEE8TransferI17RemapPPtrTransferEEvRS2_RT_
2693:__ZN17AnimationCurveTplI8Vector3fE8TransferI17RemapPPtrTransferEEvRT_
2694:__ZN17RemapPPtrTransfer8TransferI13dynamic_arrayI11KeyframeTplI8Vector3fELm0EEEEvRT_PKc17TransferMetaFlags
2695:__ZN15SerializeTraitsI13dynamic_arrayI11KeyframeTplI8Vector3fELm0EEE8TransferI17RemapPPtrTransferEEvRS4_RT_
2696:__ZN17RemapPPtrTransfer21TransferSTLStyleArrayI13dynamic_arrayI11KeyframeTplI8Vector3fELm0EEEEvRT_17TransferMetaFlags
2697:__ZN17RemapPPtrTransfer8TransferI11KeyframeTplI8Vector3fEEEvRT_PKc17TransferMetaFlags
2698:__ZN15SerializeTraitsI11KeyframeTplI8Vector3fEE8TransferI17RemapPPtrTransferEEvRS2_RT_
2699:__ZN11KeyframeTplI8Vector3fE8TransferI17RemapPPtrTransferEEvRT_
2700:__ZN15SerializeTraitsINSt3__26vectorI24CompressedAnimationCurve13stl_allocatorIS2_L18MemLabelIdentifier30ELi16EEEEE8TransferI17RemapPPtrTransferEEvRS6_RT_
2701:__ZN17RemapPPtrTransfer21TransferSTLStyleArrayINSt3__26vectorI24CompressedAnimationCurve13stl_allocatorIS3_L18MemLabelIdentifier30ELi16EEEEEEvRT_17TransferMetaFlags
2702:__ZN17RemapPPtrTransfer8TransferI24CompressedAnimationCurveEEvRT_PKc17TransferMetaFlags
2703:__ZN15SerializeTraitsI24CompressedAnimationCurveE8TransferI17RemapPPtrTransferEEvRS0_RT_
2704:__ZN24CompressedAnimationCurve8TransferI17RemapPPtrTransferEEvRT_
2705:__ZN17RemapPPtrTransfer8TransferI15PackedIntVectorEEvRT_PKc17TransferMetaFlags
2706:__ZN17RemapPPtrTransfer8TransferI16PackedQuatVectorEEvRT_PKc17TransferMetaFlags
2707:__ZN17RemapPPtrTransfer8TransferI17PackedFloatVectorEEvRT_PKc17TransferMetaFlags
2708:__ZN15SerializeTraitsI17PackedFloatVectorE8TransferI17RemapPPtrTransferEEvRS0_RT_
2709:__ZN17PackedFloatVector8TransferI17RemapPPtrTransferEEvRT_
2710:__ZN17RemapPPtrTransfer8TransferI13dynamic_arrayIhLm0EEEEvRT_PKc17TransferMetaFlags
2711:__ZN15SerializeTraitsI13dynamic_arrayIhLm0EEE8TransferI17RemapPPtrTransferEEvRS1_RT_
2712:__ZN17RemapPPtrTransfer21TransferSTLStyleArrayI13dynamic_arrayIhLm0EEEEvRT_17TransferMetaFlags
2713:__ZN15SerializeTraitsI16PackedQuatVectorE8TransferI17RemapPPtrTransferEEvRS0_RT_
2714:__ZN16PackedQuatVector8TransferI17RemapPPtrTransferEEvRT_
2715:__ZN15SerializeTraitsI15PackedIntVectorE8TransferI17RemapPPtrTransferEEvRS0_RT_
2716:__ZN15PackedIntVector8TransferI17RemapPPtrTransferEEvRT_
2717:__ZN15SerializeTraitsINSt3__26vectorIN13AnimationClip15QuaternionCurveE13stl_allocatorIS3_L18MemLabelIdentifier30ELi16EEEEE8TransferI17RemapPPtrTransferEEvRS7_RT_
2718:__ZN17RemapPPtrTransfer21TransferSTLStyleArrayINSt3__26vectorIN13AnimationClip15QuaternionCurveE13stl_allocatorIS4_L18MemLabelIdentifier30ELi16EEEEEEvRT_17TransferMetaFlags
2719:__ZN17RemapPPtrTransfer8TransferIN13AnimationClip15QuaternionCurveEEEvRT_PKc17TransferMetaFlags
2720:__ZN15SerializeTraitsIN13AnimationClip15QuaternionCurveEE8TransferI17RemapPPtrTransferEEvRS1_RT_
2721:__ZN13AnimationClip15QuaternionCurve8TransferI17RemapPPtrTransferEEvRT_
2722:__ZN17RemapPPtrTransfer8TransferI17AnimationCurveTplI11QuaternionfEEEvRT_PKc17TransferMetaFlags
2723:__ZN15SerializeTraitsI17AnimationCurveTplI11QuaternionfEE8TransferI17RemapPPtrTransferEEvRS2_RT_
2724:__ZN17AnimationCurveTplI11QuaternionfE8TransferI17RemapPPtrTransferEEvRT_
2725:__ZN17RemapPPtrTransfer8TransferI13dynamic_arrayI11KeyframeTplI11QuaternionfELm0EEEEvRT_PKc17TransferMetaFlags
2726:__ZN15SerializeTraitsI13dynamic_arrayI11KeyframeTplI11QuaternionfELm0EEE8TransferI17RemapPPtrTransferEEvRS4_RT_
2727:__ZN17RemapPPtrTransfer21TransferSTLStyleArrayI13dynamic_arrayI11KeyframeTplI11QuaternionfELm0EEEEvRT_17TransferMetaFlags
2728:__ZN17RemapPPtrTransfer8TransferI11KeyframeTplI11QuaternionfEEEvRT_PKc17TransferMetaFlags
2729:__ZN15SerializeTraitsI11KeyframeTplI11QuaternionfEE8TransferI17RemapPPtrTransferEEvRS2_RT_
2730:__ZN11KeyframeTplI11QuaternionfE8TransferI17RemapPPtrTransferEEvRT_
2731:__ZN17RemapPPtrTransfer8TransferI11QuaternionfEEvRT_PKc17TransferMetaFlags
2732:__ZN15SerializeTraitsI11QuaternionfE8TransferI17RemapPPtrTransferEEvRS0_RT_
2733:__ZN11Quaternionf8TransferI17RemapPPtrTransferEEvRT_
2734:__ZN15SerializeTraitsIbE8TransferI17RemapPPtrTransferEEvRbRT_
2735:__ZN18StreamedBinaryRead12TransferBaseI13AnimationClipEEvRT_17TransferMetaFlags
2736:__ZN18StreamedBinaryRead8TransferI13AnimationClipEEvRT_PKc17TransferMetaFlags
2737:__ZN15SerializeTraitsI13AnimationClipE8TransferI18StreamedBinaryReadEEvRS0_RT_
2738:__ZN13AnimationClip8TransferI18StreamedBinaryReadEEvRT_
2739:__ZN18StreamedBinaryRead8TransferIbEEvRT_PKc17TransferMetaFlags
2740:__ZN18StreamedBinaryRead8TransferINSt3__26vectorIN13AnimationClip15QuaternionCurveE13stl_allocatorIS4_L18MemLabelIdentifier30ELi16EEEEEEvRT_PKc17TransferMetaFlags
2741:__ZN18StreamedBinaryRead8TransferINSt3__26vectorI24CompressedAnimationCurve13stl_allocatorIS3_L18MemLabelIdentifier30ELi16EEEEEEvRT_PKc17TransferMetaFlags
2742:__ZN18StreamedBinaryRead8TransferINSt3__26vectorIN13AnimationClip12Vector3CurveE13stl_allocatorIS4_L18MemLabelIdentifier30ELi16EEEEEEvRT_PKc17TransferMetaFlags
2743:__ZN18StreamedBinaryRead8TransferINSt3__26vectorIN13AnimationClip10FloatCurveE13stl_allocatorIS4_L18MemLabelIdentifier30ELi16EEEEEEvRT_PKc17TransferMetaFlags
2744:__ZN18StreamedBinaryRead8TransferINSt3__26vectorIN13AnimationClip9PPtrCurveE13stl_allocatorIS4_L18MemLabelIdentifier30ELi16EEEEEEvRT_PKc17TransferMetaFlags
2745:__ZN18StreamedBinaryRead8TransferIfEEvRT_PKc17TransferMetaFlags
2746:__Z32TransferEnumWithNameForceIntSizeI18StreamedBinaryRead8WrapModeEvRT_RT0_PKc17TransferMetaFlags
2747:__ZN18StreamedBinaryRead8TransferI4AABBEEvRT_PKc17TransferMetaFlags
2748:__ZN18StreamedBinaryRead8TransferIiEEvRT_PKc17TransferMetaFlags
2749:__Z21TransferBlobSerializeIN7mecanim9animation18ClipMuscleConstantE18StreamedBinaryReadEvRPT_PKcRjS8_RT0_
2750:__ZN18StreamedBinaryRead8TransferIN11UnityEngine9Animation28AnimationClipBindingConstantEEEvRT_PKc17TransferMetaFlags
2751:__ZN18StreamedBinaryRead8TransferINSt3__26vectorI14AnimationEvent13stl_allocatorIS3_L18MemLabelIdentifier30ELi16EEEEEEvRT_PKc17TransferMetaFlags
2752:__ZN15SerializeTraitsINSt3__26vectorI14AnimationEvent13stl_allocatorIS2_L18MemLabelIdentifier30ELi16EEEEE8TransferI18StreamedBinaryReadEEvRS6_RT_
2753:__ZN18StreamedBinaryRead21TransferSTLStyleArrayINSt3__26vectorI14AnimationEvent13stl_allocatorIS3_L18MemLabelIdentifier30ELi16EEEEEEvRT_17TransferMetaFlags
2754:__ZN18StreamedBinaryRead8TransferI14AnimationEventEEvRT_PKc17TransferMetaFlags
2755:__ZN15SerializeTraitsI14AnimationEventE8TransferI18StreamedBinaryReadEEvRS0_RT_
2756:__ZN14AnimationEvent8TransferI18StreamedBinaryReadEEvRT_
2757:__ZN15SerializeTraitsIN11UnityEngine9Animation28AnimationClipBindingConstantEE8TransferI18StreamedBinaryReadEEvRS2_RT_
2758:__ZN11UnityEngine9Animation28AnimationClipBindingConstant8TransferI18StreamedBinaryReadEEvRT_
2759:__ZN18StreamedBinaryRead8TransferI13dynamic_arrayIN11UnityEngine9Animation14GenericBindingELm0EEEEvRT_PKc17TransferMetaFlags
2760:__ZN18StreamedBinaryRead8TransferI13dynamic_arrayI4PPtrI6ObjectELm0EEEEvRT_PKc17TransferMetaFlags
2761:__ZN15SerializeTraitsI13dynamic_arrayI4PPtrI6ObjectELm0EEE8TransferI18StreamedBinaryReadEEvRS4_RT_
2762:__ZN18StreamedBinaryRead21TransferSTLStyleArrayI13dynamic_arrayI4PPtrI6ObjectELm0EEEEvRT_17TransferMetaFlags
2763:__ZN18StreamedBinaryRead8TransferI4PPtrI6ObjectEEEvRT_PKc17TransferMetaFlags
2764:__ZN15SerializeTraitsI4PPtrI6ObjectEE8TransferI18StreamedBinaryReadEEvRS2_RT_
2765:__ZN4PPtrI6ObjectE8TransferI18StreamedBinaryReadEEvRT_
2766:__ZN15SerializeTraitsI13dynamic_arrayIN11UnityEngine9Animation14GenericBindingELm0EEE8TransferI18StreamedBinaryReadEEvRS4_RT_
2767:__ZN18StreamedBinaryRead21TransferSTLStyleArrayI13dynamic_arrayIN11UnityEngine9Animation14GenericBindingELm0EEEEvRT_17TransferMetaFlags
2768:__ZN18StreamedBinaryRead8TransferIN11UnityEngine9Animation14GenericBindingEEEvRT_PKc17TransferMetaFlags
2769:__ZN15SerializeTraitsIN11UnityEngine9Animation14GenericBindingEE8TransferI18StreamedBinaryReadEEvRS2_RT_
2770:__ZN11UnityEngine9Animation14GenericBinding8TransferI18StreamedBinaryReadEEvRT_
2771:__ZN18StreamedBinaryRead8TransferIPKN5Unity4TypeEEEvRT_PKc17TransferMetaFlags
2772:__ZN18StreamedBinaryRead8TransferIhEEvRT_PKc17TransferMetaFlags
2773:__ZN31SerializeTraitsBaseForBasicTypeIhE8TransferI18StreamedBinaryReadEEvRhRT_
2774:__ZN18StreamedBinaryRead17TransferBasicDataIhEEvRT_
2775:__ZN12CachedReader4ReadIhEEvRT_
2776:__ZN15SerializeTraitsIPKN5Unity4TypeEE8TransferI18StreamedBinaryReadEEvRS3_RT_
2777:__ZN18StreamedBinaryRead17TransferBasicDataIiEEvRT_
2778:__ZN12CachedReader4ReadIiEEvRT_
2779:__ZN31SerializeTraitsBaseForBasicTypeIjE8TransferI18StreamedBinaryReadEEvRjRT_
2780:__ZN18StreamedBinaryRead8TransferIN7mecanim9animation18ClipMuscleConstantEEEvRT_PKc17TransferMetaFlags
2781:__ZN15SerializeTraitsIN7mecanim9animation18ClipMuscleConstantEE8TransferI18StreamedBinaryReadEEvRS2_RT_
2782:__ZN7mecanim9animation18ClipMuscleConstant8TransferI18StreamedBinaryReadEEvRT_
2783:__ZN18StreamedBinaryRead8TransferIN7mecanim5human9HumanPoseEEEvRT_PKc17TransferMetaFlags
2784:__ZN18StreamedBinaryRead8TransferIN4math4trsXEEEvRT_PKc17TransferMetaFlags
2785:__ZN18StreamedBinaryRead8TransferIKN4math7_float3EEEvRT_PKc17TransferMetaFlags
2786:__ZN18StreamedBinaryRead8TransferI9OffsetPtrIN7mecanim9animation4ClipEEEEvRT_PKc17TransferMetaFlags
2787:__Z13TransferArrayILi200Ei18StreamedBinaryReadEmRAT__T0_PKcRT1_
2788:__Z17TransferOffsetPtrI9OffsetPtrIN7mecanim9animation10ValueDeltaEE18StreamedBinaryReadEvRT_PKcRjRT0_
2789:__Z17TransferOffsetPtrI9OffsetPtrIfE18StreamedBinaryReadEvRT_PKcRjRT0_
2790:__ZN7mecanim9animation18ClipMuscleConstant30TransferBackwardsCompatibilityI18StreamedBinaryReadEEvRT_
2791:__ZN18StreamedBinaryRead8TransferI22OffsetPtrArrayTransferIfEEEvRT_PKc17TransferMetaFlags
2792:__ZN15SerializeTraitsI22OffsetPtrArrayTransferIfEE8TransferI18StreamedBinaryReadEEvRS1_RT_
2793:__ZN18StreamedBinaryRead21TransferSTLStyleArrayI22OffsetPtrArrayTransferIfEEEvRT_17TransferMetaFlags
2794:__ZN15SerializeTraitsI22OffsetPtrArrayTransferIfEE19ResizeSTLStyleArrayERS1_i
2795:__ZN22OffsetPtrArrayTransferIfE6resizeEi
2796:__ZN18StreamedBinaryRead8TransferI22OffsetPtrArrayTransferIN7mecanim9animation10ValueDeltaEEEEvRT_PKc17TransferMetaFlags
2797:__ZN15SerializeTraitsI22OffsetPtrArrayTransferIN7mecanim9animation10ValueDeltaEEE8TransferI18StreamedBinaryReadEEvRS4_RT_
2798:__ZN18StreamedBinaryRead21TransferSTLStyleArrayI22OffsetPtrArrayTransferIN7mecanim9animation10ValueDeltaEEEEvRT_17TransferMetaFlags
2799:__ZN18StreamedBinaryRead8TransferIN7mecanim9animation10ValueDeltaEEEvRT_PKc17TransferMetaFlags
2800:__ZN15SerializeTraitsIN7mecanim9animation10ValueDeltaEE8TransferI18StreamedBinaryReadEEvRS2_RT_
2801:__ZN7mecanim9animation10ValueDelta8TransferI18StreamedBinaryReadEEvRT_
2802:__ZN18StreamedBinaryRead8TransferI19StaticArrayTransferIiLi200EEEEvRT_PKc17TransferMetaFlags
2803:__ZN15SerializeTraitsI19StaticArrayTransferIiLi200EEE8TransferI18StreamedBinaryReadEEvRS1_RT_
2804:__ZN18StreamedBinaryRead21TransferSTLStyleArrayI19StaticArrayTransferIiLi200EEEEvRT_17TransferMetaFlags
2805:__ZN15SerializeTraitsI9OffsetPtrIN7mecanim9animation4ClipEEE8TransferI18StreamedBinaryReadEEvRS4_RT_
2806:__ZN18StreamedBinaryRead8TransferIN7mecanim9animation4ClipEEEvRT_PKc17TransferMetaFlags
2807:__ZN15SerializeTraitsIN7mecanim9animation4ClipEE8TransferI18StreamedBinaryReadEEvRS2_RT_
2808:__ZN7mecanim9animation4Clip8TransferI18StreamedBinaryReadEEvRT_
2809:__ZN18StreamedBinaryRead8TransferIN7mecanim9animation12StreamedClipEEEvRT_PKc17TransferMetaFlags
2810:__ZN18StreamedBinaryRead8TransferIN7mecanim9animation9DenseClipEEEvRT_PKc17TransferMetaFlags
2811:__ZN18StreamedBinaryRead8TransferIN7mecanim9animation12ConstantClipEEEvRT_PKc17TransferMetaFlags
2812:__ZN15SerializeTraitsIN7mecanim9animation12ConstantClipEE8TransferI18StreamedBinaryReadEEvRS2_RT_
2813:__ZN7mecanim9animation12ConstantClip8TransferI18StreamedBinaryReadEEvRT_
2814:__ZN15SerializeTraitsIN7mecanim9animation9DenseClipEE8TransferI18StreamedBinaryReadEEvRS2_RT_
2815:__ZN7mecanim9animation9DenseClip8TransferI18StreamedBinaryReadEEvRT_
2816:__ZN15SerializeTraitsIN7mecanim9animation12StreamedClipEE8TransferI18StreamedBinaryReadEEvRS2_RT_
2817:__ZN7mecanim9animation12StreamedClip8TransferI18StreamedBinaryReadEEvRT_
2818:__Z17TransferOffsetPtrI9OffsetPtrIjE18StreamedBinaryReadEvRT_PKcRjRT0_
2819:__ZN18StreamedBinaryRead8TransferI22OffsetPtrArrayTransferIjEEEvRT_PKc17TransferMetaFlags
2820:__ZN15SerializeTraitsI22OffsetPtrArrayTransferIjEE8TransferI18StreamedBinaryReadEEvRS1_RT_
2821:__ZN18StreamedBinaryRead21TransferSTLStyleArrayI22OffsetPtrArrayTransferIjEEEvRT_17TransferMetaFlags
2822:__ZN15SerializeTraitsI22OffsetPtrArrayTransferIjEE19ResizeSTLStyleArrayERS1_i
2823:__ZN22OffsetPtrArrayTransferIjE6resizeEi
2824:__ZN20RuntimeBaseAllocator14ConstructArrayIjEEPT_mRKS1_m
2825:__ZNSt3__218uninitialized_fillIPjjEEvT_S2_RKT0_
2826:__ZN15SerializeTraitsIKN4math7_float3EE8TransferI18StreamedBinaryReadEEvRS2_RT_
2827:__ZN15SerializeTraitsIN4math4trsXEE8TransferI18StreamedBinaryReadEEvRS1_RT_
2828:__ZN15SerializeTraitsIN7mecanim5human9HumanPoseEE8TransferI18StreamedBinaryReadEEvRS2_RT_
2829:__ZN7mecanim5human9HumanPose8TransferI18StreamedBinaryReadEEvRT_
2830:__Z13TransferArrayILi4EN7mecanim5human9HumanGoalE18StreamedBinaryReadEmRAT__T0_PKcRT1_
2831:__ZN18StreamedBinaryRead8TransferIN7mecanim4hand8HandPoseEEEvRT_PKc17TransferMetaFlags
2832:__Z13TransferArrayILi55Ef18StreamedBinaryReadEmRAT__T0_PKcRT1_
2833:__Z13TransferArrayILi21EKN4math7_float3E18StreamedBinaryReadEmRAT__T0_PKcRT1_
2834:__ZN7mecanim5human9HumanPose30TransferBackwardsCompatibilityI18StreamedBinaryReadEEvRT_m
2835:__ZN18StreamedBinaryRead8TransferI19StaticArrayTransferIKN4math7_float3ELi21EEEEvRT_PKc17TransferMetaFlags
2836:__ZN15SerializeTraitsI19StaticArrayTransferIKN4math7_float3ELi21EEE8TransferI18StreamedBinaryReadEEvRS4_RT_
2837:__ZN18StreamedBinaryRead21TransferSTLStyleArrayI19StaticArrayTransferIKN4math7_float3ELi21EEEEvRT_17TransferMetaFlags
2838:__ZN18StreamedBinaryRead8TransferI19StaticArrayTransferIfLi55EEEEvRT_PKc17TransferMetaFlags
2839:__ZN15SerializeTraitsI19StaticArrayTransferIfLi55EEE8TransferI18StreamedBinaryReadEEvRS1_RT_
2840:__ZN18StreamedBinaryRead21TransferSTLStyleArrayI19StaticArrayTransferIfLi55EEEEvRT_17TransferMetaFlags
2841:__ZN15SerializeTraitsIN7mecanim4hand8HandPoseEE8TransferI18StreamedBinaryReadEEvRS2_RT_
2842:__ZN7mecanim4hand8HandPose8TransferI18StreamedBinaryReadEEvRT_
2843:__Z13TransferArrayILi20Ef18StreamedBinaryReadEmRAT__T0_PKcRT1_
2844:__ZN18StreamedBinaryRead8TransferI19StaticArrayTransferIfLi20EEEEvRT_PKc17TransferMetaFlags
2845:__ZN15SerializeTraitsI19StaticArrayTransferIfLi20EEE8TransferI18StreamedBinaryReadEEvRS1_RT_
2846:__ZN18StreamedBinaryRead21TransferSTLStyleArrayI19StaticArrayTransferIfLi20EEEEvRT_17TransferMetaFlags
2847:__ZN18StreamedBinaryRead8TransferI19StaticArrayTransferIN7mecanim5human9HumanGoalELi4EEEEvRT_PKc17TransferMetaFlags
2848:__ZN15SerializeTraitsI19StaticArrayTransferIN7mecanim5human9HumanGoalELi4EEE8TransferI18StreamedBinaryReadEEvRS4_RT_
2849:__ZN18StreamedBinaryRead21TransferSTLStyleArrayI19StaticArrayTransferIN7mecanim5human9HumanGoalELi4EEEEvRT_17TransferMetaFlags
2850:__ZN18StreamedBinaryRead8TransferIN7mecanim5human9HumanGoalEEEvRT_PKc17TransferMetaFlags
2851:__ZN15SerializeTraitsIN7mecanim5human9HumanGoalEE8TransferI18StreamedBinaryReadEEvRS2_RT_
2852:__ZN7mecanim5human9HumanGoal8TransferI18StreamedBinaryReadEEvRT_
2853:__ZN15SerializeTraitsI4AABBE8TransferI18StreamedBinaryReadEEvRS0_RT_
2854:__ZN31SerializeTraitsBaseForBasicTypeIfE8TransferI18StreamedBinaryReadEEvRfRT_
2855:__ZN18StreamedBinaryRead17TransferBasicDataIfEEvRT_
2856:__ZN12CachedReader4ReadIfEEvRT_
2857:__ZN15SerializeTraitsINSt3__26vectorIN13AnimationClip9PPtrCurveE13stl_allocatorIS3_L18MemLabelIdentifier30ELi16EEEEE8TransferI18StreamedBinaryReadEEvRS7_RT_
2858:__ZN18StreamedBinaryRead21TransferSTLStyleArrayINSt3__26vectorIN13AnimationClip9PPtrCurveE13stl_allocatorIS4_L18MemLabelIdentifier30ELi16EEEEEEvRT_17TransferMetaFlags
2859:__ZN18StreamedBinaryRead8TransferIN13AnimationClip9PPtrCurveEEEvRT_PKc17TransferMetaFlags
2860:__ZN15SerializeTraitsIN13AnimationClip9PPtrCurveEE8TransferI18StreamedBinaryReadEEvRS1_RT_
2861:__ZN13AnimationClip9PPtrCurve8TransferI18StreamedBinaryReadEEvRT_
2862:__ZN18StreamedBinaryRead8TransferI13dynamic_arrayI12PPtrKeyframeLm0EEEEvRT_PKc17TransferMetaFlags
2863:__ZN18StreamedBinaryRead8TransferIN4core12basic_stringIcNS1_20StringStorageDefaultIcEEEEEEvRT_PKc17TransferMetaFlags
2864:__ZN29SerializeTraitsForStringTypesIN4core12basic_stringIcNS0_20StringStorageDefaultIcEEEEE8TransferI18StreamedBinaryReadEEvRS4_RT_
2865:__ZN15SerializeTraitsI13dynamic_arrayI12PPtrKeyframeLm0EEE8TransferI18StreamedBinaryReadEEvRS2_RT_
2866:__ZN18StreamedBinaryRead21TransferSTLStyleArrayI13dynamic_arrayI12PPtrKeyframeLm0EEEEvRT_17TransferMetaFlags
2867:__ZN18StreamedBinaryRead8TransferI12PPtrKeyframeEEvRT_PKc17TransferMetaFlags
2868:__ZN15SerializeTraitsI12PPtrKeyframeE8TransferI18StreamedBinaryReadEEvRS0_RT_
2869:__ZN12PPtrKeyframe8TransferI18StreamedBinaryReadEEvRT_
2870:__ZN15SerializeTraitsINSt3__26vectorIN13AnimationClip10FloatCurveE13stl_allocatorIS3_L18MemLabelIdentifier30ELi16EEEEE8TransferI18StreamedBinaryReadEEvRS7_RT_
2871:__ZN18StreamedBinaryRead21TransferSTLStyleArrayINSt3__26vectorIN13AnimationClip10FloatCurveE13stl_allocatorIS4_L18MemLabelIdentifier30ELi16EEEEEEvRT_17TransferMetaFlags
2872:__ZN18StreamedBinaryRead8TransferIN13AnimationClip10FloatCurveEEEvRT_PKc17TransferMetaFlags
2873:__ZN15SerializeTraitsIN13AnimationClip10FloatCurveEE8TransferI18StreamedBinaryReadEEvRS1_RT_
2874:__ZN13AnimationClip10FloatCurve8TransferI18StreamedBinaryReadEEvRT_
2875:__ZN18StreamedBinaryRead8TransferI17AnimationCurveTplIfEEEvRT_PKc17TransferMetaFlags
2876:__ZN15SerializeTraitsI17AnimationCurveTplIfEE8TransferI18StreamedBinaryReadEEvRS1_RT_
2877:__ZN17AnimationCurveTplIfE8TransferI18StreamedBinaryReadEEvRT_
2878:__ZN18StreamedBinaryRead8TransferI13dynamic_arrayI11KeyframeTplIfELm0EEEEvRT_PKc17TransferMetaFlags
2879:__ZN15SerializeTraitsI13dynamic_arrayI11KeyframeTplIfELm0EEE8TransferI18StreamedBinaryReadEEvRS3_RT_
2880:__ZN18StreamedBinaryRead21TransferSTLStyleArrayI13dynamic_arrayI11KeyframeTplIfELm0EEEEvRT_17TransferMetaFlags
2881:__ZN18StreamedBinaryRead8TransferI11KeyframeTplIfEEEvRT_PKc17TransferMetaFlags
2882:__ZN15SerializeTraitsI11KeyframeTplIfEE8TransferI18StreamedBinaryReadEEvRS1_RT_
2883:__ZN11KeyframeTplIfE8TransferI18StreamedBinaryReadEEvRT_
2884:__ZN15SerializeTraitsINSt3__26vectorIN13AnimationClip12Vector3CurveE13stl_allocatorIS3_L18MemLabelIdentifier30ELi16EEEEE8TransferI18StreamedBinaryReadEEvRS7_RT_
2885:__ZN18StreamedBinaryRead21TransferSTLStyleArrayINSt3__26vectorIN13AnimationClip12Vector3CurveE13stl_allocatorIS4_L18MemLabelIdentifier30ELi16EEEEEEvRT_17TransferMetaFlags
2886:__ZN18StreamedBinaryRead8TransferIN13AnimationClip12Vector3CurveEEEvRT_PKc17TransferMetaFlags
2887:__ZN15SerializeTraitsIN13AnimationClip12Vector3CurveEE8TransferI18StreamedBinaryReadEEvRS1_RT_
2888:__ZN13AnimationClip12Vector3Curve8TransferI18StreamedBinaryReadEEvRT_
2889:__ZN18StreamedBinaryRead8TransferI17AnimationCurveTplI8Vector3fEEEvRT_PKc17TransferMetaFlags
2890:__ZN15SerializeTraitsI17AnimationCurveTplI8Vector3fEE8TransferI18StreamedBinaryReadEEvRS2_RT_
2891:__ZN17AnimationCurveTplI8Vector3fE8TransferI18StreamedBinaryReadEEvRT_
2892:__ZN18StreamedBinaryRead8TransferI13dynamic_arrayI11KeyframeTplI8Vector3fELm0EEEEvRT_PKc17TransferMetaFlags
2893:__ZN15SerializeTraitsI13dynamic_arrayI11KeyframeTplI8Vector3fELm0EEE8TransferI18StreamedBinaryReadEEvRS4_RT_
2894:__ZN18StreamedBinaryRead21TransferSTLStyleArrayI13dynamic_arrayI11KeyframeTplI8Vector3fELm0EEEEvRT_17TransferMetaFlags
2895:__ZN18StreamedBinaryRead8TransferI11KeyframeTplI8Vector3fEEEvRT_PKc17TransferMetaFlags
2896:__ZN15SerializeTraitsI11KeyframeTplI8Vector3fEE8TransferI18StreamedBinaryReadEEvRS2_RT_
2897:__ZN11KeyframeTplI8Vector3fE8TransferI18StreamedBinaryReadEEvRT_
2898:__ZN18StreamedBinaryRead8TransferI8Vector3fEEvRT_PKc17TransferMetaFlags
2899:__ZN15SerializeTraitsI8Vector3fE8TransferI18StreamedBinaryReadEEvRS0_RT_
2900:__ZN8Vector3f8TransferI18StreamedBinaryReadEEvRT_
2901:__ZN15SerializeTraitsINSt3__26vectorI24CompressedAnimationCurve13stl_allocatorIS2_L18MemLabelIdentifier30ELi16EEEEE8TransferI18StreamedBinaryReadEEvRS6_RT_
2902:__ZN18StreamedBinaryRead21TransferSTLStyleArrayINSt3__26vectorI24CompressedAnimationCurve13stl_allocatorIS3_L18MemLabelIdentifier30ELi16EEEEEEvRT_17TransferMetaFlags
2903:__ZN18StreamedBinaryRead8TransferI24CompressedAnimationCurveEEvRT_PKc17TransferMetaFlags
2904:__ZN15SerializeTraitsI24CompressedAnimationCurveE8TransferI18StreamedBinaryReadEEvRS0_RT_
2905:__ZN24CompressedAnimationCurve8TransferI18StreamedBinaryReadEEvRT_
2906:__ZN18StreamedBinaryRead8TransferI15PackedIntVectorEEvRT_PKc17TransferMetaFlags
2907:__ZN18StreamedBinaryRead8TransferI16PackedQuatVectorEEvRT_PKc17TransferMetaFlags
2908:__ZN18StreamedBinaryRead8TransferI17PackedFloatVectorEEvRT_PKc17TransferMetaFlags
2909:__ZN15SerializeTraitsI17PackedFloatVectorE8TransferI18StreamedBinaryReadEEvRS0_RT_
2910:__ZN17PackedFloatVector8TransferI18StreamedBinaryReadEEvRT_
2911:__ZN15SerializeTraitsI16PackedQuatVectorE8TransferI18StreamedBinaryReadEEvRS0_RT_
2912:__ZN16PackedQuatVector8TransferI18StreamedBinaryReadEEvRT_
2913:__ZN15SerializeTraitsI15PackedIntVectorE8TransferI18StreamedBinaryReadEEvRS0_RT_
2914:__ZN15PackedIntVector8TransferI18StreamedBinaryReadEEvRT_
2915:__ZN15SerializeTraitsINSt3__26vectorIN13AnimationClip15QuaternionCurveE13stl_allocatorIS3_L18MemLabelIdentifier30ELi16EEEEE8TransferI18StreamedBinaryReadEEvRS7_RT_
2916:__ZN18StreamedBinaryRead21TransferSTLStyleArrayINSt3__26vectorIN13AnimationClip15QuaternionCurveE13stl_allocatorIS4_L18MemLabelIdentifier30ELi16EEEEEEvRT_17TransferMetaFlags
2917:__ZN18StreamedBinaryRead8TransferIN13AnimationClip15QuaternionCurveEEEvRT_PKc17TransferMetaFlags
2918:__ZN15SerializeTraitsIN13AnimationClip15QuaternionCurveEE8TransferI18StreamedBinaryReadEEvRS1_RT_
2919:__ZN13AnimationClip15QuaternionCurve8TransferI18StreamedBinaryReadEEvRT_
2920:__ZN18StreamedBinaryRead8TransferI17AnimationCurveTplI11QuaternionfEEEvRT_PKc17TransferMetaFlags
2921:__ZN15SerializeTraitsI17AnimationCurveTplI11QuaternionfEE8TransferI18StreamedBinaryReadEEvRS2_RT_
2922:__ZN17AnimationCurveTplI11QuaternionfE8TransferI18StreamedBinaryReadEEvRT_
2923:__ZN18StreamedBinaryRead8TransferI13dynamic_arrayI11KeyframeTplI11QuaternionfELm0EEEEvRT_PKc17TransferMetaFlags
2924:__ZN15SerializeTraitsI13dynamic_arrayI11KeyframeTplI11QuaternionfELm0EEE8TransferI18StreamedBinaryReadEEvRS4_RT_
2925:__ZN18StreamedBinaryRead21TransferSTLStyleArrayI13dynamic_arrayI11KeyframeTplI11QuaternionfELm0EEEEvRT_17TransferMetaFlags
2926:__ZN18StreamedBinaryRead8TransferI11KeyframeTplI11QuaternionfEEEvRT_PKc17TransferMetaFlags
2927:__ZN15SerializeTraitsI11KeyframeTplI11QuaternionfEE8TransferI18StreamedBinaryReadEEvRS2_RT_
2928:__ZN11KeyframeTplI11QuaternionfE8TransferI18StreamedBinaryReadEEvRT_
2929:__ZN15SerializeTraitsIbE8TransferI18StreamedBinaryReadEEvRbRT_
2930:__ZN19StreamedBinaryWrite12TransferBaseI13AnimationClipEEvRT_17TransferMetaFlags
2931:__ZN19StreamedBinaryWrite8TransferI13AnimationClipEEvRT_PKc17TransferMetaFlags
2932:__ZN15SerializeTraitsI13AnimationClipE8TransferI19StreamedBinaryWriteEEvRS0_RT_
2933:__ZN13AnimationClip8TransferI19StreamedBinaryWriteEEvRT_
2934:__ZN19StreamedBinaryWrite8TransferIbEEvRT_PKc17TransferMetaFlags
2935:__ZN19StreamedBinaryWrite8TransferINSt3__26vectorIN13AnimationClip15QuaternionCurveE13stl_allocatorIS4_L18MemLabelIdentifier30ELi16EEEEEEvRT_PKc17TransferMetaFlags
2936:__ZN19StreamedBinaryWrite8TransferINSt3__26vectorI24CompressedAnimationCurve13stl_allocatorIS3_L18MemLabelIdentifier30ELi16EEEEEEvRT_PKc17TransferMetaFlags
2937:__ZN19StreamedBinaryWrite8TransferINSt3__26vectorIN13AnimationClip12Vector3CurveE13stl_allocatorIS4_L18MemLabelIdentifier30ELi16EEEEEEvRT_PKc17TransferMetaFlags
2938:__ZN19StreamedBinaryWrite8TransferINSt3__26vectorIN13AnimationClip10FloatCurveE13stl_allocatorIS4_L18MemLabelIdentifier30ELi16EEEEEEvRT_PKc17TransferMetaFlags
2939:__ZN19StreamedBinaryWrite8TransferINSt3__26vectorIN13AnimationClip9PPtrCurveE13stl_allocatorIS4_L18MemLabelIdentifier30ELi16EEEEEEvRT_PKc17TransferMetaFlags
2940:__ZN19StreamedBinaryWrite8TransferIfEEvRT_PKc17TransferMetaFlags
2941:__Z32TransferEnumWithNameForceIntSizeI19StreamedBinaryWrite8WrapModeEvRT_RT0_PKc17TransferMetaFlags
2942:__ZN19StreamedBinaryWrite8TransferI4AABBEEvRT_PKc17TransferMetaFlags
2943:__ZN19StreamedBinaryWrite8TransferIiEEvRT_PKc17TransferMetaFlags
2944:__Z21TransferBlobSerializeIN7mecanim9animation18ClipMuscleConstantE19StreamedBinaryWriteEvRPT_PKcRjS8_RT0_
2945:__ZN19StreamedBinaryWrite8TransferIN11UnityEngine9Animation28AnimationClipBindingConstantEEEvRT_PKc17TransferMetaFlags
2946:__ZN19StreamedBinaryWrite8TransferINSt3__26vectorI14AnimationEvent13stl_allocatorIS3_L18MemLabelIdentifier30ELi16EEEEEEvRT_PKc17TransferMetaFlags
2947:__ZN15SerializeTraitsINSt3__26vectorI14AnimationEvent13stl_allocatorIS2_L18MemLabelIdentifier30ELi16EEEEE8TransferI19StreamedBinaryWriteEEvRS6_RT_
2948:__ZN19StreamedBinaryWrite21TransferSTLStyleArrayINSt3__26vectorI14AnimationEvent13stl_allocatorIS3_L18MemLabelIdentifier30ELi16EEEEEEvRT_17TransferMetaFlags
2949:__ZN19StreamedBinaryWrite8TransferI14AnimationEventEEvRT_PKc17TransferMetaFlags
2950:__ZN15SerializeTraitsI14AnimationEventE8TransferI19StreamedBinaryWriteEEvRS0_RT_
2951:__ZN14AnimationEvent8TransferI19StreamedBinaryWriteEEvRT_
2952:__ZN15SerializeTraitsIN11UnityEngine9Animation28AnimationClipBindingConstantEE8TransferI19StreamedBinaryWriteEEvRS2_RT_
2953:__ZN11UnityEngine9Animation28AnimationClipBindingConstant8TransferI19StreamedBinaryWriteEEvRT_
2954:__ZN19StreamedBinaryWrite8TransferI13dynamic_arrayIN11UnityEngine9Animation14GenericBindingELm0EEEEvRT_PKc17TransferMetaFlags
2955:__ZN19StreamedBinaryWrite8TransferI13dynamic_arrayI4PPtrI6ObjectELm0EEEEvRT_PKc17TransferMetaFlags
2956:__ZN15SerializeTraitsI13dynamic_arrayI4PPtrI6ObjectELm0EEE8TransferI19StreamedBinaryWriteEEvRS4_RT_
2957:__ZN19StreamedBinaryWrite21TransferSTLStyleArrayI13dynamic_arrayI4PPtrI6ObjectELm0EEEEvRT_17TransferMetaFlags
2958:__ZN19StreamedBinaryWrite8TransferI4PPtrI6ObjectEEEvRT_PKc17TransferMetaFlags
2959:__ZN15SerializeTraitsI4PPtrI6ObjectEE8TransferI19StreamedBinaryWriteEEvRS2_RT_
2960:__ZN4PPtrI6ObjectE8TransferI19StreamedBinaryWriteEEvRT_
2961:__ZN15SerializeTraitsI13dynamic_arrayIN11UnityEngine9Animation14GenericBindingELm0EEE8TransferI19StreamedBinaryWriteEEvRS4_RT_
2962:__ZN19StreamedBinaryWrite21TransferSTLStyleArrayI13dynamic_arrayIN11UnityEngine9Animation14GenericBindingELm0EEEEvRT_17TransferMetaFlags
2963:__ZN19StreamedBinaryWrite8TransferIN11UnityEngine9Animation14GenericBindingEEEvRT_PKc17TransferMetaFlags
2964:__ZN15SerializeTraitsIN11UnityEngine9Animation14GenericBindingEE8TransferI19StreamedBinaryWriteEEvRS2_RT_
2965:__ZN11UnityEngine9Animation14GenericBinding8TransferI19StreamedBinaryWriteEEvRT_
2966:__ZN19StreamedBinaryWrite8TransferIPKN5Unity4TypeEEEvRT_PKc17TransferMetaFlags
2967:__ZN19StreamedBinaryWrite8TransferIhEEvRT_PKc17TransferMetaFlags
2968:__ZN31SerializeTraitsBaseForBasicTypeIhE8TransferI19StreamedBinaryWriteEEvRhRT_
2969:__ZN19StreamedBinaryWrite17TransferBasicDataIhEEvRT_
2970:__ZN12CachedWriter5WriteIhEEvRKT_
2971:__ZN15SerializeTraitsIPKN5Unity4TypeEE8TransferI19StreamedBinaryWriteEEvRS3_RT_
2972:__ZN19StreamedBinaryWrite17TransferBasicDataIiEEvRT_
2973:__ZN12CachedWriter5WriteIiEEvRKT_
2974:__ZN31SerializeTraitsBaseForBasicTypeIjE8TransferI19StreamedBinaryWriteEEvRjRT_
2975:__ZN19StreamedBinaryWrite8TransferIN7mecanim9animation18ClipMuscleConstantEEEvRT_PKc17TransferMetaFlags
2976:__ZN15SerializeTraitsIN7mecanim9animation18ClipMuscleConstantEE8TransferI19StreamedBinaryWriteEEvRS2_RT_
2977:__ZN7mecanim9animation18ClipMuscleConstant8TransferI19StreamedBinaryWriteEEvRT_
2978:__ZN19StreamedBinaryWrite8TransferIN7mecanim5human9HumanPoseEEEvRT_PKc17TransferMetaFlags
2979:__ZN19StreamedBinaryWrite8TransferIN4math4trsXEEEvRT_PKc17TransferMetaFlags
2980:__ZN19StreamedBinaryWrite8TransferIKN4math7_float3EEEvRT_PKc17TransferMetaFlags
2981:__ZN19StreamedBinaryWrite8TransferI9OffsetPtrIN7mecanim9animation4ClipEEEEvRT_PKc17TransferMetaFlags
2982:__Z13TransferArrayILi200Ei19StreamedBinaryWriteEmRAT__T0_PKcRT1_
2983:__Z17TransferOffsetPtrI9OffsetPtrIN7mecanim9animation10ValueDeltaEE19StreamedBinaryWriteEvRT_PKcRjRT0_
2984:__Z17TransferOffsetPtrI9OffsetPtrIfE19StreamedBinaryWriteEvRT_PKcRjRT0_
2985:__ZN19StreamedBinaryWrite8TransferI22OffsetPtrArrayTransferIfEEEvRT_PKc17TransferMetaFlags
2986:__ZN15SerializeTraitsI22OffsetPtrArrayTransferIfEE8TransferI19StreamedBinaryWriteEEvRS1_RT_
2987:__ZN19StreamedBinaryWrite21TransferSTLStyleArrayI22OffsetPtrArrayTransferIfEEEvRT_17TransferMetaFlags
2988:__ZN19StreamedBinaryWrite8TransferI22OffsetPtrArrayTransferIN7mecanim9animation10ValueDeltaEEEEvRT_PKc17TransferMetaFlags
2989:__ZN15SerializeTraitsI22OffsetPtrArrayTransferIN7mecanim9animation10ValueDeltaEEE8TransferI19StreamedBinaryWriteEEvRS4_RT_
2990:__ZN19StreamedBinaryWrite21TransferSTLStyleArrayI22OffsetPtrArrayTransferIN7mecanim9animation10ValueDeltaEEEEvRT_17TransferMetaFlags
2991:__ZN19StreamedBinaryWrite8TransferIN7mecanim9animation10ValueDeltaEEEvRT_PKc17TransferMetaFlags
2992:__ZN15SerializeTraitsIN7mecanim9animation10ValueDeltaEE8TransferI19StreamedBinaryWriteEEvRS2_RT_
2993:__ZN7mecanim9animation10ValueDelta8TransferI19StreamedBinaryWriteEEvRT_
2994:__ZN19StreamedBinaryWrite8TransferI19StaticArrayTransferIiLi200EEEEvRT_PKc17TransferMetaFlags
2995:__ZN15SerializeTraitsI19StaticArrayTransferIiLi200EEE8TransferI19StreamedBinaryWriteEEvRS1_RT_
2996:__ZN19StreamedBinaryWrite21TransferSTLStyleArrayI19StaticArrayTransferIiLi200EEEEvRT_17TransferMetaFlags
2997:__ZN15SerializeTraitsI9OffsetPtrIN7mecanim9animation4ClipEEE8TransferI19StreamedBinaryWriteEEvRS4_RT_
2998:__ZN19StreamedBinaryWrite8TransferIN7mecanim9animation4ClipEEEvRT_PKc17TransferMetaFlags
2999:__ZN15SerializeTraitsIN7mecanim9animation4ClipEE8TransferI19StreamedBinaryWriteEEvRS2_RT_
3000:__ZN7mecanim9animation4Clip8TransferI19StreamedBinaryWriteEEvRT_
3001:__ZN19StreamedBinaryWrite8TransferIN7mecanim9animation12StreamedClipEEEvRT_PKc17TransferMetaFlags
3002:__ZN19StreamedBinaryWrite8TransferIN7mecanim9animation9DenseClipEEEvRT_PKc17TransferMetaFlags
3003:__ZN19StreamedBinaryWrite8TransferIN7mecanim9animation12ConstantClipEEEvRT_PKc17TransferMetaFlags
3004:__ZN15SerializeTraitsIN7mecanim9animation12ConstantClipEE8TransferI19StreamedBinaryWriteEEvRS2_RT_
3005:__ZN7mecanim9animation12ConstantClip8TransferI19StreamedBinaryWriteEEvRT_
3006:__ZN15SerializeTraitsIN7mecanim9animation9DenseClipEE8TransferI19StreamedBinaryWriteEEvRS2_RT_
3007:__ZN7mecanim9animation9DenseClip8TransferI19StreamedBinaryWriteEEvRT_
3008:__ZN15SerializeTraitsIN7mecanim9animation12StreamedClipEE8TransferI19StreamedBinaryWriteEEvRS2_RT_
3009:__ZN7mecanim9animation12StreamedClip8TransferI19StreamedBinaryWriteEEvRT_
3010:__Z17TransferOffsetPtrI9OffsetPtrIjE19StreamedBinaryWriteEvRT_PKcRjRT0_
3011:__ZN19StreamedBinaryWrite8TransferI22OffsetPtrArrayTransferIjEEEvRT_PKc17TransferMetaFlags
3012:__ZN15SerializeTraitsI22OffsetPtrArrayTransferIjEE8TransferI19StreamedBinaryWriteEEvRS1_RT_
3013:__ZN19StreamedBinaryWrite21TransferSTLStyleArrayI22OffsetPtrArrayTransferIjEEEvRT_17TransferMetaFlags
3014:__ZN15SerializeTraitsIKN4math7_float3EE8TransferI19StreamedBinaryWriteEEvRS2_RT_
3015:__ZN15SerializeTraitsIN4math4trsXEE8TransferI19StreamedBinaryWriteEEvRS1_RT_
3016:__ZN15SerializeTraitsIN7mecanim5human9HumanPoseEE8TransferI19StreamedBinaryWriteEEvRS2_RT_
3017:__ZN7mecanim5human9HumanPose8TransferI19StreamedBinaryWriteEEvRT_
3018:__ZN19StreamedBinaryWrite8TransferIKN4math7_float4EEEvRT_PKc17TransferMetaFlags
3019:__Z13TransferArrayILi4EN7mecanim5human9HumanGoalE19StreamedBinaryWriteEmRAT__T0_PKcRT1_
3020:__ZN19StreamedBinaryWrite8TransferIN7mecanim4hand8HandPoseEEEvRT_PKc17TransferMetaFlags
3021:__Z13TransferArrayILi55Ef19StreamedBinaryWriteEmRAT__T0_PKcRT1_
3022:__Z13TransferArrayILi21EKN4math7_float3E19StreamedBinaryWriteEmRAT__T0_PKcRT1_
3023:__ZN19StreamedBinaryWrite8TransferI19StaticArrayTransferIKN4math7_float3ELi21EEEEvRT_PKc17TransferMetaFlags
3024:__ZN15SerializeTraitsI19StaticArrayTransferIKN4math7_float3ELi21EEE8TransferI19StreamedBinaryWriteEEvRS4_RT_
3025:__ZN19StreamedBinaryWrite21TransferSTLStyleArrayI19StaticArrayTransferIKN4math7_float3ELi21EEEEvRT_17TransferMetaFlags
3026:__ZN19StreamedBinaryWrite8TransferI19StaticArrayTransferIfLi55EEEEvRT_PKc17TransferMetaFlags
3027:__ZN15SerializeTraitsI19StaticArrayTransferIfLi55EEE8TransferI19StreamedBinaryWriteEEvRS1_RT_
3028:__ZN19StreamedBinaryWrite21TransferSTLStyleArrayI19StaticArrayTransferIfLi55EEEEvRT_17TransferMetaFlags
3029:__ZN15SerializeTraitsIN7mecanim4hand8HandPoseEE8TransferI19StreamedBinaryWriteEEvRS2_RT_
3030:__ZN7mecanim4hand8HandPose8TransferI19StreamedBinaryWriteEEvRT_
3031:__Z13TransferArrayILi20Ef19StreamedBinaryWriteEmRAT__T0_PKcRT1_
3032:__ZN19StreamedBinaryWrite8TransferI19StaticArrayTransferIN7mecanim5human9HumanGoalELi4EEEEvRT_PKc17TransferMetaFlags
3033:__ZN15SerializeTraitsI19StaticArrayTransferIN7mecanim5human9HumanGoalELi4EEE8TransferI19StreamedBinaryWriteEEvRS4_RT_
3034:__ZN19StreamedBinaryWrite21TransferSTLStyleArrayI19StaticArrayTransferIN7mecanim5human9HumanGoalELi4EEEEvRT_17TransferMetaFlags
3035:__ZN19StreamedBinaryWrite8TransferIN7mecanim5human9HumanGoalEEEvRT_PKc17TransferMetaFlags
3036:__ZN15SerializeTraitsIN7mecanim5human9HumanGoalEE8TransferI19StreamedBinaryWriteEEvRS2_RT_
3037:__ZN7mecanim5human9HumanGoal8TransferI19StreamedBinaryWriteEEvRT_
3038:__ZN15SerializeTraitsI4AABBE8TransferI19StreamedBinaryWriteEEvRS0_RT_
3039:__ZN31SerializeTraitsBaseForBasicTypeIfE8TransferI19StreamedBinaryWriteEEvRfRT_
3040:__ZN19StreamedBinaryWrite17TransferBasicDataIfEEvRT_
3041:__ZN12CachedWriter5WriteIfEEvRKT_
3042:__ZN15SerializeTraitsINSt3__26vectorIN13AnimationClip9PPtrCurveE13stl_allocatorIS3_L18MemLabelIdentifier30ELi16EEEEE8TransferI19StreamedBinaryWriteEEvRS7_RT_
3043:__ZN19StreamedBinaryWrite21TransferSTLStyleArrayINSt3__26vectorIN13AnimationClip9PPtrCurveE13stl_allocatorIS4_L18MemLabelIdentifier30ELi16EEEEEEvRT_17TransferMetaFlags
3044:__ZN19StreamedBinaryWrite8TransferIN13AnimationClip9PPtrCurveEEEvRT_PKc17TransferMetaFlags
3045:__ZN15SerializeTraitsIN13AnimationClip9PPtrCurveEE8TransferI19StreamedBinaryWriteEEvRS1_RT_
3046:__ZN13AnimationClip9PPtrCurve8TransferI19StreamedBinaryWriteEEvRT_
3047:__ZN19StreamedBinaryWrite8TransferI13dynamic_arrayI12PPtrKeyframeLm0EEEEvRT_PKc17TransferMetaFlags
3048:__ZN19StreamedBinaryWrite8TransferIN4core12basic_stringIcNS1_20StringStorageDefaultIcEEEEEEvRT_PKc17TransferMetaFlags
3049:__ZN29SerializeTraitsForStringTypesIN4core12basic_stringIcNS0_20StringStorageDefaultIcEEEEE8TransferI19StreamedBinaryWriteEEvRS4_RT_
3050:__ZN15SerializeTraitsI13dynamic_arrayI12PPtrKeyframeLm0EEE8TransferI19StreamedBinaryWriteEEvRS2_RT_
3051:__ZN19StreamedBinaryWrite21TransferSTLStyleArrayI13dynamic_arrayI12PPtrKeyframeLm0EEEEvRT_17TransferMetaFlags
3052:__ZN19StreamedBinaryWrite8TransferI12PPtrKeyframeEEvRT_PKc17TransferMetaFlags
3053:__ZN15SerializeTraitsI12PPtrKeyframeE8TransferI19StreamedBinaryWriteEEvRS0_RT_
3054:__ZN12PPtrKeyframe8TransferI19StreamedBinaryWriteEEvRT_
3055:__ZN15SerializeTraitsINSt3__26vectorIN13AnimationClip10FloatCurveE13stl_allocatorIS3_L18MemLabelIdentifier30ELi16EEEEE8TransferI19StreamedBinaryWriteEEvRS7_RT_
3056:__ZN19StreamedBinaryWrite21TransferSTLStyleArrayINSt3__26vectorIN13AnimationClip10FloatCurveE13stl_allocatorIS4_L18MemLabelIdentifier30ELi16EEEEEEvRT_17TransferMetaFlags
3057:__ZN19StreamedBinaryWrite8TransferIN13AnimationClip10FloatCurveEEEvRT_PKc17TransferMetaFlags
3058:__ZN15SerializeTraitsIN13AnimationClip10FloatCurveEE8TransferI19StreamedBinaryWriteEEvRS1_RT_
3059:__ZN13AnimationClip10FloatCurve8TransferI19StreamedBinaryWriteEEvRT_
3060:__ZN19StreamedBinaryWrite8TransferI17AnimationCurveTplIfEEEvRT_PKc17TransferMetaFlags
3061:__ZN15SerializeTraitsI17AnimationCurveTplIfEE8TransferI19StreamedBinaryWriteEEvRS1_RT_
3062:__ZN17AnimationCurveTplIfE8TransferI19StreamedBinaryWriteEEvRT_
3063:__ZN19StreamedBinaryWrite8TransferI13dynamic_arrayI11KeyframeTplIfELm0EEEEvRT_PKc17TransferMetaFlags
3064:__ZN15SerializeTraitsI13dynamic_arrayI11KeyframeTplIfELm0EEE8TransferI19StreamedBinaryWriteEEvRS3_RT_
3065:__ZN19StreamedBinaryWrite21TransferSTLStyleArrayI13dynamic_arrayI11KeyframeTplIfELm0EEEEvRT_17TransferMetaFlags
3066:__ZN19StreamedBinaryWrite8TransferI11KeyframeTplIfEEEvRT_PKc17TransferMetaFlags
3067:__ZN15SerializeTraitsI11KeyframeTplIfEE8TransferI19StreamedBinaryWriteEEvRS1_RT_
3068:__ZN11KeyframeTplIfE8TransferI19StreamedBinaryWriteEEvRT_
3069:__ZN15SerializeTraitsINSt3__26vectorIN13AnimationClip12Vector3CurveE13stl_allocatorIS3_L18MemLabelIdentifier30ELi16EEEEE8TransferI19StreamedBinaryWriteEEvRS7_RT_
3070:__ZN19StreamedBinaryWrite21TransferSTLStyleArrayINSt3__26vectorIN13AnimationClip12Vector3CurveE13stl_allocatorIS4_L18MemLabelIdentifier30ELi16EEEEEEvRT_17TransferMetaFlags
3071:__ZN19StreamedBinaryWrite8TransferIN13AnimationClip12Vector3CurveEEEvRT_PKc17TransferMetaFlags
3072:__ZN15SerializeTraitsIN13AnimationClip12Vector3CurveEE8TransferI19StreamedBinaryWriteEEvRS1_RT_
3073:__ZN13AnimationClip12Vector3Curve8TransferI19StreamedBinaryWriteEEvRT_
3074:__ZN19StreamedBinaryWrite8TransferI17AnimationCurveTplI8Vector3fEEEvRT_PKc17TransferMetaFlags
3075:__ZN15SerializeTraitsI17AnimationCurveTplI8Vector3fEE8TransferI19StreamedBinaryWriteEEvRS2_RT_
3076:__ZN17AnimationCurveTplI8Vector3fE8TransferI19StreamedBinaryWriteEEvRT_
3077:__ZN19StreamedBinaryWrite8TransferI13dynamic_arrayI11KeyframeTplI8Vector3fELm0EEEEvRT_PKc17TransferMetaFlags
3078:__ZN15SerializeTraitsI13dynamic_arrayI11KeyframeTplI8Vector3fELm0EEE8TransferI19StreamedBinaryWriteEEvRS4_RT_
3079:__ZN19StreamedBinaryWrite21TransferSTLStyleArrayI13dynamic_arrayI11KeyframeTplI8Vector3fELm0EEEEvRT_17TransferMetaFlags
3080:__ZN19StreamedBinaryWrite8TransferI11KeyframeTplI8Vector3fEEEvRT_PKc17TransferMetaFlags
3081:__ZN15SerializeTraitsI11KeyframeTplI8Vector3fEE8TransferI19StreamedBinaryWriteEEvRS2_RT_
3082:__ZN11KeyframeTplI8Vector3fE8TransferI19StreamedBinaryWriteEEvRT_
3083:__ZN19StreamedBinaryWrite8TransferI8Vector3fEEvRT_PKc17TransferMetaFlags
3084:__ZN15SerializeTraitsI8Vector3fE8TransferI19StreamedBinaryWriteEEvRS0_RT_
3085:__ZN8Vector3f8TransferI19StreamedBinaryWriteEEvRT_
3086:__ZN15SerializeTraitsINSt3__26vectorI24CompressedAnimationCurve13stl_allocatorIS2_L18MemLabelIdentifier30ELi16EEEEE8TransferI19StreamedBinaryWriteEEvRS6_RT_
3087:__ZN19StreamedBinaryWrite21TransferSTLStyleArrayINSt3__26vectorI24CompressedAnimationCurve13stl_allocatorIS3_L18MemLabelIdentifier30ELi16EEEEEEvRT_17TransferMetaFlags
3088:__ZN19StreamedBinaryWrite8TransferI24CompressedAnimationCurveEEvRT_PKc17TransferMetaFlags
3089:__ZN15SerializeTraitsI24CompressedAnimationCurveE8TransferI19StreamedBinaryWriteEEvRS0_RT_
3090:__ZN24CompressedAnimationCurve8TransferI19StreamedBinaryWriteEEvRT_
3091:__ZN19StreamedBinaryWrite8TransferI15PackedIntVectorEEvRT_PKc17TransferMetaFlags
3092:__ZN19StreamedBinaryWrite8TransferI16PackedQuatVectorEEvRT_PKc17TransferMetaFlags
3093:__ZN19StreamedBinaryWrite8TransferI17PackedFloatVectorEEvRT_PKc17TransferMetaFlags
3094:__ZN15SerializeTraitsI17PackedFloatVectorE8TransferI19StreamedBinaryWriteEEvRS0_RT_
3095:__ZN17PackedFloatVector8TransferI19StreamedBinaryWriteEEvRT_
3096:__ZN19StreamedBinaryWrite8TransferI13dynamic_arrayIhLm0EEEEvRT_PKc17TransferMetaFlags
3097:__ZN15SerializeTraitsI13dynamic_arrayIhLm0EEE8TransferI19StreamedBinaryWriteEEvRS1_RT_
3098:__ZN19StreamedBinaryWrite21TransferSTLStyleArrayI13dynamic_arrayIhLm0EEEEvRT_17TransferMetaFlags
3099:__ZN15SerializeTraitsI16PackedQuatVectorE8TransferI19StreamedBinaryWriteEEvRS0_RT_
3100:__ZN16PackedQuatVector8TransferI19StreamedBinaryWriteEEvRT_
3101:__ZN15SerializeTraitsI15PackedIntVectorE8TransferI19StreamedBinaryWriteEEvRS0_RT_
3102:__ZN15PackedIntVector8TransferI19StreamedBinaryWriteEEvRT_
3103:__ZN15SerializeTraitsINSt3__26vectorIN13AnimationClip15QuaternionCurveE13stl_allocatorIS3_L18MemLabelIdentifier30ELi16EEEEE8TransferI19StreamedBinaryWriteEEvRS7_RT_
3104:__ZN19StreamedBinaryWrite21TransferSTLStyleArrayINSt3__26vectorIN13AnimationClip15QuaternionCurveE13stl_allocatorIS4_L18MemLabelIdentifier30ELi16EEEEEEvRT_17TransferMetaFlags
3105:__ZN19StreamedBinaryWrite8TransferIN13AnimationClip15QuaternionCurveEEEvRT_PKc17TransferMetaFlags
3106:__ZN15SerializeTraitsIN13AnimationClip15QuaternionCurveEE8TransferI19StreamedBinaryWriteEEvRS1_RT_
3107:__ZN13AnimationClip15QuaternionCurve8TransferI19StreamedBinaryWriteEEvRT_
3108:__ZN19StreamedBinaryWrite8TransferI17AnimationCurveTplI11QuaternionfEEEvRT_PKc17TransferMetaFlags
3109:__ZN15SerializeTraitsI17AnimationCurveTplI11QuaternionfEE8TransferI19StreamedBinaryWriteEEvRS2_RT_
3110:__ZN17AnimationCurveTplI11QuaternionfE8TransferI19StreamedBinaryWriteEEvRT_
3111:__ZN19StreamedBinaryWrite8TransferI13dynamic_arrayI11KeyframeTplI11QuaternionfELm0EEEEvRT_PKc17TransferMetaFlags
3112:__ZN15SerializeTraitsI13dynamic_arrayI11KeyframeTplI11QuaternionfELm0EEE8TransferI19StreamedBinaryWriteEEvRS4_RT_
3113:__ZN19StreamedBinaryWrite21TransferSTLStyleArrayI13dynamic_arrayI11KeyframeTplI11QuaternionfELm0EEEEvRT_17TransferMetaFlags
3114:__ZN19StreamedBinaryWrite8TransferI11KeyframeTplI11QuaternionfEEEvRT_PKc17TransferMetaFlags
3115:__ZN15SerializeTraitsI11KeyframeTplI11QuaternionfEE8TransferI19StreamedBinaryWriteEEvRS2_RT_
3116:__ZN11KeyframeTplI11QuaternionfE8TransferI19StreamedBinaryWriteEEvRT_
3117:__ZN19StreamedBinaryWrite8TransferI11QuaternionfEEvRT_PKc17TransferMetaFlags
3118:__ZN15SerializeTraitsI11QuaternionfE8TransferI19StreamedBinaryWriteEEvRS0_RT_
3119:__ZN11Quaternionf8TransferI19StreamedBinaryWriteEEvRT_
3120:__ZN15SerializeTraitsIbE8TransferI19StreamedBinaryWriteEEvRbRT_
3121:__ZN4coreneERKNS_12basic_stringIcNS_20StringStorageDefaultIcEEEEPKc
3122:__ZN21AnimationClipSettings5ResetEv
3123:__ZN4ListI8ListNodeI14AnimationStateEE5clearEv
3124:__ZN11MessageDataC2IP13AnimationClipEET_
3125:__ZN6Motion17NotifyObjectUsersERK17MessageIdentifierR11MessageData
3126:__ZN6Motion17MainThreadCleanupEv
3127:__ZN14AnimationAsset7ReleaseEv
3128:__ZN22AnimationAssetObserveraSERKS_
3129:__ZN14AnimationAsset11AddObserverEP22AnimationAssetObserver
3130:__ZN18ScriptingObjectPtrC2ERK19ScriptingObjectNull
3131:__ZN13AnimationClip15ThreadedCleanupEv
3132:__ZN11UnityEngine9Animation28AnimationClipBindingConstantD2Ev
3133:__ZN7mecanim6memory16ChainedAllocatorD2Ev
3134:__ZN6MotionD2Ev
3135:__ZN14AnimationAssetD2Ev
3136:__ZN6MotionD0Ev
3137:__ZNK6Motion22GetTypeVirtualInternalEv
3138:__ZN7mecanim6memory16ChainedAllocator5ClearEv
3139:__ZN14AnimationAssetC2Ev
3140:__ZL25SetAdditionalCurvesValuesRN7mecanim10ValueArrayERKN11UnityEngine9Animation20AnimationSetBindingsERKNS_18ValueArrayConstantES9_RKS0_
3141:__ZN11UnityEngine9Animation29SetGenericFloatPropertyValuesERKNS0_30AnimatorGenericBindingConstantERKN7mecanim10ValueArrayE
3142:__ZN11UnityEngine9Animation28SetGenericPPtrPropertyValuesERKNS0_30AnimatorGenericBindingConstantERKN7mecanim10ValueArrayE
3143:__ZN11UnityEngine9Animation27SetGenericIntPropertyValuesERKNS0_30AnimatorGenericBindingConstantERKN7mecanim10ValueArrayE
3144:__ZN11UnityEngine9Animation31SetHumanTransformPropertyValuesERKNS0_21AvatarBindingConstantERKN7mecanim8skeleton13SkeletonPoseTIN4math4trsXEEEby
3145:__ZN11UnityEngine9Animation33SetGenericTransformPropertyValuesERKNS0_30AnimatorGenericBindingConstantERKN7mecanim10ValueArrayEP9Transformy
3146:__ZN11UnityEngine9Animation39SetGenericTransformPropertyValuesNoSyncERKNS0_30AnimatorGenericBindingConstantERKN7mecanim10ValueArrayEP9Transformy
3147:__Z10SetLocalTR15TransformAccessRKN4math7_float3ERKNS0_7_float4Ey
3148:__Z20BindAdditionalCurvesRKN7mecanim18ValueArrayConstantEmPKN11UnityEngine9Animation14GenericBindingEPi
3149:__ZN8Animator13BatchedFKPassERK13dynamic_arrayIP14PlayableOutputLm0EE
3150:__ZN8Animator13BatchedIKPassERK13dynamic_arrayIP14PlayableOutputLm0EE
3151:__ZN8Animator13UpdateAvatarsERK13dynamic_arrayIP14PlayableOutputLm0EEbbb
3152:__ZN8Animator9BuildJobsERK13dynamic_arrayIP14PlayableOutputLm0EERS0_INS_11AnimatorJobELm0EEPS7_PS0_IbLm0EESB_PS0_I8JobFenceLm0EEbb
3153:__ZNK23AnimationPlayableOutput17GetTargetAnimatorEv
3154:__ZN8Animator12CreateObjectEv
3155:__ZN14AvatarPlayback10CursorTimeEv
3156:__ZN8Animator23SetPlaybackTimeInternalEf
3157:__ZN21AnimationHandleBinder24ReadPropertySceneHandlesEv
3158:__ZN8Animator20ProcessRootMotionJobEPNS_11AnimatorJobEj
3159:__ZN8Animator19FireAnimationEventsERNS_11AnimatorJobE
3160:__ZN8Animator14FireBehavioursEN7mecanim12statemachine19StateMachineMessageERNS_11AnimatorJobEi
3161:__ZN13dynamic_arrayIN8Animator11AnimatorJobELm0EED2Ev
3162:__ZN26AnimatorControllerPlayable24ClearFirstEvaluationFlagEv
3163:__ZN8Animator19ApplyOnAnimatorMoveERNS_11AnimatorJobE
3164:__ZN7mecanim9animation31UpdateAvatarMemoryFirstEvalFlagEPNS0_12AvatarMemoryEf
3165:__ZN8Animator24SortJobsBasedOnHierarchyERK13dynamic_arrayINS_11AnimatorJobELm0EERS0_IS2_Lm0EE
3166:__ZL12GlobalXToTRS23TransformAccessReadOnlyRN4math4trsXE
3167:__ZN8Animator21ProcessAnimationsStepERNS_11AnimatorJobE
3168:__ZN8Animator12RetargetStepERNS_11AnimatorJobE
3169:__ZN8Animator9WriteStepERNS_11AnimatorJobE
3170:__ZN8Animator6IKStepERNS_11AnimatorJobE
3171:__ZN8Animator17ApplyOnAnimatorIKEiRNS_11AnimatorJobE
3172:__ZN13dynamic_arrayIS_IN8Animator11AnimatorJobELm0EELm0EED2Ev
3173:__ZN8Animator15WritePropertiesEff
3174:__ZN14AvatarPlayback11RecordFrameEfPKN7mecanim9animation12AvatarMemoryEPNS1_16ControllerMemoryE
3175:__ZN9BlobWrite8TransferIN7mecanim9animation12AvatarMemoryEEEvRT_PKc17TransferMetaFlags
3176:__ZN9BlobWrite8TransferIN7mecanim9animation16ControllerMemoryEEEvRT_PKc17TransferMetaFlags
3177:__ZNSt3__26vectorI11AvatarFrameNS_9allocatorIS1_EEE21__push_back_slow_pathIRKS1_EEvOT_
3178:__ZN7mecanim9animation16ControllerMemory8TransferI8BlobSizeEEvRT_
3179:__ZN7mecanim9animation16ControllerMemory8TransferI9BlobWriteEEvRT_
3180:__ZN9BlobWrite8TransferI22OffsetPtrArrayTransferI9OffsetPtrIN7mecanim12statemachine18StateMachineMemoryEEEEEvRT_PKc17TransferMetaFlags
3181:__ZN9BlobWrite8TransferI9OffsetPtrIN7mecanim10ValueArrayEEEEvRT_PKc17TransferMetaFlags
3182:__ZN7mecanim10ValueArray8TransferI8BlobSizeEEvRT_
3183:__ZN7mecanim10ValueArray8TransferI9BlobWriteEEvRT_
3184:__ZN9BlobWrite8TransferI22OffsetPtrArrayTransferIKN4math7_float3EEEEvRT_PKc17TransferMetaFlags
3185:__ZN9BlobWrite8TransferI22OffsetPtrArrayTransferIKN4math7_float4EEEEvRT_PKc17TransferMetaFlags
3186:__ZN9BlobWrite8TransferI22OffsetPtrArrayTransferIbEEEvRT_PKc17TransferMetaFlags
3187:__ZN34BlobWriteTransferSTLStyleArrayImplI22OffsetPtrArrayTransferIbEEclERS1_17TransferMetaFlagsR9BlobWrite
3188:__ZN34BlobWriteTransferSTLStyleArrayImplI22OffsetPtrArrayTransferIKN4math7_float4EEEclERS4_17TransferMetaFlagsR9BlobWrite
3189:__ZN34BlobWriteTransferSTLStyleArrayImplI22OffsetPtrArrayTransferIKN4math7_float3EEEclERS4_17TransferMetaFlagsR9BlobWrite
3190:__ZN9BlobWrite8TransferI9OffsetPtrIN7mecanim12statemachine18StateMachineMemoryEEEEvRT_PKc17TransferMetaFlags
3191:__ZN7mecanim12statemachine18StateMachineMemory8TransferI8BlobSizeEEvRT_
3192:__ZN7mecanim12statemachine18StateMachineMemory8TransferI9BlobWriteEEvRT_
3193:__ZN7mecanim9animation12AvatarMemory8TransferI8BlobSizeEEvRT_
3194:__ZN7mecanim9animation12AvatarMemory8TransferI9BlobWriteEEvRT_
3195:__ZN7mecanim9animation16EvaluateAvatarIKEPKNS0_14AvatarConstantEPKNS0_11AvatarInputEPNS0_12AvatarOutputEPNS0_12AvatarMemoryEPNS0_15AvatarWorkspaceEb
3196:__ZN7mecanim9animation17EvaluateAvatarEndEPKNS0_14AvatarConstantEPKNS0_11AvatarInputEPNS0_12AvatarOutputEPNS0_12AvatarMemoryEPNS0_15AvatarWorkspaceE
3197:__ZN7mecanim8skeleton16SkeletonPoseCopyIN4math4trsXES3_EEvPKNS0_13SkeletonPoseTIT_EEPNS4_IT0_EE
3198:__ZN7mecanim5human10TwistSolveEPKNS0_5HumanEPNS_8skeleton13SkeletonPoseTIN4math4trsXEEES9_
3199:__ZN7mecanim8skeleton16SkeletonPoseCopyIN4math4trsXES3_EEvPKNS0_13SkeletonPoseTIT_EEPNS4_IT0_EEjPKi
3200:__ZN7mecanim5human13HumanFixTwistEPKNS0_5HumanEPNS_8skeleton13SkeletonPoseTIN4math4trsXEEES9_iiRKf
3201:__ZN7mecanim8skeleton26SkeletonPoseComputeGlobalQEPKNS0_8SkeletonEPKNS0_13SkeletonPoseTIN4math4trsXEEEPS7_ii
3202:__ZN7mecanim8skeleton13SkeletonAlignEPKNS0_8SkeletonERKN4math7_float4ES7_i
3203:__ZN7mecanim8skeleton25SkeletonPoseComputeLocalQEPKNS0_8SkeletonEPKNS0_13SkeletonPoseTIN4math4trsXEEEPS7_ii
3204:__ZN7mecanim5human20HumanGetHintPositionEPKNS0_5HumanEPKNS_8skeleton13SkeletonPoseTIN4math4trsXEEENS0_4GoalE
3205:__ZN7mecanim5human13FullBodySolveEPKNS0_5HumanEPKNS0_9HumanPoseEPNS_8skeleton13SkeletonPoseTIN4math4trsXEEESC_SC_
3206:__ZN7mecanim5human15GetLookAtDeltaQERKN4math7_float3ES4_RKNS1_7_float4ES4_S4_RKf
3207:__ZN7mecanim8skeleton25Skeleton2BoneAdjustLengthEPKNS0_8SkeletonEiiiRKN4math7_float3ERKfPNS0_13SkeletonPoseTINS4_4trsXEEESD_
3208:__ZN7mecanim8skeleton15Skeleton2BoneIKEPKNS0_8SkeletonEiiiRKN4math7_float3EfPNS0_13SkeletonPoseTINS4_4trsXEEESB_
3209:__ZN7mecanim8skeleton23Skeleton2BoneAdjustHintEPKNS0_8SkeletonEiiiRKN4math7_float3EfPNS0_13SkeletonPoseTINS4_4trsXEEESB_f
3210:__ZN7mecanim5human17ReachGoalRotationEPKNS0_5HumanERKN4math7_float4EiPNS_8skeleton13SkeletonPoseTINS4_4trsXEEESC_SC_
3211:__ZN7mecanim5human14HumanFixEndDoFEPKNS0_5HumanEPNS_8skeleton13SkeletonPoseTIN4math4trsXEEES9_iifi
3212:__ZN7mecanim8skeleton14SkeletonGetDoFEPKNS0_8SkeletonEPKNS0_13SkeletonPoseTIN4math4trsXEEEi
3213:__ZN7mecanim8skeleton14SkeletonSetDoFEPKNS0_8SkeletonEPNS0_13SkeletonPoseTIN4math4trsXEEERKNS5_7_float3Ei
3214:__ZN11UnityEngine9Animation37SetHumanTransformPropertyValuesNoSyncERKNS0_21AvatarBindingConstantERKN7mecanim8skeleton13SkeletonPoseTIN4math4trsXEEEby
3215:__ZN7mecanim9animation21SkeletonPoseFromValueIN4math4trsXEEEvRKNS_8skeleton8SkeletonERKNS4_13SkeletonPoseTIS3_EERKNS_10ValueArrayEPKNS0_14SkeletonTQSMapERNS8_IT_EEPKib
3216:__ZN7mecanim8skeleton16SkeletonPoseCopyIN4math4trsXENS2_7affineXEEEvPKNS0_13SkeletonPoseTIT_EEPNS5_IT0_EE
3217:__ZN7mecanim8skeleton25SkeletonPoseComputeGlobalIN4math7affineXEEEvPKNS0_8SkeletonEPKNS0_13SkeletonPoseTIT_EEPS9_
3218:__ZN7mecanim8skeleton25SkeletonGetGlobalRotationEPKNS0_8SkeletonEPKNS0_13SkeletonPoseTIN4math4trsXEEEi
3219:__ZN7mecanim9animation22EvaluateAvatarRetargetEPKNS0_14AvatarConstantEPKNS0_11AvatarInputEPNS0_12AvatarOutputEPNS0_12AvatarMemoryEPNS0_15AvatarWorkspaceEb
3220:__ZN7mecanim5human10RetargetToEPKNS0_5HumanEPKNS0_9HumanPoseES6_RKN4math4trsXEPS4_PNS_8skeleton13SkeletonPoseTIS8_EESF_
3221:__ZN7mecanim9animation11SetIKOnFeetEbRKNS0_14AvatarConstantERKNS0_11AvatarInputERNS0_12AvatarMemoryERNS0_15AvatarWorkspaceERNS0_12AvatarOutputE
3222:__ZN7mecanim5human30HumanPoseAdjustForMissingBonesEPKNS0_5HumanEPNS0_9HumanPoseE
3223:__ZN7mecanim5human18Human2SkeletonPoseEPKNS0_5HumanEPKNS0_9HumanPoseEPNS_8skeleton13SkeletonPoseTIN4math4trsXEEE
3224:__ZN7mecanim5human14RetargetToTDoFEPKNS0_5HumanEPNS0_9HumanPoseEPKNS_8skeleton13SkeletonPoseTIN4math4trsXEEEPSA_SD_
3225:__ZN7mecanim5human26HumanComputeBoneMassCenterEPKNS0_5HumanEPKNS_8skeleton13SkeletonPoseTIN4math4trsXEEEi
3226:__ZN7mecanim5human23HumanComputeOrientationEPKNS0_5HumanEPKNS_8skeleton13SkeletonPoseTIN4math4trsXEEE
3227:__ZN7mecanim4hand17Hand2SkeletonPoseEPKNS0_4HandEPKNS_8skeleton8SkeletonEPKNS0_8HandPoseEPNS4_13SkeletonPoseTIN4math4trsXEEE
3228:__ZN8Animator22SupportsOnAnimatorMoveEv
3229:__ZN12_GLOBAL__N_121ProcessAnimationBeginER35AnimationPlayableEvaluationConstantR32AnimationPlayableEvaluationInputR33AnimationPlayableEvaluationOutput
3230:__ZN12_GLOBAL__N_119ProcessAnimationMixER33AnimationPlayableEvaluationOutputR35AnimationPlayableEvaluationConstantR32AnimationPlayableEvaluationInputS1_f
3231:__ZN12_GLOBAL__N_119ProcessAnimationEndER35AnimationPlayableEvaluationConstantR32AnimationPlayableEvaluationInputR33AnimationPlayableEvaluationOutput
3232:__ZN12_GLOBAL__N_120ProcessPlayableGraphERN8Animator11AnimatorJobER35AnimationPlayableEvaluationConstantR32AnimationPlayableEvaluationInputR33AnimationPlayableEvaluationOutputPFvS4_R17AnimationPlayableEPFvS4_S6_S8_EPFvS8_S4_S6_S8_fESE_MS9_FvPS3_PS5_PS7_E
3233:__ZN17AnimationPlayable28UpdateInternalStateRecursiveILi3ELb1EEEvPK35AnimationPlayableEvaluationConstant
3234:__ZN12_GLOBAL__N_120PreProcessRootMotionER35AnimationPlayableEvaluationConstantR17AnimationPlayable
3235:__ZN12_GLOBAL__N_122ProcessRootMotionBeginER35AnimationPlayableEvaluationConstantR32AnimationPlayableEvaluationInputR33AnimationPlayableEvaluationOutput
3236:__ZN12_GLOBAL__N_120ProcessRootMotionEndER35AnimationPlayableEvaluationConstantR32AnimationPlayableEvaluationInputR33AnimationPlayableEvaluationOutput
3237:__ZN12_GLOBAL__N_120ProcessRootMotionMixER33AnimationPlayableEvaluationOutputR35AnimationPlayableEvaluationConstantR32AnimationPlayableEvaluationInputS1_f
3238:__ZN27AnimationLayerMixerPlayable13MixRootMotionEP33AnimationPlayableEvaluationOutputP35AnimationPlayableEvaluationConstantP32AnimationPlayableEvaluationInputS1_fb
3239:__ZN27AnimationLayerMixerPlayable22MixRootTransformValuesEP33AnimationPlayableEvaluationOutputP35AnimationPlayableEvaluationConstantP32AnimationPlayableEvaluationInputS1_fb
3240:__ZN27AnimationLayerMixerPlayable9MixValuesILb1EEEvP33AnimationPlayableEvaluationOutputP35AnimationPlayableEvaluationConstantP32AnimationPlayableEvaluationInputS2_f
3241:__ZN7mecanim15InvertValueMaskILb0EEEvPNS_14ValueArrayMaskE
3242:__ZN27AnimationLayerMixerPlayable9MixValuesILb0EEEvP33AnimationPlayableEvaluationOutputP35AnimationPlayableEvaluationConstantP32AnimationPlayableEvaluationInputS2_f
3243:__ZL7JobSortPKN8Animator11AnimatorJobES2_
3244:__ZNSt3__26__sortIRPFbPKN8Animator11AnimatorJobES4_EPS4_EEvT0_S9_T_
3245:__ZN13dynamic_arrayIN8Animator11AnimatorJobELm0EE4growEv
3246:__ZN15AllocatorTraitsIN8Animator11AnimatorJobELb0EE9ConstructEPS1_RK10MemLabelIdRKS1_
3247:__ZN13dynamic_arrayI22AnimationClipEventInfoLm0EE21resize_buffer_nocheckEm12ResizePolicy
3248:__ZNSt3__27__sort4IRPFbPKN8Animator11AnimatorJobES4_EPS4_EEjT0_S9_S9_S9_T_
3249:__ZNSt3__218__insertion_sort_3IRPFbPKN8Animator11AnimatorJobES4_EPS4_EEvT0_S9_T_
3250:__ZNSt3__227__insertion_sort_incompleteIRPFbPKN8Animator11AnimatorJobES4_EPS4_EEbT0_S9_T_
3251:__ZN8Animator22ApplyBuiltinRootMotionERNS_13AvatarDataSetE
3252:__ZN11UnityEngine9Animation37SetGenericRootTransformPropertyValuesERKNS0_30AnimatorGenericBindingConstantERKN7mecanim10ValueArrayER15TransformAccessby
3253:__ZL13TRSToGlobalTR15TransformAccessRKN4math4trsXE
3254:__ZNK26AnimatorControllerPlayable20GetAnimatorStateInfoEi14StateInfoIndexR17AnimatorStateInfo
3255:__ZNK27StateMachineBehaviourPlayer18FireStateBehaviourER17AnimatorStateInfoiN7mecanim12statemachine19StateMachineMessageE
3256:__ZNK26AnimatorControllerPlayable18ValidateLayerIndexEi
3257:__ZN13AnimationClip19FireAnimationEventsEP22AnimationClipEventInfoRN5Unity9ComponentE
3258:__ZN13AnimationClip9GetEventsEv
3259:__Z9FireEventR14AnimationEventRN5Unity9ComponentEP14AnimationStateP17AnimatorStateInfoP16AnimatorClipInfo
3260:__Z20AnimationEventToMonoRK14AnimationEventR18MonoAnimationEvent
3261:__Z22AnimatorClipInfoToMonoRK16AnimatorClipInfoR20MonoAnimatorClipInfo
3262:__ZN8Animator21ProcessRootMotionStepERNS_11AnimatorJobE
3263:__ZN7mecanim9animation16EvaluateAvatarDXEPKNS0_14AvatarConstantEPKNS0_11AvatarInputEPNS0_12AvatarMemoryEPNS0_15AvatarWorkspaceEPNS0_12AvatarOutputE
3264:__ZN8Animator11TargetMatchEv
3265:__ZN7mecanim9animation28MotionOutputGetDeltaPositionEPKNS0_12MotionOutputE
3266:__ZN7mecanim9animation28MotionOutputGetDeltaRotationEPKNS0_12MotionOutputE
3267:__ZN7mecanim9animation23MotionOutputGetVelocityEPKNS0_12MotionOutputE
3268:__ZN7mecanim9animation30MotionOutputGetAngularVelocityEPKNS0_12MotionOutputE
3269:__ZN7mecanim9animation15EvaluateAvatarXEPKNS0_14AvatarConstantEPKNS0_11AvatarInputEPNS0_12AvatarOutputEPNS0_12AvatarMemoryEPNS0_15AvatarWorkspaceE
3270:__ZN7mecanim9animation29MotionOutputGetDeltaTransformEPKNS0_12MotionOutputE
3271:__ZNK26AnimatorControllerPlayable22IsInTransitionInternalEi
3272:__ZNK8Animator20IsInMatchTargetStateEv
3273:__ZN7mecanim5human29HumanGetGoalOrientationOffsetENS0_4GoalE
3274:__ZN7mecanim9animation29MotionOutputSetDeltaTransformEPNS0_12MotionOutputERKN4math4trsXE
3275:__ZNK26AnimatorControllerPlayable21GetStateMachineMemoryEi
3276:__ZN7mecanim9animation28MotionOutputSetDeltaPositionEPNS0_12MotionOutputERKN4math7_float3E
3277:__ZN11UnityEngine9Animation28GetBoundCurveInstanceIDValueERKNS0_10BoundCurveE
3278:__ZN11UnityEngine9Animation23GetBoundCurveFloatValueERKNS0_10BoundCurveE
3279:__ZN14AvatarPlayback9PlayFrameEfRPN7mecanim9animation12AvatarMemoryERPNS1_16ControllerMemoryE
3280:__ZN8Animator18PrepareForPlaybackEv
3281:__ZN26AnimatorControllerPlayable15SetRecorderDataEPN7mecanim9animation16ControllerMemoryER20RuntimeBaseAllocator
3282:__ZN34AnimationStateMachineMixerPlayable16ArrangePlayablesEbb
3283:__ZN26AnimatorControllerPlayable18PrepareForPlaybackER20RuntimeBaseAllocator
3284:__ZN8Animator11ClearObjectEv
3285:__ZN8Animator18SetupAvatarDataSetEPKN7mecanim9animation14AvatarConstantERNS_13AvatarDataSetEb
3286:__ZNK21AnimationHandleBinder23HaveUnboundStreamHandleEPKN7mecanim9animation14AvatarConstantE
3287:__ZN13AvatarBuilder41BuildAvatarConstantFromTransformHierarchyEP6AvatarRK10GameObjectR20RuntimeBaseAllocator
3288:__ZN7mecanim9animation20CreateAvatarConstantEPNS_8skeleton8SkeletonEPNS1_13SkeletonPoseTIN4math4trsXEEES8_PNS_5human5HumanES3_iRKS6_R20RuntimeBaseAllocator
3289:__ZN7mecanim9animation18CreateAvatarMemoryEPKNS0_14AvatarConstantER20RuntimeBaseAllocator
3290:__ZN7mecanim9animation17CreateAvatarInputEPKNS0_14AvatarConstantER20RuntimeBaseAllocator
3291:__ZN7mecanim9animation21CreateAvatarWorkspaceEPKNS0_14AvatarConstantER20RuntimeBaseAllocator
3292:__ZN7mecanim9animation18CreateAvatarOutputEPKNS0_14AvatarConstantEbR20RuntimeBaseAllocator
3293:__ZN11UnityEngine9Animation27CreateAvatarBindingConstantER9TransformPKN7mecanim9animation14AvatarConstantER20RuntimeBaseAllocator
3294:__ZN11UnityEngine9Animation30CreateAvatarBindingConstantOptER9TransformPKN7mecanim9animation14AvatarConstantER20RuntimeBaseAllocator
3295:__ZN13dynamic_arrayIN11UnityEngine9Animation16ExposedTransformELm0EEC2EmRK10MemLabelId
3296:__ZN11UnityEngine9Animation28RegisterAvatarBindingObjectsEPNS0_21AvatarBindingConstantE
3297:__ZN11UnityEngine9Animation21AvatarBindingCallbackEPvS1_i
3298:__ZN7mecanim8skeleton18CreateSkeletonPoseIN4math7affineXEEEPNS0_13SkeletonPoseTIT_EEPKNS0_8SkeletonER20RuntimeBaseAllocator
3299:__ZN7mecanim8skeleton23SkeletonBuildIndexArrayEPiPKNS0_8SkeletonES4_
3300:__ZN7mecanim8skeleton30SkeletonBuildReverseIndexArrayEPiPKiPKNS0_8SkeletonES6_
3301:__ZN16HumanDescription5ResetEv
3302:__ZNK6Avatar7IsValidEv
3303:__ZNK6Avatar19GetHumanDescriptionEv
3304:__ZN16HumanDescriptionaSERKS_
3305:__ZNK6Avatar7IsHumanEv
3306:__ZN13AvatarBuilder23IsValidHumanDescriptionERK16HumanDescriptionRN4core12basic_stringIcNS3_20StringStorageDefaultIcEEEEb
3307:__ZN13AvatarBuilder17GenerateAvatarMapERK10GameObjectR13dynamic_arrayINS_14NamedTransformELm0EES6_RK16HumanDescription10AvatarTypebRN4core12basic_stringIcNSB_20StringStorageDefaultIcEEEE
3308:__ZN13dynamic_arrayIN13AvatarBuilder14NamedTransformELm0EED2Ev
3309:__ZN13AvatarBuilder14GetAllChildrenER9TransformR13dynamic_arrayINS_14NamedTransformELm0EERKS2_IN4core12basic_stringIcNS6_20StringStorageDefaultIcEEEELm0EE
3310:__ZN13AvatarBuilder19BuildAvatarConstantERK13dynamic_arrayINS_14NamedTransformELm0EERK10GameObjectRK16HumanDescriptionbRN4core8hash_mapIjNSB_17string_with_labelILi30EcEENSB_4hashIjEENSt3__28equal_toIjEEEER20RuntimeBaseAllocatorbb
3311:__ZN13dynamic_arrayI12SkeletonBoneLm0EED2Ev
3312:__ZN13dynamic_arrayI9HumanBoneLm0EED2Ev
3313:__ZN7mecanim8skeleton14CreateSkeletonEiiR20RuntimeBaseAllocator
3314:__Z14AddStringToTOSRN4core8hash_mapIjNS_17string_with_labelILi30EcEENS_4hashIjEENSt3__28equal_toIjEEEEjRKNS_12basic_stringIcNS_20StringStorageDefaultIcEEEE
3315:__ZN13AvatarBuilder36ReadFromLocalTransformToSkeletonPoseEPN7mecanim8skeleton13SkeletonPoseTIN4math4trsXEEERK13dynamic_arrayINS_14NamedTransformELm0EE
3316:__ZN12_GLOBAL__N_120GetIndexFromBoneNameEPKN13AvatarBuilder14NamedTransformES3_RKN4core12basic_stringIcNS4_20StringStorageDefaultIcEEEE
3317:__ZN10HumanTrait4Body12GetBoneCountEv
3318:__ZN10HumanTrait4Body11GetBoneNameEi
3319:__ZN10HumanTrait10LeftFinger12GetBoneCountEv
3320:__ZN10HumanTrait10LeftFinger11GetBoneNameEi
3321:__ZN10HumanTrait11RightFinger11GetBoneNameEi
3322:__ZN7mecanim5human11CreateHumanEPNS_8skeleton8SkeletonEPNS1_13SkeletonPoseTIN4math4trsXEEER20RuntimeBaseAllocator
3323:__ZN7mecanim4hand10CreateHandER20RuntimeBaseAllocator
3324:__ZN7mecanim8skeleton16SkeletonPoseCopyIN4math4trsXES3_EEvPKNS0_8SkeletonEPKNS0_13SkeletonPoseTIT_EES6_PNS7_IT0_EE
3325:__ZN7mecanim5human15HumanAdjustMassEPNS0_5HumanE
3326:__ZN7mecanim5human14HumanSetupAxesEPNS0_5HumanEPKNS_8skeleton13SkeletonPoseTIN4math4trsXEEE
3327:__ZN7mecanim4hand13HandSetupAxesEPKNS0_4HandEPKNS_8skeleton13SkeletonPoseTIN4math4trsXEEEPNS4_8SkeletonEb
3328:__ZN7mecanim8skeleton9SetupAxesEPNS0_8SkeletonEPKNS0_13SkeletonPoseTIN4math4trsXEEERKNS4_13SetupAxesInfoEiibf
3329:__ZN7mecanim8skeleton24SkeletonPoseComputeLocalIN4math4trsXEEEvPKNS0_8SkeletonEPKNS0_13SkeletonPoseTIT_EEPS9_
3330:__ZN10HumanTrait13GetFingerNameEib
3331:__ZN4core17string_with_labelILi1EcEC2EPKc
3332:__ZN7mecanim4hand10FingerNameEj
3333:__ZN7mecanim4hand12PhalangeNameEj
3334:__ZN7mecanim5human8BoneNameEj
3335:__ZN4core8hash_mapIjNS_17string_with_labelILi30EcEENS_4hashIjEENSt3__28equal_toIjEEE6insertERKjRKS2_
3336:__ZN4core8hash_setINS_4pairIKjNS_17string_with_labelILi30EcEELb1EEENS_9hash_pairINS_4hashIjEES2_S4_EENS_10equal_pairINSt3__28equal_toIjEES2_S4_EEE4growEi
3337:__ZN13AvatarBuilder14GetAllChildrenER9TransformRN4core12basic_stringIcNS2_20StringStorageDefaultIcEEEER13dynamic_arrayINS_14NamedTransformELm0EERKS8_IS6_Lm0EERK5crc32
3338:__ZN13dynamic_arrayIN13AvatarBuilder14NamedTransformELm0EE4growEv
3339:__ZN13AvatarBuilder17GetRootMotionNodeERKN4core12basic_stringIcNS0_20StringStorageDefaultIcEEEERK13dynamic_arrayINS_14NamedTransformELm0EE
3340:__ZN13AvatarBuilder22RemoveAllNoneHumanLeafER13dynamic_arrayINS_14NamedTransformELm0EERK16HumanDescription
3341:__ZN13AvatarBuilder12IsValidHumanERK16HumanDescriptionRK13dynamic_arrayINS_14NamedTransformELm0EER9TransformRN4core12basic_stringIcNSA_20StringStorageDefaultIcEEEE
3342:__ZN10HumanTrait12GetBoneNamesEv
3343:__ZN13AvatarBuilder12GetTransformEiRK16HumanDescriptionRK13dynamic_arrayINS_14NamedTransformELm0EERKS3_IN4core12basic_stringIcNS8_20StringStorageDefaultIcEEEELm0EE
3344:__ZN10HumanTrait9GetParentEi
3345:__ZN10HumanTrait12RequiredBoneEi
3346:__ZN13AvatarBuilder21IsValidHumanHierarchyERK16HumanDescriptionRK13dynamic_arrayINS_14NamedTransformELm0EER9TransformRN4core12basic_stringIcNSA_20StringStorageDefaultIcEEEE
3347:__ZN7mecanim5human12RequiredBoneEj
3348:__ZN7mecanim5human15BoneParentIndexEi
3349:__ZN13dynamic_arrayI9HumanBoneLm0EE21resize_buffer_nocheckEm12ResizePolicy
3350:__Z30copy_construct_array_autolabelI9HumanBoneEvPT_mPKS1_RK10MemLabelId
3351:__ZN13dynamic_arrayI12SkeletonBoneLm0EE21resize_buffer_nocheckEm12ResizePolicy
3352:__Z30copy_construct_array_autolabelI12SkeletonBoneEvPT_mPKS1_RK10MemLabelId
3353:__ZN8Animator13AvatarDataSet5ResetEv
3354:__ZN8Animator31ClearInternalControllerPlayableEv
3355:__ZN7mecanim9animation21DestroyAvatarConstantEPNS0_14AvatarConstantER20RuntimeBaseAllocator
3356:__ZN7mecanim9animation19DestroyAvatarOutputEPNS0_12AvatarOutputER20RuntimeBaseAllocator
3357:__ZN7mecanim9animation22DestroyAvatarWorkspaceEPNS0_15AvatarWorkspaceER20RuntimeBaseAllocator
3358:__ZN11UnityEngine9Animation28DestroyAvatarBindingConstantEPNS0_21AvatarBindingConstantER20RuntimeBaseAllocator
3359:__ZN7mecanim8skeleton15DestroySkeletonEPNS0_8SkeletonER20RuntimeBaseAllocator
3360:__ZN7mecanim5human12DestroyHumanEPNS0_5HumanER20RuntimeBaseAllocator
3361:__ZN8Animator11AnimatorJob11AddPlayableEP17AnimationPlayablefi21AnimationStreamSource
3362:__ZN21AnimationHandleBinder31SyncSceneHandlesTransformAccessEv
3363:__ZN13dynamic_arrayIbLm0EE4growEv
3364:__ZN13dynamic_arrayI25PlayableNotificationEntryLm0EED2Ev
3365:__ZN8Animator26AnimatorVisibilityCallbackEPvS0_i
3366:__ZN8Animator19SetVisibleRenderersEb
3367:__ZN8Animator8TransferI14SafeBinaryReadEEvRT_
3368:__ZN8Animator8TransferI24GenerateTypeTreeTransferEEvRT_
3369:__ZN8Animator8TransferI18StreamedBinaryReadEEvRT_
3370:__ZN8Animator8TransferI19StreamedBinaryWriteEEvRT_
3371:__ZN8Animator27InitializeVisibilityCullingEv
3372:__ZN8Animator34RecomputeContainedRenderersRecurseER9Transform
3373:__ZN21AnimationHandleBinder17MainThreadCleanupEv
3374:__ZL39InvalidateSceneHandleTransformsCallbackPvS_i
3375:__ZN8Animator18AutoMecanimDataSet5ResetEv
3376:__ZN13dynamic_arrayI31AnimationStreamHandleDefinitionLm0EED2Ev
3377:__ZN25RuntimeAnimatorController23DestroyCustomControllerEPN7mecanim9animation18ControllerConstantER20RuntimeBaseAllocator
3378:__ZN7mecanim9animation24DestroyBlendTreeConstantEPNS0_17BlendTreeConstantER20RuntimeBaseAllocator
3379:__ZN7mecanim12statemachine20DestroyStateConstantEPNS0_13StateConstantER20RuntimeBaseAllocator
3380:__ZN7mecanim9animation25DestroyControllerConstantEPNS0_18ControllerConstantER20RuntimeBaseAllocator
3381:__ZN7mecanim9animation28DestroyBlendTreeNodeConstantEPNS0_21BlendTreeNodeConstantER20RuntimeBaseAllocator
3382:__ZN14AvatarPlaybackD2Ev
3383:__ZN14AvatarPlaybackD0Ev
3384:__ZN26AnimatorOverrideControllerD2Ev
3385:__ZN26AnimatorOverrideControllerD0Ev
3386:__ZN26AnimatorOverrideController17MainThreadCleanupEv
3387:__ZN26AnimatorOverrideController13AwakeFromLoadE17AwakeFromLoadMode
3388:__ZNK26AnimatorOverrideController22GetTypeVirtualInternalEv
3389:__ZN26AnimatorOverrideController23VirtualRedirectTransferER19StreamedBinaryWrite
3390:__ZN26AnimatorOverrideController23VirtualRedirectTransferER18StreamedBinaryRead
3391:__ZN26AnimatorOverrideController23VirtualRedirectTransferER17RemapPPtrTransfer
3392:__ZN26AnimatorOverrideController23VirtualRedirectTransferER24GenerateTypeTreeTransfer
3393:__ZN26AnimatorOverrideController23VirtualRedirectTransferER14SafeBinaryRead
3394:__ZN26AnimatorOverrideController8GetAssetEb
3395:__ZN26AnimatorOverrideController23GetAnimationSetBindingsEv
3396:__ZNK26AnimatorOverrideController17GetAnimationClipsEv
3397:__ZNK26AnimatorOverrideController12StringFromIDEj
3398:__ZNK26AnimatorOverrideController13GetBehavioursEv
3399:__ZNK26AnimatorOverrideController41GetStateMachineBehaviourVectorDescriptionEv
3400:__ZNK26AnimatorOverrideController28HasMultiThreadedStateMachineEv
3401:__ZNK26AnimatorOverrideController30GetAnimationClipOverrideVectorEv
3402:__ZN25RuntimeAnimatorController22RegisterAnimationClipsEv
3403:__ZNK26AnimatorOverrideController27GetAnimationClipsToRegisterEv
3404:__ZN26AnimatorOverrideController10BuildAssetEv
3405:__ZN26AnimatorOverrideController10ClearAssetE29AnimationAssetChangeEventType
3406:__ZN11UnityEngine9Animation26CreateAnimationSetBindingsERK13dynamic_arrayI4PPtrI13AnimationClipELm0EER20RuntimeBaseAllocator
3407:__ZNK26AnimatorOverrideController16GetOverrideClipsEv
3408:__ZNK26AnimatorOverrideController16GetOriginalClipsEv
3409:__Z15return_overrideRK21AnimationClipOverride
3410:__ZNSt3__26__sortIRNS_6__lessI4PPtrI13AnimationClipES4_EEPS4_EEvT0_S8_T_
3411:__ZNSt3__27__sort5IRNS_6__lessI4PPtrI13AnimationClipES4_EEPS4_EEjT0_S8_S8_S8_S8_T_
3412:__ZNSt3__227__insertion_sort_incompleteIRNS_6__lessI4PPtrI13AnimationClipES4_EEPS4_EEbT0_S8_T_
3413:__Z16return_effectiveRK21AnimationClipOverride
3414:__ZN26AnimatorOverrideController8TransferI14SafeBinaryReadEEvRT_
3415:__ZN25RuntimeAnimatorController8TransferI14SafeBinaryReadEEvRT_
3416:__ZN14SafeBinaryRead21TransferSTLStyleArrayI13dynamic_arrayI21AnimationClipOverrideLm0EEEEvRT_17TransferMetaFlags
3417:__ZN21AnimationClipOverride8TransferI14SafeBinaryReadEEvRT_
3418:__ZN26AnimatorOverrideController8TransferI24GenerateTypeTreeTransferEEvRT_
3419:__ZN25RuntimeAnimatorController8TransferI24GenerateTypeTreeTransferEEvRT_
3420:__ZN21AnimationClipOverride8TransferI24GenerateTypeTreeTransferEEvRT_
3421:__ZN25RuntimeAnimatorController8TransferI17RemapPPtrTransferEEvRT_
3422:__ZN25RuntimeAnimatorController8TransferI18StreamedBinaryReadEEvRT_
3423:__ZN18StreamedBinaryRead21TransferSTLStyleArrayI13dynamic_arrayI21AnimationClipOverrideLm0EEEEvRT_17TransferMetaFlags
3424:__ZN26AnimatorOverrideController8TransferI19StreamedBinaryWriteEEvRT_
3425:__ZN25RuntimeAnimatorController8TransferI19StreamedBinaryWriteEEvRT_
3426:__ZN25RuntimeAnimatorController17NotifyObjectUsersERK17MessageIdentifier
3427:__ZN25RuntimeAnimatorController17MainThreadCleanupEv
3428:__ZN25RuntimeAnimatorControllerD2Ev
3429:__ZNK25RuntimeAnimatorController22GetTypeVirtualInternalEv
3430:__ZN25RuntimeAnimatorController23VirtualRedirectTransferER18StreamedBinaryRead
3431:__ZN25RuntimeAnimatorController23VirtualRedirectTransferER24GenerateTypeTreeTransfer
3432:__ZN25RuntimeAnimatorController23VirtualRedirectTransferER14SafeBinaryRead
3433:__ZN14SafeBinaryRead19TransferSTLStyleMapIN4core8hash_mapIjNS1_17string_with_labelILi30EcEENS1_4hashIjEENSt3__28equal_toIjEEEEEEvRT_17TransferMetaFlags
3434:__ZN15SerializeTraitsIN4core4pairIjNS0_17string_with_labelILi30EcEELb1EEEE8TransferI14SafeBinaryReadEEvRS4_RT_
3435:__ZN4core8hash_setINS_4pairIKjNS_17string_with_labelILi30EcEELb1EEENS_9hash_pairINS_4hashIjEES2_S4_EENS_10equal_pairINSt3__28equal_toIjEES2_S4_EEE6insertIRNS1_IjS4_Lb1EEEEENS1_INSF_13node_iteratorIS5_EEbLb0EEEOT_
3436:__ZN14SafeBinaryRead21TransferSTLStyleArrayI22OffsetPtrArrayTransferIiEEEvRT_17TransferMetaFlags
3437:__ZN18StreamedBinaryRead19TransferSTLStyleMapIN4core8hash_mapIjNS1_17string_with_labelILi30EcEENS1_4hashIjEENSt3__28equal_toIjEEEEEEvRT_17TransferMetaFlags
3438:__ZN15SerializeTraitsIN4core8hash_mapIjNS0_17string_with_labelILi30EcEENS0_4hashIjEENSt3__28equal_toIjEEEEE8TransferI19StreamedBinaryWriteEEvRS9_RT_
3439:__ZN14SafeBinaryRead21TransferSTLStyleArrayI13dynamic_arrayIjLm0EEEEvRT_17TransferMetaFlags
3440:__ZN13dynamic_arrayIjLm0EEC2EmRKjRK10MemLabelId
3441:__ZN25AnimatedPropertyEvaluatorD2Ev
3442:__ZN25AnimatedPropertyEvaluatorD0Ev
3443:__ZN25AnimatedPropertyEvaluator10UpdateSyncEf18ScriptingObjectPtr
3444:__ZN16AnimatedProperty6UpdateEf18ScriptingObjectPtr
3445:__ZN16AnimatedPropertyD2Ev
3446:__ZN16MecanimAnimation19PathHashesToIndicesERN5Unity9ComponentEPKjmPt
3447:__ZN16MecanimAnimation25RegisterIAnimationBindingEPKN5Unity4TypeEiP17IAnimationBinding
3448:__ZN16MecanimAnimation40GetReadWriteGlobalSpaceSkeletonPoseFenceEPN5Unity9ComponentE
3449:__ZN16MecanimAnimation23BuildAnimatedPropertiesEPK6Object18ScriptingObjectPtr
3450:__ZN16MecanimAnimation24DeleteAnimatedPropertiesERP26IAnimatedPropertyEvaluator
3451:__ZN25AnimatedPropertyEvaluator25BuildFromScriptableObjectEPK13AnimationClip18ScriptingObjectPtr
3452:__ZN25AnimatedPropertyEvaluator29BindCurveToScriptingObjectPtrERKN13AnimationClip10FloatCurveEj18ScriptingObjectPtrb
3453:__ZN16AnimatedPropertyC2ERK16PropertyAccessorRK17AnimationCurveTplIfE
3454:__ZN25AnimatedPropertyEvaluatorC2Ev
3455:__ZN11UnityEngine9Animation28GenericAnimationBindingCache25RegisterIAnimationBindingEPKN5Unity4TypeEiP17IAnimationBinding
3456:__ZN8Animator17GetAvatarConstantEv
3457:__ZN8Animator9GetAvatarEv
3458:__ZN18AnimatorControllerD2Ev
3459:__ZN18AnimatorControllerD0Ev
3460:__ZN18AnimatorController17MainThreadCleanupEv
3461:__ZN18AnimatorController13AwakeFromLoadE17AwakeFromLoadMode
3462:__ZNK18AnimatorController22GetTypeVirtualInternalEv
3463:__ZN18AnimatorController23VirtualRedirectTransferER19StreamedBinaryWrite
3464:__ZN18AnimatorController23VirtualRedirectTransferER18StreamedBinaryRead
3465:__ZN18AnimatorController23VirtualRedirectTransferER17RemapPPtrTransfer
3466:__ZN18AnimatorController23VirtualRedirectTransferER24GenerateTypeTreeTransfer
3467:__ZN18AnimatorController23VirtualRedirectTransferER14SafeBinaryRead
3468:__ZN18AnimatorController8GetAssetEb
3469:__ZNK18AnimatorController17GetAnimationClipsEv
3470:__ZNK18AnimatorController12StringFromIDEj
3471:__ZNK18AnimatorController13GetBehavioursEv
3472:__ZNK18AnimatorController41GetStateMachineBehaviourVectorDescriptionEv
3473:__ZNK18AnimatorController28HasMultiThreadedStateMachineEv
3474:__ZNK18AnimatorController27GetAnimationClipsToRegisterEv
3475:__ZN18AnimatorController19TransferRuntimeDataI14SafeBinaryReadEEvRT_
3476:__Z21TransferBlobSerializeIN7mecanim9animation18ControllerConstantE14SafeBinaryReadEvRPT_PKcRjS8_RT0_
3477:__ZN14SafeBinaryRead21TransferSTLStyleArrayI13dynamic_arrayI4PPtrI13AnimationClipELm0EEEEvRT_17TransferMetaFlags
3478:__ZN38StateMachineBehaviourVectorDescription8TransferI14SafeBinaryReadEEvRT_
3479:__ZN14SafeBinaryRead21TransferSTLStyleArrayI13dynamic_arrayI4PPtrI13MonoBehaviourELm0EEEEvRT_17TransferMetaFlags
3480:__ZN14SafeBinaryRead21TransferSTLStyleArrayI10vector_mapI8StateKey10StateRangeNSt3__24lessIS2_EENS4_9allocatorINS4_4pairIS2_S3_EEEEEEEvRT_17TransferMetaFlags
3481:__ZNSt3__26vectorINS_4pairI8StateKey10StateRangeEENS_9allocatorIS4_EEE8__appendEm
3482:__ZN15SerializeTraitsINSt3__24pairI8StateKey10StateRangeEEE8TransferI14SafeBinaryReadEEvRS4_RT_
3483:__ZN8StateKey8TransferI14SafeBinaryReadEEvRT_
3484:__ZN10StateRange8TransferI14SafeBinaryReadEEvRT_
3485:__ZN7mecanim9animation18ControllerConstant8TransferI14SafeBinaryReadEEvRT_
3486:__ZN14SafeBinaryRead21TransferSTLStyleArrayI22OffsetPtrArrayTransferI9OffsetPtrIN7mecanim9animation13LayerConstantEEEEEvRT_17TransferMetaFlags
3487:__ZN14SafeBinaryRead21TransferSTLStyleArrayI22OffsetPtrArrayTransferI9OffsetPtrIN7mecanim12statemachine20StateMachineConstantEEEEEvRT_17TransferMetaFlags
3488:__ZN15SerializeTraitsI9OffsetPtrIN7mecanim18ValueArrayConstantEEE8TransferI14SafeBinaryReadEEvRS3_RT_
3489:__ZN7mecanim10ValueArray8TransferI14SafeBinaryReadEEvRT_
3490:__ZN14SafeBinaryRead21TransferSTLStyleArrayI22OffsetPtrArrayTransferIKN4math7_float3EEEEvRT_17TransferMetaFlags
3491:__ZN14SafeBinaryRead21TransferSTLStyleArrayI22OffsetPtrArrayTransferIKN4math7_float4EEEEvRT_17TransferMetaFlags
3492:__ZN14SafeBinaryRead21TransferSTLStyleArrayI22OffsetPtrArrayTransferIbEEEvRT_17TransferMetaFlags
3493:__ZN14SafeBinaryRead21TransferSTLStyleArrayI22OffsetPtrArrayTransferIN7mecanim13ValueConstantEEEEvRT_17TransferMetaFlags
3494:__ZN7mecanim13ValueConstant8TransferI14SafeBinaryReadEEvRT_
3495:__ZN7mecanim12statemachine20StateMachineConstant8TransferI14SafeBinaryReadEEvRT_
3496:__ZN14SafeBinaryRead21TransferSTLStyleArrayI22OffsetPtrArrayTransferI9OffsetPtrIN7mecanim12statemachine13StateConstantEEEEEvRT_17TransferMetaFlags
3497:__ZN14SafeBinaryRead21TransferSTLStyleArrayI22OffsetPtrArrayTransferI9OffsetPtrIN7mecanim12statemachine18TransitionConstantEEEEEvRT_17TransferMetaFlags
3498:__ZN14SafeBinaryRead21TransferSTLStyleArrayI22OffsetPtrArrayTransferI9OffsetPtrIN7mecanim12statemachine21SelectorStateConstantEEEEEvRT_17TransferMetaFlags
3499:__ZN7mecanim12statemachine21SelectorStateConstant8TransferI14SafeBinaryReadEEvRT_
3500:__ZN14SafeBinaryRead21TransferSTLStyleArrayI22OffsetPtrArrayTransferI9OffsetPtrIN7mecanim12statemachine26SelectorTransitionConstantEEEEEvRT_17TransferMetaFlags
3501:__ZN7mecanim12statemachine26SelectorTransitionConstant8TransferI14SafeBinaryReadEEvRT_
3502:__ZN14SafeBinaryRead21TransferSTLStyleArrayI22OffsetPtrArrayTransferI9OffsetPtrIN7mecanim12statemachine17ConditionConstantEEEEEvRT_17TransferMetaFlags
3503:__ZN7mecanim12statemachine17ConditionConstant8TransferI14SafeBinaryReadEEvRT_
3504:__ZN7mecanim12statemachine18TransitionConstant8TransferI14SafeBinaryReadEEvRT_
3505:__ZN7mecanim12statemachine13StateConstant8TransferI14SafeBinaryReadEEvRT_
3506:__ZN14SafeBinaryRead21TransferSTLStyleArrayI22OffsetPtrArrayTransferI9OffsetPtrIN7mecanim9animation17BlendTreeConstantEEEEEvRT_17TransferMetaFlags
3507:__ZN7mecanim12statemachine13StateConstant39Transfer_Pre_5_2_BackwardsCompatibilityI14SafeBinaryReadEEvRT_
3508:__ZN14SafeBinaryRead21TransferSTLStyleArrayI22OffsetPtrArrayTransferIN7mecanim12statemachine16LeafInfoConstantEEEEvRT_17TransferMetaFlags
3509:__ZN15SerializeTraitsI22OffsetPtrArrayTransferIN7mecanim12statemachine16LeafInfoConstantEEE19ResizeSTLStyleArrayERS4_i
3510:__ZN15SerializeTraitsIN7mecanim12statemachine16LeafInfoConstantEE8TransferI14SafeBinaryReadEEvRS2_RT_
3511:__ZN15SerializeTraitsI9OffsetPtrIN7mecanim9animation17BlendTreeConstantEEE8TransferI14SafeBinaryReadEEvRS4_RT_
3512:__ZN14SafeBinaryRead21TransferSTLStyleArrayI22OffsetPtrArrayTransferI9OffsetPtrIN7mecanim9animation21BlendTreeNodeConstantEEEEEvRT_17TransferMetaFlags
3513:__ZN7mecanim9animation21BlendTreeNodeConstant8TransferI14SafeBinaryReadEEvRT_
3514:__ZN15SerializeTraitsI9OffsetPtrIN7mecanim9animation19Blend1dDataConstantEEE8TransferI14SafeBinaryReadEEvRS4_RT_
3515:__ZN7mecanim9animation19Blend2dDataConstant8TransferI14SafeBinaryReadEEvRT_
3516:__ZN7mecanim9animation23BlendDirectDataConstant8TransferI14SafeBinaryReadEEvRT_
3517:__ZN14SafeBinaryRead21TransferSTLStyleArrayI22OffsetPtrArrayTransferI8Vector2fEEEvRT_17TransferMetaFlags
3518:__ZN14SafeBinaryRead21TransferSTLStyleArrayI22OffsetPtrArrayTransferIN7mecanim9animation18MotionNeighborListEEEEvRT_17TransferMetaFlags
3519:__ZN14SafeBinaryRead8TransferIN7mecanim9animation18MotionNeighborListEEEvRT_PKc17TransferMetaFlags
3520:__ZN8Vector2f8TransferI14SafeBinaryReadEEvRT_
3521:__ZN7mecanim9animation13LayerConstant8TransferI14SafeBinaryReadEEvRT_
3522:__ZN15SerializeTraitsIN7mecanim6bitsetILj83EEEE8TransferI14SafeBinaryReadEEvRS2_RT_
3523:__ZN15SerializeTraitsI9OffsetPtrIN7mecanim8skeleton12SkeletonMaskEEE8TransferI14SafeBinaryReadEEvRS4_RT_
3524:__ZN14SafeBinaryRead21TransferSTLStyleArrayI22OffsetPtrArrayTransferIN7mecanim8skeleton19SkeletonMaskElementEEEEvRT_17TransferMetaFlags
3525:__ZN7mecanim8skeleton19SkeletonMaskElement8TransferI14SafeBinaryReadEEvRT_
3526:__ZN18AnimatorController19TransferRuntimeDataI24GenerateTypeTreeTransferEEvRT_
3527:__ZN7mecanim9animation18ControllerConstant8TransferI24GenerateTypeTreeTransferEEvRT_
3528:__ZN38StateMachineBehaviourVectorDescription8TransferI24GenerateTypeTreeTransferEEvRT_
3529:__ZN15SerializeTraitsINSt3__24pairI8StateKey10StateRangeEEE8TransferI24GenerateTypeTreeTransferEEvRS4_RT_
3530:__ZN7mecanim9animation13LayerConstant8TransferI24GenerateTypeTreeTransferEEvRT_
3531:__ZN7mecanim12statemachine20StateMachineConstant8TransferI24GenerateTypeTreeTransferEEvRT_
3532:__Z17TransferOffsetPtrI9OffsetPtrIN7mecanim13ValueConstantEE24GenerateTypeTreeTransferEvRT_PKcRjRT0_
3533:__ZN7mecanim10ValueArray8TransferI24GenerateTypeTreeTransferEEvRT_
3534:__Z17TransferOffsetPtrI9OffsetPtrIKN4math7_float3EE24GenerateTypeTreeTransferEvRT_PKcRjRT0_
3535:__ZN7mecanim12statemachine13StateConstant8TransferI24GenerateTypeTreeTransferEEvRT_
3536:__ZN7mecanim12statemachine18TransitionConstant8TransferI24GenerateTypeTreeTransferEEvRT_
3537:__ZN7mecanim12statemachine21SelectorStateConstant8TransferI24GenerateTypeTreeTransferEEvRT_
3538:__ZN15SerializeTraitsI9OffsetPtrIN7mecanim12statemachine26SelectorTransitionConstantEEE8TransferI24GenerateTypeTreeTransferEEvRS4_RT_
3539:__ZN15SerializeTraitsI9OffsetPtrIN7mecanim12statemachine17ConditionConstantEEE8TransferI24GenerateTypeTreeTransferEEvRS4_RT_
3540:__ZN15SerializeTraitsI9OffsetPtrIN7mecanim9animation17BlendTreeConstantEEE8TransferI24GenerateTypeTreeTransferEEvRS4_RT_
3541:__ZN7mecanim9animation21BlendTreeNodeConstant8TransferI24GenerateTypeTreeTransferEEvRT_
3542:__ZN7mecanim9animation19Blend2dDataConstant8TransferI24GenerateTypeTreeTransferEEvRT_
3543:__ZN15SerializeTraitsI9OffsetPtrIN7mecanim9animation23BlendDirectDataConstantEEE8TransferI24GenerateTypeTreeTransferEEvRS4_RT_
3544:__ZN15SerializeTraitsI9OffsetPtrIN7mecanim8skeleton12SkeletonMaskEEE8TransferI24GenerateTypeTreeTransferEEvRS4_RT_
3545:__ZN18AnimatorController19TransferRuntimeDataI18StreamedBinaryReadEEvRT_
3546:__ZN7mecanim9animation18ControllerConstant8TransferI18StreamedBinaryReadEEvRT_
3547:__ZN18StreamedBinaryRead21TransferSTLStyleArrayI13dynamic_arrayI4PPtrI13AnimationClipELm0EEEEvRT_17TransferMetaFlags
3548:__ZN38StateMachineBehaviourVectorDescription8TransferI18StreamedBinaryReadEEvRT_
3549:__ZN18StreamedBinaryRead21TransferSTLStyleArrayI22OffsetPtrArrayTransferI9OffsetPtrIN7mecanim9animation13LayerConstantEEEEEvRT_17TransferMetaFlags
3550:__ZN18StreamedBinaryRead21TransferSTLStyleArrayI22OffsetPtrArrayTransferI9OffsetPtrIN7mecanim12statemachine20StateMachineConstantEEEEEvRT_17TransferMetaFlags
3551:__ZN18StreamedBinaryRead21TransferSTLStyleArrayI22OffsetPtrArrayTransferIN7mecanim13ValueConstantEEEEvRT_17TransferMetaFlags
3552:__ZN7mecanim10ValueArray8TransferI18StreamedBinaryReadEEvRT_
3553:__ZN18StreamedBinaryRead21TransferSTLStyleArrayI22OffsetPtrArrayTransferIKN4math7_float3EEEEvRT_17TransferMetaFlags
3554:__ZN7mecanim12statemachine20StateMachineConstant8TransferI18StreamedBinaryReadEEvRT_
3555:__ZN18StreamedBinaryRead21TransferSTLStyleArrayI22OffsetPtrArrayTransferI9OffsetPtrIN7mecanim12statemachine13StateConstantEEEEEvRT_17TransferMetaFlags
3556:__ZN18StreamedBinaryRead21TransferSTLStyleArrayI22OffsetPtrArrayTransferI9OffsetPtrIN7mecanim12statemachine18TransitionConstantEEEEEvRT_17TransferMetaFlags
3557:__ZN18StreamedBinaryRead21TransferSTLStyleArrayI22OffsetPtrArrayTransferI9OffsetPtrIN7mecanim12statemachine21SelectorStateConstantEEEEEvRT_17TransferMetaFlags
3558:__ZN18StreamedBinaryRead8TransferI9OffsetPtrIN7mecanim12statemachine21SelectorStateConstantEEEEvRT_PKc17TransferMetaFlags
3559:__ZN18StreamedBinaryRead21TransferSTLStyleArrayI22OffsetPtrArrayTransferI9OffsetPtrIN7mecanim12statemachine26SelectorTransitionConstantEEEEEvRT_17TransferMetaFlags
3560:__ZN18StreamedBinaryRead21TransferSTLStyleArrayI22OffsetPtrArrayTransferI9OffsetPtrIN7mecanim12statemachine17ConditionConstantEEEEEvRT_17TransferMetaFlags
3561:__ZN7mecanim12statemachine18TransitionConstant8TransferI18StreamedBinaryReadEEvRT_
3562:__ZN7mecanim12statemachine13StateConstant8TransferI18StreamedBinaryReadEEvRT_
3563:__ZN18StreamedBinaryRead21TransferSTLStyleArrayI22OffsetPtrArrayTransferI9OffsetPtrIN7mecanim9animation17BlendTreeConstantEEEEEvRT_17TransferMetaFlags
3564:__ZN18StreamedBinaryRead21TransferSTLStyleArrayI22OffsetPtrArrayTransferI9OffsetPtrIN7mecanim9animation21BlendTreeNodeConstantEEEEEvRT_17TransferMetaFlags
3565:__ZN7mecanim9animation21BlendTreeNodeConstant8TransferI18StreamedBinaryReadEEvRT_
3566:__ZN18StreamedBinaryRead8TransferI9OffsetPtrIN7mecanim9animation19Blend1dDataConstantEEEEvRT_PKc17TransferMetaFlags
3567:__ZN7mecanim9animation19Blend2dDataConstant8TransferI18StreamedBinaryReadEEvRT_
3568:__ZN7mecanim9animation23BlendDirectDataConstant8TransferI18StreamedBinaryReadEEvRT_
3569:__ZN18StreamedBinaryRead21TransferSTLStyleArrayI22OffsetPtrArrayTransferIN7mecanim9animation18MotionNeighborListEEEEvRT_17TransferMetaFlags
3570:__ZN7mecanim9animation13LayerConstant8TransferI18StreamedBinaryReadEEvRT_
3571:__ZN18StreamedBinaryRead21TransferSTLStyleArrayI22OffsetPtrArrayTransferIN7mecanim8skeleton19SkeletonMaskElementEEEEvRT_17TransferMetaFlags
3572:__ZN18AnimatorController19TransferRuntimeDataI19StreamedBinaryWriteEEvRT_
3573:__ZN7mecanim9animation18ControllerConstant8TransferI19StreamedBinaryWriteEEvRT_
3574:__ZN38StateMachineBehaviourVectorDescription8TransferI19StreamedBinaryWriteEEvRT_
3575:__ZN7mecanim9animation13LayerConstant8TransferI19StreamedBinaryWriteEEvRT_
3576:__ZN7mecanim12statemachine20StateMachineConstant8TransferI19StreamedBinaryWriteEEvRT_
3577:__ZN15SerializeTraitsI22OffsetPtrArrayTransferIN7mecanim13ValueConstantEEE8TransferI19StreamedBinaryWriteEEvRS3_RT_
3578:__ZN7mecanim10ValueArray8TransferI19StreamedBinaryWriteEEvRT_
3579:__ZN7mecanim12statemachine13StateConstant8TransferI19StreamedBinaryWriteEEvRT_
3580:__ZN7mecanim12statemachine18TransitionConstant8TransferI19StreamedBinaryWriteEEvRT_
3581:__ZN7mecanim12statemachine21SelectorStateConstant8TransferI19StreamedBinaryWriteEEvRT_
3582:__ZN19StreamedBinaryWrite8TransferI9OffsetPtrIN7mecanim12statemachine26SelectorTransitionConstantEEEEvRT_PKc17TransferMetaFlags
3583:__ZN15SerializeTraitsI9OffsetPtrIN7mecanim12statemachine17ConditionConstantEEE8TransferI19StreamedBinaryWriteEEvRS4_RT_
3584:__ZN15SerializeTraitsI9OffsetPtrIN7mecanim9animation17BlendTreeConstantEEE8TransferI19StreamedBinaryWriteEEvRS4_RT_
3585:__ZN7mecanim9animation21BlendTreeNodeConstant8TransferI19StreamedBinaryWriteEEvRT_
3586:__ZN7mecanim9animation19Blend2dDataConstant8TransferI19StreamedBinaryWriteEEvRT_
3587:__ZN15SerializeTraitsI9OffsetPtrIN7mecanim9animation23BlendDirectDataConstantEEE8TransferI19StreamedBinaryWriteEEvRS4_RT_
3588:__Z17TransferOffsetPtrI9OffsetPtrI8Vector2fE19StreamedBinaryWriteEvRT_PKcRjRT0_
3589:__Z17TransferOffsetPtrI9OffsetPtrIN7mecanim9animation18MotionNeighborListEE19StreamedBinaryWriteEvRT_PKcRjRT0_
3590:__ZN18AnimatorController10ClearAssetEv
3591:__Z30RegisterModuleICalls_Animationv
3592:__Z22GetAnimationModuleSpecv
3593:__Z18RegisterUnityClassI8AnimatorEvPKc
3594:__Z18RegisterUnityClassI26AnimatorOverrideControllerEvPKc
3595:__Z18RegisterUnityClassI25RuntimeAnimatorControllerEvPKc
3596:__ZNK17IAnimationBinding38SerializedPropertyPathToCurveAttributeER6ObjectPKc
3597:__ZNK17IAnimationBinding30CurveAttributeToSerializedPathERKN11UnityEngine9Animation10BoundCurveE
3598:__ZN13ProduceHelperI25RuntimeAnimatorControllerLb1EE7ProduceE10MemLabelId18ObjectCreationMode
3599:__ZN13ProduceHelperI26AnimatorOverrideControllerLb0EE7ProduceE10MemLabelId18ObjectCreationMode
3600:__ZN26AnimatorOverrideController15InitializeClassEv
3601:__ZZN26AnimatorOverrideController15InitializeClassEvEN42FunctorImpl_87kDidModifyAnimatorController4CallEPviR11MessageData
3602:__ZN18BaseObjectInternal9NewObjectI26AnimatorOverrideControllerEEP6Object10MemLabelId18ObjectCreationMode
3603:__ZN25RuntimeAnimatorControllerC2E10MemLabelId18ObjectCreationMode
3604:__ZN13ProduceHelperI8AnimatorLb0EE7ProduceE10MemLabelId18ObjectCreationMode
3605:__ZN8Animator15InitializeClassEv
3606:__ZN8Animator12CleanupClassEv
3607:__ZN10HumanTrait12CleanupClassEv
3608:__ZN7mecanim9animation23CleanupMuscleClipTablesEv
3609:__ZN8Animator20RebindOnDomainReloadEv
3610:__ZZN8Animator15InitializeClassEvEN43FunctorImpl_540kDidModifyAnimatorController4CallEPviR11MessageData
3611:__ZZN8Animator15InitializeClassEvEN37FunctorImpl_541kDidModifyOverrideClip4CallEPviR11MessageData
3612:__ZZN8Animator15InitializeClassEvEN31FunctorImpl_543kDidModifyMotion4CallEPviR11MessageData
3613:__ZZN8Animator15InitializeClassEvEN31FunctorImpl_544kDidDeleteMotion4CallEPviR11MessageData
3614:__ZZN8Animator15InitializeClassEvEN44FunctorImpl_545kDidChangeMotionRuntimeEvents4CallEPviR11MessageData
3615:__ZZN8Animator15InitializeClassEvEN31FunctorImpl_546kDidModifyAvatar4CallEPviR11MessageData
3616:__ZZN8Animator15InitializeClassEvEN31FunctorImpl_551kDidAddComponent4CallEPviR11MessageData
3617:__ZN7mecanim9animation18ControllerConstant15InitializeClassEv
3618:__ZN7mecanim9animation13LayerConstant15InitializeClassEv
3619:__ZN7mecanim9animation14AvatarConstant15InitializeClassEv
3620:__ZN7mecanim12statemachine13StateConstant15InitializeClassEv
3621:__ZN7mecanim12statemachine20StateMachineConstant15InitializeClassEv
3622:__ZN7mecanim9animation26InitializeMuscleClipTablesEv
3623:__ZN10HumanTrait15InitializeClassEv
3624:__ZL27StateChangeValidateCallback18ScriptingMethodPtr17ScriptingClassPtrP6Object
3625:__ZL28StateMachineValidateCallback18ScriptingMethodPtr17ScriptingClassPtrP6Object
3626:__ZN10HumanTrait21InitializeMuscleNamesEv
3627:__ZN10HumanTrait19InitializeBoneNamesEv
3628:__ZN10HumanTrait21InitializeMonoIndicesEv
3629:__ZN7mecanim5human21ComputeHierarchicMassEiPf
3630:__ZN7mecanim5human10MuscleNameEj
3631:__ZN10HumanTrait19GetFingerMuscleNameEib
3632:__ZN7mecanim4hand13FingerDoFNameEj
3633:__ZN7mecanim5human12BoneFromTDoFEi
3634:__ZN7mecanim9animationL25MuscleIndexIdSortFunctionENS0_13MuscleIndexIdES1_
3635:__ZNSt3__26__sortIRPFbN7mecanim9animation13MuscleIndexIdES3_EPS3_EEvT0_S8_T_
3636:__ZNSt3__27__sort3IRPFbN7mecanim9animation13MuscleIndexIdES3_EPS3_EEjT0_S8_S8_T_
3637:__ZNSt3__27__sort5IRPFbN7mecanim9animation13MuscleIndexIdES3_EPS3_EEjT0_S8_S8_S8_S8_T_
3638:__ZNSt3__227__insertion_sort_incompleteIRPFbN7mecanim9animation13MuscleIndexIdES3_EPS3_EEbT0_S8_T_
3639:__ZN26AnimatorControllerPlayable21OverrideClipPlayablesEv
3640:__ZN18BaseObjectInternal9NewObjectI8AnimatorEEP6Object10MemLabelId18ObjectCreationMode
3641:__ZN8AnimatorC2E10MemLabelId18ObjectCreationMode
3642:__ZN14AvatarPlaybackC2E10MemLabelId
3643:__ZN21AnimationHandleBinderC2Ev
3644:__ZNK8Animator17HasBoundPlayablesEv
3645:__ZN8Animator22ScriptingStringToCRC32ERK11ICallString
3646:__ZN8Animator12ResetTriggerEi
3647:__ZN8Animator10SetTriggerEi
3648:__ZN8Animator23ValidateParameterStringE17GetSetValueResultRKN4core12basic_stringIcNS1_20StringStorageDefaultIcEEEE
3649:__Z18RegisterUnityClassI18AnimatorControllerEvPKc
3650:__ZN13ProduceHelperI18AnimatorControllerLb0EE7ProduceE10MemLabelId18ObjectCreationMode
3651:__ZN18AnimatorController15InitializeClassEv
3652:__ZZN18AnimatorController15InitializeClassEvEN30FunctorImpl_93kDidModifyMotion4CallEPviR11MessageData
3653:__ZZN18AnimatorController15InitializeClassEvEN30FunctorImpl_94kDidDeleteMotion4CallEPviR11MessageData
3654:__ZN18BaseObjectInternal9NewObjectI18AnimatorControllerEEP6Object10MemLabelId18ObjectCreationMode
3655:_RegisterModule_Animation
3656:__Z26InitializeModule_Animationv
3657:__ZL23CleanupModule_Animationv
3658:__Z31InternalCleanupModule_Animationv
3659:__Z32SetupMonoScriptCacheForAnimationP15MonoScriptCache
3660:__Z34InternalInitializeModule_Animationv
3661:__ZN4coreplERKNS_12basic_stringIcNS_20StringStorageDefaultIcEEEERKNS_16basic_string_refIcEE
3662:__Z20SetGlobalMatrixLossy15TransformAccessRKN4math7_float3ERKNS0_7_float4ERKNS0_8float3x3E
3663:__Z35InverseTransformPositionAndRotationRK23TransformAccessReadOnlyRKN4math7_float3ERKNS2_7_float4E
3664:__ZNSt3__26vectorIN4core12basic_stringIcNS1_20StringStorageDefaultIcEEEE13stl_allocatorIS5_L18MemLabelIdentifier1ELi16EEE21__push_back_slow_pathIS5_EEvOT_
3665:__ZN11Marshalling16StringMarshallerD2Ev
3666:__ZNSt3__26vectorIiNS_9allocatorIiEEE6insertENS_11__wrap_iterIPKiEERS5_
3667:__Z41Animator_Get_Custom_PropHasBoundPlayablesP12Il2CppObject
3668:__Z32Animator_CUSTOM_SetTriggerStringP12Il2CppObjectP12Il2CppString
3669:__Z34Animator_CUSTOM_ResetTriggerStringP12Il2CppObjectP12Il2CppString
3670:__Z51Register_UnityEngine_Animator_get_hasBoundPlayablesv
3671:__Z46Register_UnityEngine_Animator_SetTriggerStringv
3672:__Z48Register_UnityEngine_Animator_ResetTriggerStringv
3673:__GLOBAL__sub_I_AssetBundleScriptingClasses_cpp
3674:__GLOBAL__sub_I_Modules_AssetBundle_Public_0_cpp
3675:__GLOBAL__sub_I_Modules_AssetBundle_Public_1_cpp
3676:__GLOBAL__sub_I_Modules_AssetBundle_Public_2_cpp
3677:__ZN13RuntimeStaticI18AssetBundleManagerLb1EE16StaticInitializeEPv
3678:__ZN13RuntimeStaticI18AssetBundleManagerLb1EE13StaticDestroyEPv
3679:__ZN18AssetBundleManagerD2Ev
3680:__ZN24StaticInitializeInternal13ConstructTypeI18AssetBundleManagerLb1EEEPvS2_RK10MemLabelId
3681:__ZN9Scripting11UnityEngineL65__ManagedRegistrationHelperFunction_AssetBundleCreateRequestProxyEPv
3682:__ZN9Scripting11UnityEngineL71__ManagedRegistrationHelperFunction_AssetBundleRecompressOperationProxyEPv
3683:__ZN9Scripting11UnityEngineL59__ManagedRegistrationHelperFunction_AssetBundleRequestProxyEPv
3684:__ZN9Scripting11UnityEngineL57__ManagedRegistrationHelperFunction_BuildCompressionProxyEPv
3685:__ZN9Scripting11UnityEngine21BuildCompressionProxy9InitProxyEv
3686:__ZN9Scripting11UnityEngine21BuildCompressionProxy12CleanupProxyEv
3687:__ZN9Scripting11UnityEngine23AssetBundleRequestProxy9InitProxyEv
3688:__ZN9Scripting11UnityEngine23AssetBundleRequestProxy12CleanupProxyEv
3689:__ZN9Scripting11UnityEngine35AssetBundleRecompressOperationProxy9InitProxyEv
3690:__ZN9Scripting11UnityEngine35AssetBundleRecompressOperationProxy12CleanupProxyEv
3691:__ZN9Scripting11UnityEngine29AssetBundleCreateRequestProxy9InitProxyEv
3692:__ZN9Scripting11UnityEngine29AssetBundleCreateRequestProxy12CleanupProxyEv
3693:__ZN23PreloadManagerOperation11GetPriorityEv
3694:__ZN23PreloadManagerOperation14SetFinalTimingEffff
3695:__ZN23PreloadManagerOperation19IntegrateTimeSlicedEi
3696:__Z7ToLowerIN4core12basic_stringIcNS0_20StringStorageDefaultIcEEEEET_RKS5_
3697:__ZN14SafeBinaryRead21TransferSTLStyleArrayINSt3__26vectorI14ConstantStringNS1_9allocatorIS3_EEEEEEvRT_17TransferMetaFlags
3698:__Z14resize_trimmedINSt3__26vectorI14ConstantStringNS0_9allocatorIS2_EEEEEvRT_j
3699:__ZNSt3__26vectorI14ConstantStringNS_9allocatorIS1_EEE6assignINS_11__wrap_iterIPS1_EEEENS_9enable_ifIXaasr21__is_forward_iteratorIT_EE5valuesr16is_constructibleIS1_NS_15iterator_traitsISA_E9referenceEEE5valueEvE4typeESA_SA_
3700:__ZNSt3__26vectorI14ConstantStringNS_9allocatorIS1_EEE8__appendEm
3701:__ZN15SerializeTraitsINSt3__24pairIN4core12basic_stringIcNS2_20StringStorageDefaultIcEEEE4PPtrI6ObjectEEEE8TransferI14SafeBinaryReadEEvRSA_RT_
3702:__ZN18StreamedBinaryRead21TransferSTLStyleArrayINSt3__26vectorI14ConstantStringNS1_9allocatorIS3_EEEEEEvRT_17TransferMetaFlags
3703:__ZN15SerializeTraitsI14ConstantStringE8TransferI19StreamedBinaryWriteEEvRS0_RT_
3704:__ZN18AwakeFromLoadQueueD2Ev
3705:__ZN23PreloadManagerOperation11SetPriorityEi
3706:__ZN13LoadOperation12GetDebugNameEv
3707:__ZN27TimeSliceAwakeFromLoadQueueD2Ev
3708:__Z14StartsWithPathIN4core12basic_stringIcNS0_20StringStorageDefaultIcEEEEA8_cEbRKT_RKT0_
3709:__ZN15AllocatorTraitsIN4core12basic_stringIcNS0_20StringStorageDefaultIcEEEELb1EE9ConstructIJRKPKcEEEvPS4_RK10MemLabelIdDpOT_
3710:__ZN4core8hash_mapIiiNS_4hashIiEENSt3__28equal_toIiEEE6insertERKiS8_
3711:__Z7ToLowerIcEN4core12basic_stringIT_NS0_20StringStorageDefaultIS2_EEEERKNS0_16basic_string_refIS2_EE
3712:__ZNSt3__26__sortIRNS_6__lessIN4core12basic_stringIcNS2_20StringStorageDefaultIcEEEES6_EEPS6_EEvT0_SA_T_
3713:__ZNSt3__27__sort3IRNS_6__lessIN4core12basic_stringIcNS2_20StringStorageDefaultIcEEEES6_EEPS6_EEjT0_SA_SA_T_
3714:__ZNSt3__27__sort4IRNS_6__lessIN4core12basic_stringIcNS2_20StringStorageDefaultIcEEEES6_EEPS6_EEjT0_SA_SA_SA_T_
3715:__ZNSt3__27__sort5IRNS_6__lessIN4core12basic_stringIcNS2_20StringStorageDefaultIcEEEES6_EEPS6_EEjT0_SA_SA_SA_SA_T_
3716:__ZNSt3__218__insertion_sort_3IRNS_6__lessIN4core12basic_stringIcNS2_20StringStorageDefaultIcEEEES6_EEPS6_EEvT0_SA_T_
3717:__ZNSt3__227__insertion_sort_incompleteIRNS_6__lessIN4core12basic_stringIcNS2_20StringStorageDefaultIcEEEES6_EEPS6_EEbT0_SA_T_
3718:__ZNSt3__26__treeIiNS_4lessIiEENS_9allocatorIiEEE7destroyEPNS_11__tree_nodeIiPvEE
3719:__ZNK11Marshalling15ArrayMarshallerIhhE14ToDynamicArrayIhEEK13dynamic_arrayIT_Lm0EEv
3720:__GLOBAL__sub_I_AudioScriptingClasses_cpp
3721:__GLOBAL__sub_I_Runtime_Video_0_cpp
3722:___cxx_global_var_init_741
3723:___cxx_global_var_init_4_742
3724:___cxx_global_var_init_5
3725:__GLOBAL__sub_I_Modules_Audio_Public_0_cpp
3726:___cxx_global_var_init_152
3727:__GLOBAL__sub_I_Modules_Audio_Public_1_cpp
3728:__GLOBAL__sub_I_Modules_Audio_Public_3_cpp
3729:__GLOBAL__sub_I_Modules_Audio_Public_ScriptBindings_1_cpp
3730:__GLOBAL__sub_I_Modules_Audio_Public_sound_0_cpp
3731:__ZN13RuntimeStaticIN13SoundReleaser17SoundReleaserHookELb0EE16StaticInitializeEPv
3732:__ZN13RuntimeStaticIN13SoundReleaser17SoundReleaserHookELb0EE13StaticDestroyEPv
3733:__ZN13RuntimeStaticINSt3__28multimapIjP12SoundDecoderNS0_4lessIjEE13stl_allocatorINS0_4pairIKjS3_EEL18MemLabelIdentifier31ELi16EEEELb0EE13StaticDestroyEPv
3734:__ZNSt3__26__treeINS_12__value_typeIjP12SoundDecoderEENS_19__map_value_compareIjS4_NS_4lessIjEELb1EEE13stl_allocatorIS4_L18MemLabelIdentifier31ELi16EEE7destroyEPNS_11__tree_nodeIS4_PvEE
3735:__ZN24StaticInitializeInternal13ConstructTypeIN13SoundReleaser17SoundReleaserHookELb0EEEPvS3_RK10MemLabelId
3736:__ZN13SoundReleaser17SoundReleaserHook11OnCloseFMODEv
3737:__ZN13RuntimeStaticINSt3__23mapIjP26AudioSampleProviderChannelNS0_4lessIjEE13stl_allocatorINS0_4pairIKjS3_EEL18MemLabelIdentifier31ELi16EEEELb0EE13StaticDestroyEPv
3738:__ZNSt3__26__treeINS_12__value_typeIjP26AudioSampleProviderChannelEENS_19__map_value_compareIjS4_NS_4lessIjEELb1EEE13stl_allocatorIS4_L18MemLabelIdentifier31ELi16EEE7destroyEPNS_11__tree_nodeIS4_PvEE
3739:__ZL37StaticInitializeAudioCustomFilterRootPv
3740:__ZL34StaticDestroyAudioCustomFilterRootPv
3741:__ZN13RuntimeStaticI13dynamic_arrayIPN12AudioManager15ManagerListenerELm0EELb0EE16StaticInitializeEPv
3742:__ZN13RuntimeStaticI13dynamic_arrayIPN12AudioManager15ManagerListenerELm0EELb0EE13StaticDestroyEPv
3743:__ZN13RuntimeStaticINSt3__23mapIjP19AudioSampleProviderNS0_4lessIjEE13stl_allocatorINS0_4pairIKjS3_EEL18MemLabelIdentifier31ELi16EEEELb0EE13StaticDestroyEPv
3744:__ZL37StaticInitializeAudioSourceFilterRootPv
3745:__ZL34StaticDestroyAudioSourceFilterRootPv
3746:__ZNSt3__26__treeINS_12__value_typeIjP19AudioSampleProviderEENS_19__map_value_compareIjS4_NS_4lessIjEELb1EEE13stl_allocatorIS4_L18MemLabelIdentifier31ELi16EEE7destroyEPNS_11__tree_nodeIS4_PvEE
3747:__ZN20DiagnosticSwitchEnumI23FMODDebugDisplayOptionsE18SetValueFromStringEPKc
3748:__ZN20DiagnosticSwitchEnumI23FMODDebugDisplayOptionsE20ApplyPersistentValueEv
3749:__ZN20DiagnosticSwitchEnumI23FMODDebugDisplayOptionsE20CollectScriptingInfoERN20DiagnosticSwitchBase13ScriptingInfoE
3750:__ZN20DiagnosticSwitchEnumI23FMODDebugDisplayOptionsE24UpdateFromScriptingValueE18ScriptingObjectPtrbP21ScriptingExceptionPtr
3751:__ZN10EnumTraits8ToStringI23FMODDebugDisplayOptionsEEN4core12basic_stringIcNS2_20StringStorageDefaultIcEEEET_
3752:__ZN4core20StringStorageDefaultIcE7replaceEmmPKcm
3753:__ZN10EnumTraits13TryFromStringI23FMODDebugDisplayOptionsEEbPKcbRT_
3754:__ZN20DiagnosticSwitchEnumI14FMODDebugTypesE18SetValueFromStringEPKc
3755:__ZN20DiagnosticSwitchEnumI14FMODDebugTypesE20ApplyPersistentValueEv
3756:__ZN20DiagnosticSwitchEnumI14FMODDebugTypesE20CollectScriptingInfoERN20DiagnosticSwitchBase13ScriptingInfoE
3757:__ZN20DiagnosticSwitchEnumI14FMODDebugTypesE24UpdateFromScriptingValueE18ScriptingObjectPtrbP21ScriptingExceptionPtr
3758:__ZN10EnumTraits8ToStringI14FMODDebugTypesEEN4core12basic_stringIcNS2_20StringStorageDefaultIcEEEET_
3759:__ZN10EnumTraits13TryFromStringI14FMODDebugTypesEEbPKcbRT_
3760:__ZN24StaticInitializeInternal13ConstructTypeI13dynamic_arrayIPN12AudioManager15ManagerListenerELm0EELb0EEEPvS6_RK10MemLabelId
3761:__ZN13RuntimeStaticINSt3__23setIP26AudioSampleProviderChannelNS0_4lessIS3_EE13stl_allocatorIS3_L18MemLabelIdentifier31ELi16EEEELb0EE16StaticInitializeEPv
3762:__ZN13RuntimeStaticINSt3__23setIP26AudioSampleProviderChannelNS0_4lessIS3_EE13stl_allocatorIS3_L18MemLabelIdentifier31ELi16EEEELb0EE13StaticDestroyEPv
3763:__ZNSt3__26__treeIP26AudioSampleProviderChannelNS_4lessIS2_EE13stl_allocatorIS2_L18MemLabelIdentifier31ELi16EEE7destroyEPNS_11__tree_nodeIS2_PvEE
3764:__ZN24StaticInitializeInternal13ConstructTypeINSt3__23setIP26AudioSampleProviderChannelNS1_4lessIS4_EE13stl_allocatorIS4_L18MemLabelIdentifier31ELi16EEEELb0EEEPvSB_RK10MemLabelId
3765:__ZN13RuntimeStaticINSt3__26vectorIP16BaseVideoTexture13stl_allocatorIS3_L18MemLabelIdentifier24ELi16EEEELb0EE16StaticInitializeEPv
3766:__ZN13RuntimeStaticINSt3__26vectorIP16BaseVideoTexture13stl_allocatorIS3_L18MemLabelIdentifier24ELi16EEEELb0EE13StaticDestroyEPv
3767:__ZN13RuntimeStaticINSt3__26vectorI12WebCamDeviceNS0_9allocatorIS2_EEEELb0EE16StaticInitializeEPv
3768:__ZN13RuntimeStaticINSt3__26vectorI12WebCamDeviceNS0_9allocatorIS2_EEEELb0EE13StaticDestroyEPv
3769:__ZN24StaticInitializeInternal13ConstructTypeINSt3__26vectorI12WebCamDeviceNS1_9allocatorIS3_EEEELb0EEEPvS7_RK10MemLabelId
3770:__ZN24StaticInitializeInternal13ConstructTypeINSt3__26vectorIP16BaseVideoTexture13stl_allocatorIS4_L18MemLabelIdentifier24ELi16EEEELb0EEEPvS9_RK10MemLabelId
3771:__ZN9Scripting11UnityEngine5AudioL58__ManagedRegistrationHelperFunction_AudioClipPlayableProxyEPv
3772:__ZN9Scripting11UnityEngine5AudioL59__ManagedRegistrationHelperFunction_AudioMixerPlayableProxyEPv
3773:__ZN9Scripting11UnityEngine5AudioL60__ManagedRegistrationHelperFunction_AudioPlayableOutputProxyEPv
3774:__ZN9Scripting11UnityEngineL50__ManagedRegistrationHelperFunction_AudioClipProxyEPv
3775:__ZN9Scripting11UnityEngineL54__ManagedRegistrationHelperFunction_AudioSettingsProxyEPv
3776:__ZN9Scripting11UnityEngine12Experimental5AudioL60__ManagedRegistrationHelperFunction_AudioSampleProviderProxyEPv
3777:__ZN9Scripting11UnityEngineL53__ManagedRegistrationHelperFunction_WebCamDeviceProxyEPv
3778:__ZN9Scripting11UnityEngine17WebCamDeviceProxy9InitProxyEv
3779:__ZN9Scripting11UnityEngine17WebCamDeviceProxy12CleanupProxyEv
3780:__ZN9Scripting11UnityEngine12Experimental5Audio24AudioSampleProviderProxy9InitProxyEv
3781:__ZN9Scripting11UnityEngine12Experimental5Audio24AudioSampleProviderProxy12CleanupProxyEv
3782:__ZN9Scripting11UnityEngine18AudioSettingsProxy9InitProxyEv
3783:__ZN9Scripting11UnityEngine18AudioSettingsProxy12CleanupProxyEv
3784:__ZN9Scripting11UnityEngine14AudioClipProxy9InitProxyEv
3785:__ZN9Scripting11UnityEngine14AudioClipProxy12CleanupProxyEv
3786:__ZN9Scripting11UnityEngine5Audio24AudioPlayableOutputProxy9InitProxyEv
3787:__ZN9Scripting11UnityEngine5Audio24AudioPlayableOutputProxy12CleanupProxyEv
3788:__ZN9Scripting11UnityEngine5Audio23AudioMixerPlayableProxy9InitProxyEv
3789:__ZN9Scripting11UnityEngine5Audio23AudioMixerPlayableProxy12CleanupProxyEv
3790:__ZN9Scripting11UnityEngine5Audio22AudioClipPlayableProxy9InitProxyEv
3791:__ZN9Scripting11UnityEngine5Audio22AudioClipPlayableProxy12CleanupProxyEv
3792:__ZNK7Texture20GetUnscaledTextureIDEv
3793:__ZNK7Texture11GetGPUWidthEv
3794:__ZNK7Texture12GetGPUHeightEv
3795:__ZNK7Texture16GetNpotTexelSizeEv
3796:__ZNK7Texture9HasMipMapEv
3797:__ZNK7Texture14GetMipmapCountEv
3798:__ZNK7Texture21GetShadowSamplingModeEv
3799:__ZN7Texture34UpdateFileTextureUploadInstructionEP24TextureUploadInstructionj
3800:__ZN4FMOD3DSP9setBypassEb
3801:__ZN11AudioFilter4InitEv
3802:__ZN4FMOD6System15createDSPByTypeE13FMOD_DSP_TYPEPPNS_3DSPE
3803:__ZN10ObjectPoolIN4FMOD3DSPENS0_4DSPIEE7GetFreeEi
3804:__ZN4FMOD3DSP12setParameterEif
3805:__ZN4FMOD3DSP7releaseEv
3806:__ZN15SerializeTraitsI9UnityGUIDE8TransferI14SafeBinaryReadEEvRS0_RT_
3807:__ZN9UnityGUID8TransferI24GenerateTypeTreeTransferEEvRT_
3808:__ZN9UnityGUID8TransferI18StreamedBinaryReadEEvRT_
3809:__ZN9UnityGUID8TransferI19StreamedBinaryWriteEEvRT_
3810:__ZN4FMOD6Reverb9setActiveEb
3811:__Z15GetAudioManagerv
3812:__ZN15AudioReverbZone4InitEv
3813:__ZN4FMOD6System12createReverbEPPNS_6ReverbE
3814:__ZL16FMOD_ErrorString11FMOD_RESULT
3815:__ZN12AudioManager21FixMasterGroupRoutingEv
3816:__ZN15AudioReverbZone13SetFMODValuesEv
3817:__ZN4FMOD6System6updateEv
3818:__ZN4FMOD6Reverb15set3DAttributesEPK11FMOD_VECTORff
3819:__ZN4FMOD6Reverb13setPropertiesEPK22FMOD_REVERB_PROPERTIES
3820:__ZN4FMOD12ChannelGroup10getDSPHeadEPPNS_3DSPE
3821:__ZN4FMOD3DSP9getOutputEiPPS0_PPNS_13DSPConnectionE
3822:__ZN4FMOD3DSP8getInputEiPPS0_PPNS_13DSPConnectionE
3823:__ZN4FMOD3DSP12getNumInputsEPi
3824:__ZN4FMOD3DSP7getInfoEPcPjPiS3_S3_
3825:__ZN4FMOD3DSP13disconnectAllEbb
3826:__ZN4FMOD3DSP8addInputEPS0_PPNS_13DSPConnectionE
3827:__ZN4FMOD6Reverb7releaseEv
3828:__ZN12AudioManagerD2Ev
3829:__ZN12AudioManagerD0Ev
3830:__ZN12AudioManager17MainThreadCleanupEv
3831:__ZN12AudioManager13AwakeFromLoadE17AwakeFromLoadMode
3832:__ZN12AudioManager16CheckConsistencyEv
3833:__ZN12AudioManager5ResetEv
3834:__ZNK12AudioManager22GetTypeVirtualInternalEv
3835:__ZN12AudioManager23VirtualRedirectTransferER19StreamedBinaryWrite
3836:__ZN12AudioManager23VirtualRedirectTransferER18StreamedBinaryRead
3837:__ZN12AudioManager23VirtualRedirectTransferER24GenerateTypeTreeTransfer
3838:__ZN12AudioManager23VirtualRedirectTransferER14SafeBinaryRead
3839:__ZN12AudioManager8TransferI14SafeBinaryReadEEvRT_
3840:__ZN12AudioManager8TransferI24GenerateTypeTreeTransferEEvRT_
3841:__ZN12AudioManager8TransferI18StreamedBinaryReadEEvRT_
3842:__ZN12AudioManager8TransferI19StreamedBinaryWriteEEvRT_
3843:__ZN12AudioManager8InitFMODE15FMOD_OUTPUTTYPE
3844:__ZN12AudioManager29ShutdownReinitializeAndReloadE15FMOD_OUTPUTTYPEPS0_
3845:__ZN4FMOD12ChannelGroup9setVolumeEf
3846:__ZN4FMOD6System13set3DSettingsEfff
3847:__ZN4FMOD6System9getOutputEP15FMOD_OUTPUTTYPE
3848:__ZN12AudioManager9CloseFMODEv
3849:__ZN9AudioClip6ReloadEv
3850:__ZN13AudioListener12ApplyFiltersEv
3851:__ZN12AudioManager39HandlePendingAudioConfigurationCallbackEv
3852:__Z24GetAudioScriptingClassesv
3853:__ZL31InitializeAudioScriptingClassesv
3854:__ZL28CleanupAudioScriptingClassesv
3855:__ZN11AudioFilter6GetDSPEv
3856:__ZN4FMOD3DSP6removeEv
3857:__Z15_CheckFMODError11FMOD_RESULTPKciS1_
3858:__ZN4FMOD12ChannelGroup6addDSPEPNS_3DSPEPPNS_13DSPConnectionE
3859:__ZN4FMOD3DSP9getBypassEPb
3860:__ZN11AudioSource7CleanupEv
3861:__ZN13AudioListener7CleanupEv
3862:__ZN15AudioReverbZone7CleanupEv
3863:__ZN10AudioMixer33EnsureMixerGroupSinksAreDestroyedEv
3864:__ZN5audio5mixer23DestroyAudioMixerMemoryEPNS0_16AudioMixerMemoryERKNS0_18AudioMixerConstantEPN4FMOD6SystemER20RuntimeBaseAllocator
3865:__ZN19AudioPlayableOutput21KillFMODResourceGraphEv
3866:__ZN26AudioSampleProviderChannel7CleanupEv
3867:__ZN4FMOD12ChannelGroup7releaseEv
3868:__ZN9AudioClip7CleanupEv
3869:__ZN4FMOD6System5closeEv
3870:__ZN12SoundManagerD2Ev
3871:__ZN12SoundManager20OnExitPlayModeStaticEv
3872:__ZN12SoundManager26OnBeforeDomainUnloadStaticEv
3873:__ZN12SoundManager6UpdateEv
3874:__ZN11SoundHandle8InstanceD2Ev
3875:__ZN20SoundChannelInstance4StopEv
3876:__ZN4FMOD5Sound7releaseEv
3877:__ZN4FMOD6SoundI7releaseEv
3878:__ZN4FMOD8ChannelI11EndCallbackEv
3879:__ZN4FMOD7Channel4stopEv
3880:__ZN4FMOD7Channel11setPositionEjj
3881:__ZN11SoundHandle8Instance15UpdateLoadStateEv
3882:__ZN4FMOD6System9playSoundE17FMOD_CHANNELINDEXPNS_5SoundEbPPNS_7ChannelE
3883:__ZN20SoundChannelInstance14SetFMODChannelEPN4FMOD7ChannelE
3884:__ZN20SoundChannelInstance15ParameterBuffer5ApplyEPN4FMOD7ChannelE
3885:__ZN20SoundChannelInstance12UpdateVolumeEv
3886:__ZN20SoundChannelInstance11UpdatePitchEv
3887:__ZN20SoundChannelInstance16UpdatePauseStateEv
3888:__ZN20SoundChannelInstance15UpdateStereoPanEv
3889:__ZN20SoundChannelInstance16Update3DPanLevelEv
3890:__ZN12AudioManager15GetSoundManagerEv
3891:__ZN4FMOD7Channel7getModeEPj
3892:__ZN4FMOD7Channel13set3DPanLevelEf
3893:__ZN4FMOD7Channel6setPanEf
3894:__ZN4FMOD7Channel9setPausedEb
3895:__ZN4FMOD7Channel12setFrequencyEf
3896:__ZN4FMOD7Channel9setVolumeEf
3897:__ZN4FMOD8ChannelI9setVolumeEf
3898:__ZN4FMOD7Channel7setMuteEb
3899:__ZN4FMOD7Channel11setCallbackEPF11FMOD_RESULTP12FMOD_CHANNEL25FMOD_CHANNEL_CALLBACKTYPEPvS5_E
3900:__ZN4FMOD7Channel7setModeEj
3901:__ZN4FMOD7Channel15setChannelGroupEPNS_12ChannelGroupE
3902:__ZN4FMOD7Channel11setPriorityEi
3903:__ZN4FMOD7Channel19setReverbPropertiesEPK29FMOD_REVERB_CHANNELPROPERTIES
3904:__ZN4FMOD7Channel8setDelayE14FMOD_DELAYTYPEjj
3905:__ZN4FMOD7Channel15set3DAttributesEPK11FMOD_VECTORS3_
3906:__ZN4FMOD7Channel20set3DConeOrientationEP11FMOD_VECTOR
3907:__ZN4FMOD7Channel17set3DConeSettingsEfff
3908:__ZN4FMOD7Channel19set3DMinMaxDistanceEff
3909:__ZN4FMOD7Channel11set3DSpreadEf
3910:__ZN4FMOD8ChannelI15set3DAttributesEPK11FMOD_VECTORS3_
3911:__ZN4FMOD8ChannelI18UpdateDopplerPitchEv
3912:__ZN4FMOD8ChannelI8setDelayE14FMOD_DELAYTYPEjj
3913:__ZN4FMOD7Channel6addDSPEPNS_3DSPEPPNS_13DSPConnectionE
3914:__ZN4FMOD7Channel11setUserDataEPv
3915:__ZN20SoundChannelInstance19FMODChannelCallbackEP12FMOD_CHANNEL25FMOD_CHANNEL_CALLBACKTYPEPvS3_
3916:__ZN4FMOD7Channel12getFrequencyEPf
3917:__ZN4FMOD7Channel11getUserDataEPPv
3918:__ZN4FMOD7SystemI9playSoundE17FMOD_CHANNELINDEXPNS_5SoundEbPPNS_7ChannelE
3919:__ZN10ObjectPoolIN4FMOD7ChannelENS0_8ChannelIEE7GetFreeEi
3920:__ZN4FMOD22FakeModChannelCallbackEPv
3921:__ZN4FMOD5Sound12getOpenStateEP14FMOD_OPENSTATEPjPbS4_
3922:__ZN4FMOD5Sound15getNumSubSoundsEPi
3923:__ZN4FMOD5Sound11getSubSoundEiPPS0_
3924:__ZN11SoundHandle8Instance15FinalizeLoadingEv
3925:__ZN4FMOD5Sound11setUserDataEPv
3926:__ZN4FMOD8ChannelI11setPositionEjj
3927:__ZN10SampleClip15UnloadAudioDataEv
3928:__ZNK14SoundHandleAPI12GetLoadStateEv
3929:__Z15GetSoundManagerv
3930:__ZN12SoundManager10UnloadClipEP10SampleClip
3931:__ZN12SoundManager20RegisterModifiedClipEP10SampleClip
3932:__ZNK10SampleClip11GetResourceEv
3933:__ZN11SoundHandle8Instance7DisposeEv
3934:__ZN11SoundHandleD2Ev
3935:__ZN11SoundHandle7ReleaseEv
3936:__ZN11SoundHandleaSERKS_
3937:__ZN26AudioSampleProviderChannel11ReleaseFMODEv
3938:__ZN13AudioPlayable26ReleaseFMODResourceVisitorERK16AudioProcessData
3939:__ZN13AudioPlayable27ReleaseChannelGroupsVisitorERK16AudioProcessData
3940:__ZN22AudioPlayableTraverser8TraverseERK16AudioProcessData
3941:__ZN11AudioFilter7CleanupEv
3942:__ZN17AudioCustomFilter7CleanupEv
3943:__ZN11AudioSource4StopEb
3944:__ZN4FMOD3DSP11getUserDataEPPv
3945:__ZN11AudioSource16CleanAudioSourceEb
3946:__ZN11AudioSource20SetEffectActiveStateEb
3947:__ZN4FMOD3DSP9setActiveEb
3948:__ZN13dynamic_arrayI12SoundChannelLm0EE13clear_deallocEv
3949:__ZN11AudioSource26MuteActiveProviderChannelsEv
3950:__ZN20SoundChannelInstance7setMuteEb
3951:_FMOD_Memory_Initialize
3952:_FMOD_System_Create
3953:__ZNK12AudioManager18ValidateFMODResultE11FMOD_RESULTiPKcS2_
3954:__Z14FMOD_FILE_OpenPKciPjPPvS3_
3955:__Z15FMOD_FILE_ClosePvS_
3956:__Z14FMOD_FILE_ReadPvS_jPjS_
3957:__Z14FMOD_FILE_SeekPvjS_
3958:__ZN4FMOD6System13setFileSystemEPF11FMOD_RESULTPKciPjPPvS6_EPFS1_S5_S5_EPFS1_S5_S5_jS4_S5_EPFS1_S5_jS5_EPFS1_P18FMOD_ASYNCREADINFOS5_ESA_i
3959:__ZN4FMOD6System10getVersionEPj
3960:__ZN4FMOD6System19setStreamBufferSizeEjj
3961:__ZN12AudioManager14systemCallbackEP11FMOD_SYSTEM24FMOD_SYSTEM_CALLBACKTYPEPvS3_
3962:__ZN4FMOD6System11setCallbackEPF11FMOD_RESULTP11FMOD_SYSTEM24FMOD_SYSTEM_CALLBACKTYPEPvS5_E
3963:__ZN11AudioSource15rolloffCallbackEP12FMOD_CHANNELf
3964:__ZN4FMOD6System20set3DRolloffCallbackEPFfP12FMOD_CHANNELfE
3965:__ZN12AudioManager10InitNormalEb15FMOD_OUTPUTTYPE
3966:__ZN4FMOD6System7releaseEv
3967:__ZN4FMOD6System21getMasterChannelGroupEPPNS_12ChannelGroupE
3968:__ZN4FMOD6System17getSoftwareFormatEPiP17FMOD_SOUND_FORMATS1_S1_P18FMOD_DSP_RESAMPLERS1_
3969:__ZN4FMOD6System16getDSPBufferSizeEPjPi
3970:__ZN4FMOD6System11getDSPClockEPjS1_
3971:__Z29AudioMasterDSPProcessCallbackP21UnityAudioEffectStatePfS1_jii
3972:__ZN29AudioEffectInternalDefinition9CreateDSPEPN4FMOD6SystemEPvPfP23UnityAudioAmbisonicDataPP25UnityAudioSpatializerData
3973:__ZN4FMOD6System18createChannelGroupEPKcPPNS_12ChannelGroupE
3974:__ZN4FMOD12ChannelGroup8addGroupEPS0_
3975:__ZN29AudioEffectInternalDefinitionD2Ev
3976:__ZN12SoundManagerC2Ev
3977:__ZN10ObjectPoolIN4FMOD12ChannelGroupENS0_13ChannelGroupIEE7GetFreeEi
3978:__ZN4FMOD6System9createDSPEP20FMOD_DSP_DESCRIPTIONPPNS_3DSPE
3979:__ZN29AudioEffectInternalDefinitionC2EP26UnityAudioEffectDefinitionb
3980:__ZN30AudioEffectInternalDescriptionC2EP26UnityAudioEffectDefinition
3981:__ZL39UnityAudioEffect_InternalCreateCallbackP14FMOD_DSP_STATE
3982:__ZL40UnityAudioEffect_InternalReleaseCallbackP14FMOD_DSP_STATE
3983:__ZL38UnityAudioEffect_InternalResetCallbackP14FMOD_DSP_STATE
3984:__ZL37UnityAudioEffect_InternalReadCallbackP14FMOD_DSP_STATEPfS1_jii
3985:__ZL44UnityAudioEffect_InternalSetPositionCallbackP14FMOD_DSP_STATEj
3986:__ZL50UnityAudioEffect_InternalSetFloatParameterCallbackP14FMOD_DSP_STATEif
3987:__ZL50UnityAudioEffect_InternalGetFloatParameterCallbackP14FMOD_DSP_STATEiPfPc
3988:__ZN4FMOD3DSP11setUserDataEPv
3989:__ZN4FMOD6System9setOutputE15FMOD_OUTPUTTYPE
3990:__ZN4FMOD6System13getNumDriversEPi
3991:__ZN4FMOD6System9getDriverEPi
3992:__ZN4FMOD6System13getDriverCapsEiPjPiP16FMOD_SPEAKERMODE
3993:__ZN4FMOD6System14setSpeakerModeE16FMOD_SPEAKERMODE
3994:__ZN4FMOD6System16setDSPBufferSizeEji
3995:__ZN4FMOD6System17setSoftwareFormatEi17FMOD_SOUND_FORMATii18FMOD_DSP_RESAMPLER
3996:__ZN4FMOD6System19setSoftwareChannelsEi
3997:__ZN4FMOD6System19setAdvancedSettingsEP21FMOD_ADVANCEDSETTINGS
3998:__ZN4FMOD6System4initEijPv
3999:__ZN10ObjectPoolIN4FMOD7ChannelENS0_8ChannelIEE7SetSizeEi
4000:__ZN12AudioManager27SetActiveOutputDriverCommonEP9FMOD_GUIDRKN4core12basic_stringIcNS2_20StringStorageDefaultIcEEEEb
4001:__ZN12SoundManager26OnCreateSoundPopAllocationEv
4002:__ZN12SoundManager27OnCreateSoundPushAllocationEPv
4003:__ZN12AudioManager19EngineThreadStartedEPKc
4004:__ZN4FMOD6System9setDriverEi
4005:__ZN4FMOD6System13getDriverInfoEiPciP9FMOD_GUID
4006:__ZN4FMOD7SystemIC2Ei
4007:__ZN10ObjectPoolIN4FMOD12ChannelGroupENS0_13ChannelGroupIEE7SetSizeEi
4008:__ZN10ObjectPoolIN4FMOD5SoundENS0_6SoundIEE7SetSizeEi
4009:__ZN10ObjectPoolIN4FMOD3DSPENS0_4DSPIEE7SetSizeEi
4010:__ZN12AudioManager27InitialCompleteDomainReloadEv
4011:__ZN24AudioScriptBufferManager27InitialCompleteDomainReloadEv
4012:__ZN24AudioScriptBufferManager4InitEv
4013:__ZN24AudioScriptBufferManagerC2Ev
4014:__ZN10AudioMixer6UpdateEf
4015:__ZN10AudioMixer18EnsureValidRuntimeEv
4016:__ZN5audio5mixer22UpdateAudioMixerMemoryERKNS0_18AudioMixerConstantERNS0_16AudioMixerMemoryEfPN4FMOD6SystemEf
4017:__ZN4FMOD12ChannelGroup19setAudibilityFactorEf
4018:__ZN4FMOD12ChannelGroup8setPitchEf
4019:__ZN4FMOD13DSPConnection6setMixEf
4020:__ZN5audio5mixerL19IsAnyChannelPlayingEPN4FMOD12ChannelGroupE
4021:__ZN5audio5mixer12SetSuspendedERNS0_16AudioMixerMemoryEb
4022:__ZN4FMOD3DSP9getActiveEPb
4023:__ZN4FMOD3DSP15getSystemObjectEPPNS_6SystemE
4024:__ZN4FMOD12ChannelGroup14getNumChannelsEPi
4025:__ZN4FMOD12ChannelGroup10getChannelEiPPNS_7ChannelE
4026:__ZN4FMOD7Channel9isPlayingEPb
4027:__ZN4FMOD12ChannelGroup12getNumGroupsEPi
4028:__ZN4FMOD12ChannelGroup8getGroupEiPPS0_
4029:__ZN5audio5mixer22CreateAudioMixerMemoryERKNS0_18AudioMixerConstantEPN4FMOD6SystemER20RuntimeBaseAllocatorib
4030:__ZN10AudioMixer31EnsureMixerGroupSinksAreCreatedEv
4031:__ZN10AudioMixer14UpdateMuteSoloEv
4032:__ZN5audio5mixer12UpdateBypassERNS0_18AudioMixerConstantERNS0_16AudioMixerMemoryE
4033:__ZN5audio5mixer21SetResultingMuteStateERKNS0_18AudioMixerConstantERKNS0_16AudioMixerMemoryEib
4034:__ZN10AudioMixer11SetupGroupsEv
4035:__ZN12AudioManager37RebindAudioSourcesAndSubMixersToMixerEP10AudioMixer
4036:__ZN11AudioSource19ConfigureFMODGroupsEv
4037:__ZN10AudioMixer12RebindOutputEv
4038:__ZN5audio5mixer16FindChannelGroupERKNS0_18AudioMixerConstantERKNS0_16AudioMixerMemoryERK9UnityGUID
4039:__ZN5audio5mixer17AssignOutputGroupERKNS0_18AudioMixerConstantERKNS0_16AudioMixerMemoryEPN4FMOD12ChannelGroupE
4040:__ZN4FMOD12ChannelGroup14getParentGroupEPPS0_
4041:__ZN11AudioSource12ApplyFiltersEv
4042:__ZNK11AudioSource19GetFilterComponentsERNSt3__26vectorIPN4FMOD3DSPENS0_9allocatorIS4_EEEEb
4043:__ZNSt3__26vectorIPN4FMOD3DSPENS_9allocatorIS3_EEE21__push_back_slow_pathIRKS3_EEvOT_
4044:__ZN10AudioMixer14MixerGroupSink15ProcessCallbackEP21UnityAudioEffectStatePfS3_jii
4045:__ZN4FMOD12ChannelGroup7setMuteEb
4046:__Z32AudioMeasurement_GetTimeConstantff
4047:__Z25GetAudioEffectDefinitionsPi
4048:__Z29AudioMixerSendProcessCallbackP21UnityAudioEffectStatePfS1_jii
4049:__Z32AudioMixerReceiveProcessCallbackP21UnityAudioEffectStatePfS1_jii
4050:__Z31AudioMixerDuckingCreateCallbackP21UnityAudioEffectState
4051:__Z32AudioMixerDuckingDestroyCallbackP21UnityAudioEffectState
4052:__Z37AudioMixerDuckingSetParameterCallbackP21UnityAudioEffectStateif
4053:__Z39AudioMixerDuckingGetFloatBufferCallbackP21UnityAudioEffectStatePKcPfi
4054:__Z32AudioMixerDuckingProcessCallbackP21UnityAudioEffectStatePfS1_jii
4055:__Z30AudioMixerFaderProcessCallbackP21UnityAudioEffectStatePfS1_jii
4056:__ZN4FMOD3DSP14disconnectFromEPS0_
4057:__ZN12AudioManager33GetAudioEffectInternalDefinitionsEv
4058:__ZN13dynamic_arrayIS_IfLm0EELm0EED2Ev
4059:__ZN11AudioSourceD2Ev
4060:__ZN11AudioSourceD0Ev
4061:__ZN11AudioSource17MainThreadCleanupEv
4062:__ZN11AudioSource13AwakeFromLoadE17AwakeFromLoadMode
4063:__ZN11AudioSource16CheckConsistencyEv
4064:__ZN11AudioSource5ResetEv
4065:__ZNK11AudioSource22GetTypeVirtualInternalEv
4066:__ZN11AudioSource23VirtualRedirectTransferER19StreamedBinaryWrite
4067:__ZN11AudioSource23VirtualRedirectTransferER18StreamedBinaryRead
4068:__ZN11AudioSource23VirtualRedirectTransferER17RemapPPtrTransfer
4069:__ZN11AudioSource23VirtualRedirectTransferER24GenerateTypeTreeTransfer
4070:__ZN11AudioSource23VirtualRedirectTransferER14SafeBinaryRead
4071:__ZN11AudioSource6UpdateEv
4072:__ZN11AudioSource11FixedUpdateEv
4073:__ZN11AudioSource12AddToManagerEv
4074:__ZN11AudioSource17RemoveFromManagerEv
4075:__ZN11AudioSource4PlayEd
4076:__ZN10SampleClip13LoadAudioDataEv
4077:__ZN11AudioSource28UnmuteActiveProviderChannelsEv
4078:__ZN11AudioSource16CreateFMODGroupsEv
4079:__ZN11AudioSource11AssignPropsEv
4080:__ZN11AudioSource20ApplySpatializerDataERKNS_14ParameterCacheE
4081:__ZN11AudioSource18ApplyAmbisonicDataERKNS_14ParameterCacheE
4082:__ZN20SoundChannelInstance15setChannelGroupEPN4FMOD12ChannelGroupE
4083:__ZN11AudioSource21ApplyCachedParametersE12SoundChannel
4084:__ZN11AudioSource20Apply3DPanParametersERKNS_14ParameterCacheE12SoundChannel
4085:__ZN20SoundChannelInstance15set3DAttributesEPK11FMOD_VECTORS2_
4086:__ZN11AudioSource19ApplyMinMaxDistanceERKNS_14ParameterCacheE12SoundChannel
4087:__ZN11AudioSource18ApplyReverbZoneMixERKNS_14ParameterCacheE12SoundChannel
4088:__ZN11AudioSource13ApplyPriorityERKNS_14ParameterCacheE12SoundChannel
4089:__ZN20SoundChannelInstance9isVirtualEPb
4090:__ZN4FMOD7Channel9isVirtualEPb
4091:__ZN20SoundChannelInstance11setPriorityEi
4092:__ZN20SoundChannelInstance19getReverbPropertiesEP29FMOD_REVERB_CHANNELPROPERTIES
4093:__ZN20SoundChannelInstance19setReverbPropertiesEP29FMOD_REVERB_CHANNELPROPERTIES
4094:__ZN4FMOD7Channel19getReverbPropertiesEP29FMOD_REVERB_CHANNELPROPERTIES
4095:__ZN20SoundChannelInstance19set3DMinMaxDistanceEff
4096:__ZN20SoundChannelInstance11set3DSpreadEf
4097:__ZN11AudioSource8SetPitchEf
4098:__ZN20SoundChannelInstance7SetLoopEb
4099:__ZN11AudioSource20CacheFrameParametersEv
4100:__ZN11AudioSource15CachePositionalERNS_14ParameterCacheE
4101:__ZN11AudioSource24CacheDistanceAttenuationERNS_14ParameterCacheE
4102:__ZN11AudioSource11CacheVolumeERNS_14ParameterCacheE
4103:__ZN11AudioSource14SetPostDSPGainEPN4FMOD3DSPEf
4104:__ZNK10SampleClip20GetCompressionFormatEv
4105:__ZN12AudioManager31GetCurrentSpatializerDefinitionEv
4106:__ZN10AudioMixer16ResumeProcessingEv
4107:__Z30GetAudioSpatializerDefinitionsR13dynamic_arrayIP29AudioEffectInternalDefinitionLm0EE31UnityAudioEffectDefinitionFlags
4108:__ZN10SampleClip13LoadBaseSoundEv
4109:__ZNK10SampleClip17CalculateFMODModeEv
4110:__ZN12SoundManager9GetHandleERK16StreamedResourceijjP10SampleClipb
4111:__Z13LoadFMODSoundPPN11SoundHandle8InstanceEPKcjP10SampleClipjN3VFS8FileSizeEP22FMOD_CREATESOUNDEXINFO
4112:__ZN12SoundManager18IntegrateFMODSoundEPN11SoundHandle8InstanceERK16StreamedResourcejiN17SoundHandleShared9LoadStateE
4113:__ZN4FMOD5Sound13setLoopPointsEjjjj
4114:__ZN11SoundHandle8InstanceC2Ev
4115:__ZN4FMOD6System11createSoundEPKcjP22FMOD_CREATESOUNDEXINFOPPNS_5SoundE
4116:__ZN4FMOD7SystemI11createSoundEPKcjP22FMOD_CREATESOUNDEXINFOPPNS_5SoundE
4117:__ZN10ObjectPoolIN4FMOD5SoundENS0_6SoundIEE7GetFreeEi
4118:__ZN7WeakPtrIN11SoundHandle8InstanceEE10SharedDataD2Ev
4119:__ZN7WeakPtrIN11SoundHandle8InstanceEE10SharedDataD0Ev
4120:__ZNK7WeakPtrIN11SoundHandle8InstanceEE10SharedData9GetRawPtrEv
4121:__ZN11AudioSource16UpdatePauseStateEv
4122:__ZN10SampleClip15AllocateChannelEby
4123:__ZN4FMOD6System7playDSPE17FMOD_CHANNELINDEXPNS_3DSPEbPPNS_7ChannelE
4124:__ZN11AudioSource15AddAmbisonicDSPE12SoundChannel
4125:__ZN20SoundChannelInstance14SetPositionPCMEj
4126:__ZN12AudioManager29GetCurrentAmbisonicDefinitionE31UnityAudioEffectDefinitionFlags
4127:__ZN20SoundChannelInstance15AddAmbisonicDSPE31UnityAudioEffectDefinitionFlagsP23UnityAudioAmbisonicData
4128:__ZN4FMOD3DSP12getParameterEiPfPci
4129:__ZN20SoundChannelInstanceC2E11SoundHandleb
4130:__ZN7WeakPtrI20SoundChannelInstanceE10SharedDataD2Ev
4131:__ZN7WeakPtrI20SoundChannelInstanceE10SharedDataD0Ev
4132:__ZN20SoundChannelInstanceD2Ev
4133:__ZN20SoundChannelInstanceD0Ev
4134:__ZN10SampleClip14ReleaseIfEqualE11SoundHandle
4135:__ZN11SoundHandleC2ERKS_
4136:__ZN11SoundHandleC2Ev
4137:__ZN4FMOD7SystemI7playDSPE17FMOD_CHANNELINDEXPNS_3DSPEbPPNS_7ChannelE
4138:__ZN11SoundHandle13CreateChannelEb
4139:__ZN20SoundChannelInstance8setDelayE14FMOD_DELAYTYPEjj
4140:__ZN11SoundHandle8Instance13CreateChannelERS_b
4141:__ZN11AudioSource32CorrectScheduledTimeAfterUnpauseEyy
4142:__ZN20SoundChannelInstance8getDelayE14FMOD_DELAYTYPEPjS1_
4143:__ZN11AudioSource8DoUpdateEv
4144:__ZN11AudioSource19UpdateLocalChannelsER13dynamic_arrayI12SoundChannelLm0EE
4145:__ZNK11AudioSource9IsPlayingEv
4146:__ZN20SoundChannelInstance9isPlayingEPb
4147:__ZN11AudioSource8TransferI14SafeBinaryReadEEvRT_
4148:__ZN11AudioSource19CreateOpenALRolloffEfff
4149:__ZN11AudioSource8TransferI24GenerateTypeTreeTransferEEvRT_
4150:__ZN11AudioSource8TransferI18StreamedBinaryReadEEvRT_
4151:__ZN11AudioSource8TransferI19StreamedBinaryWriteEEvRT_
4152:__ZN11AudioSource26KillActiveProviderChannelsEv
4153:__ZN13dynamic_arrayI12SoundChannelLm0EED2Ev
4154:__ZN10SampleClipD2Ev
4155:__ZN10SampleClipD0Ev
4156:__ZN10SampleClip17MainThreadCleanupEv
4157:__ZNK10SampleClip22GetTypeVirtualInternalEv
4158:__ZN10SampleClip23VirtualRedirectTransferER24GenerateTypeTreeTransfer
4159:__ZN10SampleClip23VirtualRedirectTransferER14SafeBinaryRead
4160:__ZNK10SampleClip12GetLoadStateEv
4161:__ZN9AudioClipD2Ev
4162:__ZN9AudioClipD0Ev
4163:__ZN9AudioClip17MainThreadCleanupEv
4164:__ZN9AudioClip13AwakeFromLoadE17AwakeFromLoadMode
4165:__ZN9AudioClip21AwakeFromLoadThreadedEv
4166:__ZNK9AudioClip22GetTypeVirtualInternalEv
4167:__ZN9AudioClip23VirtualRedirectTransferER19StreamedBinaryWrite
4168:__ZN9AudioClip23VirtualRedirectTransferER18StreamedBinaryRead
4169:__ZN9AudioClip23VirtualRedirectTransferER17RemapPPtrTransfer
4170:__ZN9AudioClip23VirtualRedirectTransferER24GenerateTypeTreeTransfer
4171:__ZN9AudioClip23VirtualRedirectTransferER14SafeBinaryRead
4172:__ZN9AudioClip8TransferI14SafeBinaryReadEEvRT_
4173:__ZN9AudioClip8TransferI24GenerateTypeTreeTransferEEvRT_
4174:__ZN9AudioClip8TransferI18StreamedBinaryReadEEvRT_
4175:__ZN9AudioClip8TransferI19StreamedBinaryWriteEEvRT_
4176:__ZN9AudioClip9LoadSoundEv
4177:__ZN9AudioClip11CreateSoundEv
4178:__ZN12AudioManager22CreateFMODSoundFromWWWEP10IWWWStream15FMOD_SOUND_TYPE17FMOD_SOUND_FORMATjjbbP10SampleClip
4179:__ZN12SoundManager22GetHandleFromFMODSoundEPN11SoundHandle8InstanceEjP10SampleClip
4180:__ZN9AudioClip21ScriptPCMReadCallbackEP10FMOD_SOUNDPvj
4181:__ZN9AudioClip28ScriptPCMSetPositionCallbackEP10FMOD_SOUNDijj
4182:__ZN12SoundManager19CreateSoundInternalEPKcjP22FMOD_CREATESOUNDEXINFOR11SoundHandlejP10SampleClip
4183:__ZN4FMOD5Sound11getUserDataEPPv
4184:__Z31GetParentSampleClipFromInstancePN11SoundHandle8InstanceE
4185:__ZN12AudioManager22GetScriptBufferManagerEv
4186:__ZN9AudioClip7WWWOpenEPKciPjPPvS4_
4187:__ZN9AudioClip8WWWCloseEPvS0_
4188:__ZN9AudioClip7WWWReadEPvS0_jPjS0_
4189:__ZN9AudioClip7WWWSeekEPvjS0_
4190:__ZN10IWWWStream25FromTextualRepresentationEPKc
4191:__ZN13AudioListenerD2Ev
4192:__ZN13AudioListenerD0Ev
4193:__ZN13AudioListener13AwakeFromLoadE17AwakeFromLoadMode
4194:__ZNK13AudioListener22GetTypeVirtualInternalEv
4195:__ZN13AudioListener23VirtualRedirectTransferER19StreamedBinaryWrite
4196:__ZN13AudioListener23VirtualRedirectTransferER18StreamedBinaryRead
4197:__ZN13AudioListener23VirtualRedirectTransferER17RemapPPtrTransfer
4198:__ZN13AudioListener23VirtualRedirectTransferER24GenerateTypeTreeTransfer
4199:__ZN13AudioListener23VirtualRedirectTransferER14SafeBinaryRead
4200:__ZN13AudioListener6UpdateEv
4201:__ZN13AudioListener11FixedUpdateEv
4202:__ZN13AudioListener12AddToManagerEv
4203:__ZN13AudioListener17RemoveFromManagerEv
4204:__ZN12AudioManager19RemoveAudioListenerEP13AudioListener
4205:__ZN12AudioManager16AddAudioListenerEP13AudioListener
4206:__ZN13AudioListener8DoUpdateEv
4207:__ZN12AudioManager14UpdateListenerERK8Vector3fS2_S2_S2_
4208:__ZNK18AudioLowPassFilter18GetCutoffFrequencyEv
4209:__ZN18AudioLowPassFilter26SetCutoffFrequencyInternalEf
4210:__ZN4FMOD6System23set3DListenerAttributesEiPK11FMOD_VECTORS3_S3_S3_
4211:__ZN12AudioManager22GetAutomaticUpdateModeEP10GameObject
4212:__ZN14AudioBehaviourD2Ev
4213:__ZNK14AudioBehaviour22GetTypeVirtualInternalEv
4214:__ZN17AudioCustomFilterD2Ev
4215:__ZN17AudioCustomFilterD0Ev
4216:__Z18GetAudioModuleSpecv
4217:__Z18RegisterUnityClassI9AudioClipEvPKc
4218:__Z18RegisterUnityClassI14AudioBehaviourEvPKc
4219:__Z18RegisterUnityClassI13AudioListenerEvPKc
4220:__Z18RegisterUnityClassI11AudioSourceEvPKc
4221:__ZN13ProduceHelperI11AudioSourceLb0EE7ProduceE10MemLabelId18ObjectCreationMode
4222:__ZN11AudioSource15InitializeClassEv
4223:__ZZN11AudioSource15InitializeClassEvEN32FunctorImpl_2652kDidAddComponent4CallEPviR11MessageData
4224:__ZN18BaseObjectInternal9NewObjectI11AudioSourceEEP6Object10MemLabelId18ObjectCreationMode
4225:__ZN11AudioSourceC2E10MemLabelId18ObjectCreationMode
4226:__ZN15AudioParametersC2E10MemLabelId
4227:__ZN13ProduceHelperI13AudioListenerLb0EE7ProduceE10MemLabelId18ObjectCreationMode
4228:__ZN13AudioListener15InitializeClassEv
4229:__ZZN13AudioListener15InitializeClassEvEN31FunctorImpl_197kDidAddComponent4CallEPviR11MessageData
4230:__ZN18BaseObjectInternal9NewObjectI13AudioListenerEEP6Object10MemLabelId18ObjectCreationMode
4231:__ZN14AudioBehaviourC2E10MemLabelId18ObjectCreationMode
4232:__ZN13ProduceHelperI9AudioClipLb0EE7ProduceE10MemLabelId18ObjectCreationMode
4233:__ZN18BaseObjectInternal9NewObjectI9AudioClipEEP6Object10MemLabelId18ObjectCreationMode
4234:__ZN9AudioClipC2E10MemLabelId18ObjectCreationMode
4235:__ZN10SampleClipC2E10MemLabelId18ObjectCreationMode
4236:__ZN14SoundHandleAPI9GetNextIdEv
4237:__ZN7WeakPtrI10SampleClipE10SharedDataD2Ev
4238:__ZN7WeakPtrI10SampleClipE10SharedDataD0Ev
4239:__ZN16BaseVideoTexture19UpdateVideoTexturesEv
4240:__ZN16BaseVideoTexture18PauseVideoTexturesEv
4241:__ZN16BaseVideoTexture17StopVideoTexturesEv
4242:__ZN16BaseVideoTexture20SuspendVideoTexturesEv
4243:__ZN16BaseVideoTexture19ResumeVideoTexturesEv
4244:__ZNK17BaseWebCamTexture9GetPixelsE13TextureFormatPvm
4245:__ZN4FMOD6System18getChannelsPlayingEPi
4246:__ZN4FMOD6System11getCPUUsageEPfS1_S1_S1_S1_
4247:__ZZL31InitializeAudioManagerCallbacksvEN38FixedUpdateAudioFixedUpdateRegistrator7ForwardEv
4248:__ZZL31InitializeAudioManagerCallbacksvEN36PostLateUpdateUpdateAudioRegistrator7ForwardEv
4249:__ZZL31InitializeAudioManagerCallbacksvEN44PostLateUpdateUpdateVideoTexturesRegistrator7ForwardEv
4250:__ZN11AudioModule16SetListenerPauseEb
4251:__ZN11AudioModule19SetApplicationPauseEb
4252:__ZN11AudioModule11FixedUpdateEv
4253:__ZN11AudioModule6UpdateEv
4254:__ZN11AudioModule11GetDSPClockEv
4255:__ZN11AudioModule16GetDSPSampleRateEv
4256:__ZN11AudioModule15GetDSPBlockSizeEv
4257:__ZN11AudioModule17StopVideoTexturesEv
4258:__ZN11AudioModule19UpdateVideoTexturesEv
4259:__ZN11AudioModule18PauseVideoTexturesEv
4260:__ZN11AudioModule20SuspendVideoTexturesEv
4261:__ZN11AudioModule19ResumeVideoTexturesEv
4262:__ZN11AudioModule22CreateAudioClipFromWWWEP10IWWWStreamPKcbbi
4263:__ZN11AudioModule27IsFormatSupportedByPlatformEPKc
4264:__ZN11AudioModule30GetOrCreateDSPFromCustomFilterEP17AudioCustomFilter
4265:__ZN11AudioModule23CreateAudioCustomFilterEP13MonoBehaviour
4266:__ZN11AudioModule23DeleteAudioCustomFilterEP17AudioCustomFilter
4267:__ZN11AudioModule27GetDSPFromAudioCustomFilterEP17AudioCustomFilter
4268:__ZN11AudioModule14SetBypassOnDSPEPN4FMOD3DSPEb
4269:__ZN11AudioModule16GetProfilerStatsER10AudioStats
4270:__ZN11AudioModule12CaptureFrameER13dynamic_arrayI22AudioProfilerGroupInfoLm0EERS0_I20AudioProfilerDSPInfoLm0EERS0_I21AudioProfilerClipInfoLm0EERS0_IcLm0EE
4271:__ZN11AudioModule23SetProfilerCaptureFlagsEi
4272:__ZN11AudioModule25AudioManagerAwakeFromLoadE17AwakeFromLoadMode
4273:__ZN11AudioModule21SetActiveOutputDriverEPv
4274:__ZN11AudioModule26SetDefaultMicrophoneDriverEPv
4275:__ZN11AudioModule26AcquireAudioSampleProviderEiRN19AudioSampleProvider6HandleE
4276:__ZN11AudioModule28DoesAudioSampleProviderExistEi
4277:__ZN11AudioModule11EnableInputEP19AudioSampleProviderb
4278:__ZN11AudioModule19ConsumeSampleFramesEP19AudioSampleProviderR13dynamic_arrayIfLm0EE
4279:__ZN11AudioModule34GetAudioSampleProviderChannelCountEP19AudioSampleProvider
4280:__ZN11AudioModule32GetAudioSampleProviderSampleRateEP19AudioSampleProvider
4281:__ZN11AudioModule13IsMixerThreadEv
4282:__ZN11AudioModule13GetNumDevicesEv
4283:__ZN11AudioModule15IsAudioDisabledEv
4284:__ZNK12AudioManager13GetNumDevicesEv
4285:__ZN12AudioManager13IsMixerThreadEv
4286:__ZN19AudioSampleProvider19ConsumeSampleFramesER13dynamic_arrayIfLm0EE
4287:__ZN19AudioSampleProvider23ExecuteSkipSampleFramesER13dynamic_arrayIfLm0EEm
4288:__ZNK20DiscontinuityHandler15FadeSampleCountEv
4289:__ZN19AudioSampleProvider33ConsumeSampleFramesFromRingbufferEPfm
4290:__ZN20DiscontinuityHandler11ApplyFadeInER13dynamic_arrayIfLm0EE
4291:__ZN19AudioSampleProvider12ApplyFadeOutER13dynamic_arrayIfLm0EEmb
4292:__ZN20DiscontinuityHandler12ApplyFadeOutERK13dynamic_arrayIfLm0EEPf
4293:__ZL14GetFadeInCurvev
4294:__ZN13StreamHistory5ResetEv
4295:__ZZN19AudioSampleProvider33ConsumeSampleFramesFromRingbufferEPfmEN5Local12AddToHistoryER13StreamHistoryR22tuple_fixed_ringbufferIfEmZNS_33ConsumeSampleFramesFromRingbufferES0_mENS1_19HistoryAddBehaviourE
4296:__ZN15CrossFadeHelper24SuggestedCrossFadeAmountEv
4297:__ZN13StreamHistory4CopyEPfmmm
4298:__ZNK13StreamHistory21OldestSampleChunkSizeEv
4299:__ZN13StreamHistory20PopOldestSampleChunkEv
4300:__ZN13StreamHistory18AcquireSampleChunkER13dynamic_arrayIfLm0EE
4301:__ZN13dynamic_arrayIS_IfLm0EELm0EE18resize_initializedEm12ResizePolicy
4302:__ZN19AudioSampleProvider11EnableInputEb
4303:__ZN19AudioSampleProvider6ExistsEj
4304:__ZN19AudioSampleProvider7AcquireEjRNS_6HandleE
4305:__ZN12AudioManager26SetDefaultMicrophoneDriverEP9FMOD_GUID
4306:__ZN12AudioManager21SetActiveOutputDriverEP9FMOD_GUID
4307:__ZN13AudioProfiler12CaptureFrameER13dynamic_arrayI22AudioProfilerGroupInfoLm0EERS0_I20AudioProfilerDSPInfoLm0EERS0_I21AudioProfilerClipInfoLm0EERS0_IcLm0EE
4308:__ZN12AudioManager15GetProfilerDataER10AudioStats
4309:__ZN12SoundManager15GetProfilerDataER10AudioStats
4310:__ZN17AudioCustomFilterC2EP13MonoBehaviour
4311:__ZN17AudioCustomFilter4InitEv
4312:__ZL22FMODDSPReleaseCallbackP14FMOD_DSP_STATE
4313:__ZL20SharedDataDeleterJobP21UnownedResourceHandleI17AudioCustomFilterE
4314:__ZN17AudioCustomFilter14GetOrCreateDSPEv
4315:__ZN9AudioClip27IsFormatSupportedByPlatformERKN4core12basic_stringIcNS0_20StringStorageDefaultIcEEEE
4316:__ZN9AudioClip22GetFormatFromExtensionERKN4core12basic_stringIcNS0_20StringStorageDefaultIcEEEE
4317:__ZN9AudioClip16EnableLegacyModeEv
4318:__ZN9AudioClip10InitStreamEP10IWWWStreamPKcPvbb15FMOD_SOUND_TYPE
4319:__ZNSt3__26vectorIh13stl_allocatorIhL18MemLabelIdentifier32ELi16EEE7reserveEm
4320:__ZNK12AudioManager15GetDSPBlockSizeEv
4321:__ZNK12AudioManager16GetDSPSampleRateEv
4322:__ZNK12AudioManager11GetDSPClockEv
4323:__ZN12AudioManager6UpdateEv
4324:__ZN12AudioManager23ProcessScheduledSourcesEv
4325:__ZN12AudioManager11FixedUpdateEv
4326:__ZN12AudioManager19SetApplicationPauseEb
4327:__ZN12AudioManager16SetListenerPauseEb
4328:__Z18RegisterUnityClassI12AudioManagerEvPKc
4329:__Z18RegisterUnityClassI10SampleClipEvPKc
4330:__ZN13ProduceHelperI10SampleClipLb0EE7ProduceE10MemLabelId18ObjectCreationMode
4331:__ZN18BaseObjectInternal9NewObjectI10SampleClipEEP6Object10MemLabelId18ObjectCreationMode
4332:__ZN13ProduceHelperI12AudioManagerLb0EE7ProduceE10MemLabelId18ObjectCreationMode
4333:__ZN18BaseObjectInternal9NewObjectI12AudioManagerEEP6Object10MemLabelId18ObjectCreationMode
4334:__ZN12AudioManagerC2E10MemLabelId18ObjectCreationMode
4335:_RegisterModule_Audio
4336:__Z22InitializeModule_Audiov
4337:__ZL19CleanupModule_Audiov
4338:__ZN13dynamic_arrayIfLm0EEC2EmRK10MemLabelId
4339:__ZN19AudioSampleProvider6RemoveEj
4340:__ZN11AudioSource11PlayOneShotER9AudioClipf
4341:__Z36AudioSource_CUSTOM_PlayOneShotHelperP12Il2CppObjectS0_f
4342:__Z50Register_UnityEngine_AudioSource_PlayOneShotHelperv
4343:__GLOBAL__sub_I_ClothScriptingClasses_cpp
4344:___cxx_global_var_init_24
4345:___cxx_global_var_init_25
4346:__GLOBAL__sub_I_Modules_Cloth_0_cpp
4347:___cxx_global_var_init_18
4348:__GLOBAL__sub_I_nvcloth_src_0_cpp
4349:__GLOBAL__sub_I_nvcloth_src_1_cpp
4350:__GLOBAL__sub_I_SwInterCollision_cpp
4351:__GLOBAL__sub_I_SwSolverKernel_cpp
4352:__ZN13RuntimeStaticI12ClothStaticsLb0EE16StaticInitializeEPv
4353:__ZN13RuntimeStaticI12ClothStaticsLb0EE13StaticDestroyEPv
4354:__ZN24StaticInitializeInternal13ConstructTypeI12ClothStaticsLb0EEEPvS2_RK10MemLabelId
4355:__ZN18ClothAssertHandlerclEPKcS1_iRb
4356:__ZN16ClothErrorStream11reportErrorEN5physx11PxErrorCode4EnumEPKcS4_i
4357:__ZN14ClothAllocator8allocateEmPKcS1_i
4358:__ZN14ClothAllocator10deallocateEPv
4359:__ZN9Scripting11UnityEngineL65__ManagedRegistrationHelperFunction_ClothSkinningCoefficientProxyEPv
4360:__ZN9Scripting11UnityEngineL64__ManagedRegistrationHelperFunction_ClothSphereColliderPairProxyEPv
4361:__ZN9Scripting11UnityEngine28ClothSphereColliderPairProxy9InitProxyEv
4362:__ZN9Scripting11UnityEngine28ClothSphereColliderPairProxy12CleanupProxyEv
4363:__ZN9Scripting11UnityEngine29ClothSkinningCoefficientProxy9InitProxyEv
4364:__ZN9Scripting11UnityEngine29ClothSkinningCoefficientProxy12CleanupProxyEv
4365:__GLOBAL__sub_I_artifacts_WebGL_codegenerator_0_cpp
4366:__GLOBAL__sub_I_Runtime_GfxDevice_opengles_0_cpp
4367:__GLOBAL__sub_I_Runtime_GfxDevice_opengles_2_cpp
4368:__GLOBAL__sub_I_Runtime_VirtualFileSystem_0_cpp
4369:__GLOBAL__sub_I_Runtime_VirtualFileSystem_1_cpp
4370:__GLOBAL__sub_I_Runtime_Input_0_cpp
4371:__GLOBAL__sub_I_GfxDeviceNull_cpp
4372:__GLOBAL__sub_I_External_ProphecySDK_BlitOperations_1_cpp
4373:__GLOBAL__sub_I_Runtime_2D_Renderer_0_cpp
4374:___cxx_global_var_init_19
4375:__GLOBAL__sub_I_Runtime_2D_Sorting_0_cpp
4376:___cxx_global_var_init_16
4377:__GLOBAL__sub_I_Runtime_2D_SpriteAtlas_0_cpp
4378:__GLOBAL__sub_I_Runtime_2D_SpriteTiling_0_cpp
4379:__GLOBAL__sub_I_Runtime_Allocator_0_cpp
4380:__GLOBAL__sub_I_Runtime_Allocator_2_cpp
4381:__GLOBAL__sub_I_Runtime_Allocator_3_cpp
4382:__GLOBAL__sub_I_Runtime_Application_0_cpp
4383:__GLOBAL__sub_I_Runtime_BaseClasses_0_cpp
4384:__GLOBAL__sub_I_Runtime_BaseClasses_1_cpp
4385:__GLOBAL__sub_I_Runtime_BaseClasses_2_cpp
4386:__GLOBAL__sub_I_Runtime_BaseClasses_3_cpp
4387:__GLOBAL__sub_I_Runtime_Burst_0_cpp
4388:__GLOBAL__sub_I_Runtime_Camera_0_cpp
4389:__GLOBAL__sub_I_Runtime_Camera_1_cpp
4390:__GLOBAL__sub_I_Runtime_Camera_2_cpp
4391:___cxx_global_var_init_9
4392:__GLOBAL__sub_I_Runtime_Camera_3_cpp
4393:__GLOBAL__sub_I_Runtime_Camera_4_cpp
4394:__GLOBAL__sub_I_Runtime_Camera_5_cpp
4395:___cxx_global_var_init_181
4396:___cxx_global_var_init_182
4397:__GLOBAL__sub_I_Runtime_Camera_6_cpp
4398:___cxx_global_var_init_104
4399:___cxx_global_var_init_105
4400:__GLOBAL__sub_I_Runtime_Camera_7_cpp
4401:__GLOBAL__sub_I_Runtime_Camera_8_cpp
4402:__GLOBAL__sub_I_Shadows_cpp
4403:__GLOBAL__sub_I_Runtime_Camera_Culling_0_cpp
4404:__GLOBAL__sub_I_GUITexture_cpp
4405:__GLOBAL__sub_I_Runtime_Camera_RenderLoops_0_cpp
4406:__GLOBAL__sub_I_Runtime_Camera_RenderLoops_2_cpp
4407:__GLOBAL__sub_I_Runtime_Containers_0_cpp
4408:__GLOBAL__sub_I_Runtime_Core_Callbacks_0_cpp
4409:__GLOBAL__sub_I_Runtime_File_0_cpp
4410:__GLOBAL__sub_I_Runtime_GameCode_0_cpp
4411:__GLOBAL__sub_I_Runtime_Geometry_1_cpp
4412:__GLOBAL__sub_I_Runtime_Geometry_2_cpp
4413:__GLOBAL__sub_I_Runtime_Graphics_0_cpp
4414:___cxx_global_var_init_128
4415:___cxx_global_var_init_129
4416:__GLOBAL__sub_I_Runtime_Graphics_1_cpp
4417:__GLOBAL__sub_I_Runtime_Graphics_2_cpp
4418:___cxx_global_var_init_75
4419:__GLOBAL__sub_I_Runtime_Graphics_4_cpp
4420:__GLOBAL__sub_I_Runtime_Graphics_5_cpp
4421:__GLOBAL__sub_I_Runtime_Graphics_6_cpp
4422:__GLOBAL__sub_I_Runtime_Graphics_8_cpp
4423:__GLOBAL__sub_I_Runtime_Graphics_10_cpp
4424:__GLOBAL__sub_I_Runtime_Graphics_11_cpp
4425:__GLOBAL__sub_I_Runtime_Graphics_12_cpp
4426:__GLOBAL__sub_I_Runtime_Graphics_Billboard_0_cpp
4427:__GLOBAL__sub_I_Runtime_Graphics_CommandBuffer_0_cpp
4428:__GLOBAL__sub_I_Runtime_Graphics_LOD_0_cpp
4429:__GLOBAL__sub_I_Runtime_Graphics_Mesh_0_cpp
4430:__GLOBAL__sub_I_Runtime_Graphics_Mesh_1_cpp
4431:___cxx_global_var_init_14
4432:__GLOBAL__sub_I_Runtime_Graphics_Mesh_2_cpp
4433:__GLOBAL__sub_I_Runtime_Graphics_Mesh_3_cpp
4434:__GLOBAL__sub_I_Runtime_Graphics_Mesh_4_cpp
4435:___cxx_global_var_init_48_1254
4436:__GLOBAL__sub_I_Runtime_Graphics_Mesh_5_cpp
4437:__GLOBAL__sub_I_Runtime_Graphics_Mesh_6_cpp
4438:__GLOBAL__sub_I_Runtime_Graphics_ScriptableRenderLoop_0_cpp
4439:__GLOBAL__sub_I_Runtime_Graphics_ScriptableRenderLoop_1_cpp
4440:__GLOBAL__sub_I_Runtime_Interfaces_0_cpp
4441:__GLOBAL__sub_I_Runtime_Interfaces_1_cpp
4442:__GLOBAL__sub_I_Runtime_Interfaces_2_cpp
4443:__GLOBAL__sub_I_Runtime_Jobs_0_cpp
4444:__GLOBAL__sub_I_Runtime_Jobs_1_cpp
4445:__GLOBAL__sub_I_Runtime_Jobs_2_cpp
4446:__GLOBAL__sub_I_Runtime_Jobs_Internal_1_cpp
4447:__GLOBAL__sub_I_Runtime_Jobs_ScriptBindings_0_cpp
4448:__GLOBAL__sub_I_Runtime_Math_2_cpp
4449:__GLOBAL__sub_I_Runtime_Math_Random_0_cpp
4450:___cxx_global_var_init_176
4451:___cxx_global_var_init_177
4452:___cxx_global_var_init_178
4453:___cxx_global_var_init_179
4454:___cxx_global_var_init_180
4455:___cxx_global_var_init_181_7409
4456:___cxx_global_var_init_182_7410
4457:___cxx_global_var_init_183
4458:___cxx_global_var_init_184
4459:__GLOBAL__sub_I_Runtime_Misc_0_cpp
4460:___cxx_global_var_init_79
4461:__GLOBAL__sub_I_Runtime_Misc_1_cpp
4462:___cxx_global_var_init_253
4463:___cxx_global_var_init_254
4464:___cxx_global_var_init_255
4465:___cxx_global_var_init_256
4466:___cxx_global_var_init_257
4467:___cxx_global_var_init_258
4468:___cxx_global_var_init_259
4469:___cxx_global_var_init_260
4470:___cxx_global_var_init_261
4471:___cxx_global_var_init_262
4472:___cxx_global_var_init_263
4473:___cxx_global_var_init_264
4474:___cxx_global_var_init_265
4475:___cxx_global_var_init_266
4476:___cxx_global_var_init_267
4477:___cxx_global_var_init_268
4478:___cxx_global_var_init_269
4479:___cxx_global_var_init_270
4480:___cxx_global_var_init_271
4481:___cxx_global_var_init_272
4482:___cxx_global_var_init_273
4483:___cxx_global_var_init_274
4484:___cxx_global_var_init_275
4485:___cxx_global_var_init_276
4486:___cxx_global_var_init_277
4487:___cxx_global_var_init_278
4488:___cxx_global_var_init_279
4489:___cxx_global_var_init_280
4490:___cxx_global_var_init_281
4491:___cxx_global_var_init_282
4492:___cxx_global_var_init_283
4493:___cxx_global_var_init_284
4494:___cxx_global_var_init_285
4495:___cxx_global_var_init_286
4496:___cxx_global_var_init_287
4497:___cxx_global_var_init_288
4498:___cxx_global_var_init_289
4499:___cxx_global_var_init_290
4500:___cxx_global_var_init_291
4501:___cxx_global_var_init_292
4502:___cxx_global_var_init_293
4503:___cxx_global_var_init_294
4504:___cxx_global_var_init_295
4505:___cxx_global_var_init_296
4506:___cxx_global_var_init_297
4507:___cxx_global_var_init_298
4508:___cxx_global_var_init_299
4509:___cxx_global_var_init_300
4510:___cxx_global_var_init_301
4511:___cxx_global_var_init_302
4512:___cxx_global_var_init_303
4513:___cxx_global_var_init_304
4514:__GLOBAL__sub_I_Runtime_Misc_3_cpp
4515:___cxx_global_var_init_37
4516:__GLOBAL__sub_I_Runtime_Network_0_cpp
4517:__GLOBAL__sub_I_Runtime_Network_PlayerCommunicator_0_cpp
4518:___cxx_global_var_init_30_8553
4519:___cxx_global_var_init_31
4520:___cxx_global_var_init_32_8554
4521:___cxx_global_var_init_33
4522:___cxx_global_var_init_34
4523:__GLOBAL__sub_I_Runtime_PreloadManager_0_cpp
4524:__GLOBAL__sub_I_Runtime_Profiler_0_cpp
4525:__GLOBAL__sub_I_Runtime_Profiler_1_cpp
4526:__GLOBAL__sub_I_Runtime_Profiler_2_cpp
4527:__GLOBAL__sub_I_Runtime_Profiler_ScriptBindings_0_cpp
4528:___cxx_global_var_init_22_8766
4529:___cxx_global_var_init_23
4530:___cxx_global_var_init_24_8767
4531:___cxx_global_var_init_25_1255
4532:___cxx_global_var_init_26_8768
4533:__GLOBAL__sub_I_Runtime_SceneManager_0_cpp
4534:___cxx_global_var_init_8878
4535:__GLOBAL__sub_I_Runtime_Shaders_1_cpp
4536:__GLOBAL__sub_I_Runtime_Shaders_2_cpp
4537:___cxx_global_var_init_96
4538:__GLOBAL__sub_I_Runtime_Shaders_3_cpp
4539:__GLOBAL__sub_I_Runtime_Shaders_GpuPrograms_0_cpp
4540:__GLOBAL__sub_I_Runtime_Shaders_ShaderImpl_1_cpp
4541:__GLOBAL__sub_I_Runtime_Shaders_ShaderImpl_2_cpp
4542:__GLOBAL__sub_I_Runtime_Streaming_0_cpp
4543:__GLOBAL__sub_I_Runtime_Streaming_1_cpp
4544:___cxx_global_var_init_10141
4545:___cxx_global_var_init_50
4546:__GLOBAL__sub_I_Runtime_Transform_0_cpp
4547:__GLOBAL__sub_I_Runtime_Transform_1_cpp
4548:__GLOBAL__sub_I_Runtime_Utilities_2_cpp
4549:___cxx_global_var_init_10572
4550:__GLOBAL__sub_I_Runtime_Utilities_5_cpp
4551:__GLOBAL__sub_I_Runtime_Utilities_6_cpp
4552:__GLOBAL__sub_I_Runtime_Utilities_7_cpp
4553:__GLOBAL__sub_I_Runtime_Utilities_8_cpp
4554:__GLOBAL__sub_I_Runtime_Utilities_9_cpp
4555:__GLOBAL__sub_I_Runtime_VirtualFileSystem_ArchiveFileSystem_0_cpp
4556:__GLOBAL__sub_I_AssetBundleFileSystem_cpp
4557:__GLOBAL__sub_I_Runtime_VirtualFileSystem_MemoryFileSystem_0_cpp
4558:__GLOBAL__sub_I_Runtime_Modules_0_cpp
4559:___cxx_global_var_init_63
4560:___cxx_global_var_init_64
4561:___cxx_global_var_init_65
4562:__GLOBAL__sub_I_Modules_Profiler_Public_0_cpp
4563:__GLOBAL__sub_I_Modules_Profiler_Runtime_0_cpp
4564:__GLOBAL__sub_I_Modules_Profiler_Runtime_1_cpp
4565:__GLOBAL__sub_I_Modules_Profiler_Runtime_2_cpp
4566:__GLOBAL__sub_I_Modules_Profiler_Dispatch_0_cpp
4567:__GLOBAL__sub_I_UnsafeUtility_bindings_cpp
4568:__GLOBAL__sub_I_Runtime_GfxDevice_1_cpp
4569:__GLOBAL__sub_I_Runtime_GfxDevice_2_cpp
4570:__GLOBAL__sub_I_Runtime_GfxDevice_3_cpp
4571:___cxx_global_var_init_36
4572:___cxx_global_var_init_37_12176
4573:___cxx_global_var_init_38
4574:__GLOBAL__sub_I_Runtime_GfxDevice_4_cpp
4575:__GLOBAL__sub_I_Runtime_GfxDevice_5_cpp
4576:__GLOBAL__sub_I_Runtime_PluginInterface_0_cpp
4577:__GLOBAL__sub_I_Runtime_Director_Core_0_cpp
4578:___cxx_global_var_init_35
4579:___cxx_global_var_init_36_12391
4580:___cxx_global_var_init_37_12392
4581:___cxx_global_var_init_38_12393
4582:___cxx_global_var_init_39
4583:___cxx_global_var_init_40
4584:___cxx_global_var_init_41
4585:___cxx_global_var_init_42
4586:___cxx_global_var_init_43
4587:___cxx_global_var_init_44
4588:___cxx_global_var_init_45
4589:___cxx_global_var_init_46
4590:___cxx_global_var_init_47_1256
4591:___cxx_global_var_init_48_12394
4592:__GLOBAL__sub_I_Runtime_Director_Core_1_cpp
4593:__GLOBAL__sub_I_Runtime_ScriptingBackend_Il2Cpp_0_cpp
4594:___cxx_global_var_init_152_1257
4595:__GLOBAL__sub_I_Runtime_Scripting_0_cpp
4596:__GLOBAL__sub_I_Runtime_Scripting_2_cpp
4597:___cxx_global_var_init_40_13085
4598:__GLOBAL__sub_I_Runtime_Scripting_3_cpp
4599:___cxx_global_var_init_63_13247
4600:__GLOBAL__sub_I_Runtime_Mono_0_cpp
4601:__GLOBAL__sub_I_Runtime_Mono_SerializationBackend_DirectMemoryAccess_0_cpp
4602:__GLOBAL__sub_I_Runtime_Mono_SerializationBackend_DirectMemoryAccess_1_cpp
4603:__GLOBAL__sub_I_TemplateInstantiations_cpp
4604:__GLOBAL__sub_I_Runtime_Scripting_APIUpdating_0_cpp
4605:__GLOBAL__sub_I_Runtime_Scripting_ManagedReference_0_cpp
4606:__GLOBAL__sub_I_Runtime_Serialize_0_cpp
4607:__GLOBAL__sub_I_Runtime_Serialize_1_cpp
4608:__GLOBAL__sub_I_Runtime_Serialize_2_cpp
4609:__GLOBAL__sub_I_Runtime_Serialize_TransferFunctions_0_cpp
4610:__GLOBAL__sub_I_Runtime_Serialize_TransferFunctions_1_cpp
4611:__GLOBAL__sub_I_PlatformDependent_WebGL_Source_0_cpp
4612:___cxx_global_var_init_145
4613:__GLOBAL__sub_I_PlatformDependent_WebGL_Source_2_cpp
4614:__GLOBAL__sub_I_CoreBindings_gen_cpp
4615:__GLOBAL__sub_I_LineRenderer_cpp
4616:__GLOBAL__sub_I_QualitySettings_cpp
4617:__GLOBAL__sub_I_TrailRenderer_cpp
4618:__GLOBAL__sub_I_Mesh_cpp
4619:__GLOBAL__sub_I_LogAssert_cpp
4620:___cxx_global_var_init_16554
4621:__GLOBAL__sub_I_Shader_cpp
4622:__GLOBAL__sub_I_PlatformDependent_WebGL_External_baselib_builds_Source_0_cpp
4623:_Baselib_Timer_GetTicksToNanosecondsConversionRatio
4624:__Z21SetCurrentMemoryOwnerRK10MemLabelId
4625:__ZN9ShaderLab16FastPropertyName4InitEPKc
4626:__ZL19StaticDestroyShaderPv
4627:__ZN9profiling6MarkerC2EtPKcNS0_5FlagsE
4628:__ZN9profiling21GetProfilerManagerPtrEv
4629:__ZN9profiling15ProfilerManager22RegisterExternalMarkerEPNS_6MarkerE
4630:__ZN9profiling15ProfilerManager14RegisterMarkerEPNS_6MarkerEb
4631:__ZN4core8hash_mapINS_16basic_string_refIcEEPN9profiling6MarkerENS_4hashIS2_EENSt3__28equal_toIS2_EEE6insertERKS2_RKS5_
4632:__ZN19dynamic_block_arrayIPN9profiling6MarkerELm1024EE4growEm
4633:__ZN20dynamic_array_detail18dynamic_array_data4growEmm
4634:__Z16realloc_internalPvmmRK10MemLabelId15AllocateOptionsPKci
4635:__Z15malloc_internalmmRK10MemLabelId15AllocateOptionsPKci
4636:__ZN13MemoryManager16InitializeMemoryEv
4637:__ZN13MemoryManager8AllocateEmmRK10MemLabelId15AllocateOptionsPKci
4638:__ZN13MemoryManager20WarnAdditionOverflowE15AllocateOptions
4639:__ZN13MemoryManager18RegisterAllocationERKNS_20AllocationLogDetailsEP13BaseAllocator
4640:__ZN12TLSAllocator8AllocateEmi
4641:__Z14profiler_beginPN9profiling6MarkerE
4642:__Z12profiler_endPN9profiling6MarkerE
4643:__Z19profiler_is_enabledv
4644:__Z32profiler_add_callstack_to_samplev
4645:__ZL16OutOfMemoryErrormmRK10MemLabelIdiPKc
4646:__Z12FormatBufferPciPKcz
4647:_printf_console
4648:__Z17DebugStringToFileRK21DebugStringToFileData
4649:__ZN13MemoryManager10DeallocateEPvRK10MemLabelIdPKci
4650:__ZN13MemoryManager25GetAllocatorContainingPtrEPKv
4651:__ZN13MemoryManager20RegisterDeallocationERKNS_20AllocationLogDetailsEP13BaseAllocator
4652:__ZN13MemoryManager10DeallocateEPvPKci
4653:__ZN12TLSAllocator13TryDeallocateEPv
4654:__ZN14StackAllocator13TryDeallocateEPv
4655:__ZN14MemoryProfiler20UnregisterAllocationEPvmRK10MemLabelId
4656:__ZN13MemoryManager12GetAllocatorERK10MemLabelId
4657:__Z20push_allocation_root10MemLabelIdb
4658:__Z40DebugStringToFilePostprocessedStacktraceRK21DebugStringToFileData
4659:__Z13GetStacktracei
4660:__Z19pop_allocation_rootv
4661:__ZN14MemoryProfiler17PopAllocationRootEv
4662:__ZN15GlobalCallbacks3GetEv
4663:__ZN14CallbackArray3IRK21DebugStringToFileData7LogTypebE6InvokeES2_S3_b
4664:__Z15CleanLogHandler7LogTypePKcz
4665:__ZL20InternalErrorConsolePKcz
4666:__ZL21InternalAssertConsolePKcz
4667:__ZL22InternalWarningConsolePKcz
4668:__ZL18InternalLogConsolePKcz
4669:__Z19WebGLPrintfConsolev7LogTypePKcPi
4670:__ZN14MemoryProfiler18PushAllocationRootE10MemLabelIdb
4671:__ZnwmRK10MemLabelIdmPKci
4672:__ZN9profiling8Profiler13EmitCallstackEm
4673:_Baselib_Timer_GetHighPrecisionTimerTicks
4674:__ZN9profiling16BufferSerializer16AcquireNewBufferEm
4675:__Z19free_alloc_internalPvRK10MemLabelIdPKci
4676:__ZNK9profiling6Marker18GetCallbackRelaxedEv
4677:__ZN14StackAllocator8AllocateEmi
4678:__ZN14MemoryProfiler18RegisterAllocationEPvRK10MemLabelIdPKcim
4679:__Z6FormatPKcz
4680:__Z7VFormatPKcPi
4681:__ZN13MemoryManagerC2Ev
4682:__ZN20DynamicHeapAllocatorC2EjbP15BucketAllocatorP24LowLevelVirtualAllocatorPKcb
4683:__ZN13MemoryManager17RegisterAllocatorEP13BaseAllocator
4684:_tlsf_size
4685:__ZN13MemoryManager16LowLevelAllocateEmm
4686:_tlsf_create
4687:__ZN20DynamicHeapAllocatorD2Ev
4688:__ZN20DynamicHeapAllocatorD0Ev
4689:__ZN20DynamicHeapAllocator8AllocateEmi
4690:__ZN20DynamicHeapAllocator10ReallocateEPvmi
4691:__ZN20DynamicHeapAllocator10DeallocateEPv
4692:__ZN20DynamicHeapAllocator13TryDeallocateEPv
4693:__ZNK20DynamicHeapAllocator8ContainsEPKv
4694:__ZNK20DynamicHeapAllocator10GetPtrSizeEPKv
4695:__ZNK13BaseAllocator21GetReservedMemorySizeEv
4696:__ZNK13BaseAllocator26GetPeakAllocatedMemorySizeEv
4697:__ZNK13BaseAllocator22GetNumberOfAllocationsEv
4698:__ZNK20DynamicHeapAllocator20GetFragmentationInfoEPii
4699:__ZNK20DynamicHeapAllocator17GetProfilerHeaderEPKv
4700:__ZNK20DynamicHeapAllocator19GetRequestedPtrSizeEPKv
4701:__ZN20DynamicHeapAllocator14CheckIntegrityEv
4702:__ZNK20DynamicHeapAllocator17ValidateIntegrityEPKv
4703:__ZNK20DynamicHeapAllocator15WalkAllocationsEPFvPKvmPKPvmRKN13BaseAllocator23AllocationReportingDataEEPFvRKNS5_25MemoryRegionReportingDataEEPFvvE
4704:__Z23EnumerateTlsfAllocationI20AllocationHeaderBaseI20AllocationSizeHeaderEEvPvmiS3_
4705:_tlsf_walk_pool
4706:_default_walker
4707:__ZN20AllocationHeaderBaseI20AllocationSizeHeaderE17ValidateIntegrityEPvi
4708:__Z22ValidateTlsfAllocationPvmiS_
4709:_tlsf_block_size
4710:__Z29WalkTLSFFragmentationCallbackPvmiS_
4711:_tlsf_free
4712:__ZN20DynamicHeapAllocator10RemovePoolEPv
4713:__Z13profiler_emitPN9profiling6MarkerEtiPK18ProfilerMarkerData
4714:__ZN9profiling8Profiler22EmitSampleWithMetadataEjNS_5proto11MessageTypeEm
4715:__ZN9profiling8Profiler12EmitMetaDataENS_6Marker12MetadataDesc4TypeEPKvm
4716:__ZN9profiling17PerThreadProfiler12EmitMetaDataENS_6Marker12MetadataDesc4TypeEPKvm
4717:_tlsf_remove_pool
4718:_tlsf_realloc_align_inplace
4719:_tlsf_memalign
4720:_block_trim_used
4721:_block_locate_free
4722:_block_prepare_used
4723:__ZN20DynamicHeapAllocator14CreateTLSFPoolERm
4724:_tlsf_add_pool
4725:__ZdlPv
4726:__ZN13MemoryManager19UnregisterAllocatorEt
4727:__ZN13MemoryManager16VirtualAllocator17RegisterAllocatorEP13BaseAllocator
4728:__ZN13BaseAllocatorD2Ev
4729:__ZNK13BaseAllocator20GetFragmentationInfoEPii
4730:_Baselib_Memory_GetPageSizeInfo
4731:__ZN13MemoryManager22LogAllocationToConsoleERKNS_20AllocationLogDetailsE
4732:__ZN13MemoryManager24LogDeallocationToConsoleERKNS_20AllocationLogDetailsE
4733:__ZN13MemoryManager16VirtualAllocator18ReserveMemoryBlockEmN24LowLevelVirtualAllocator9BlockInfoE
4734:__ZN13MemoryManager16VirtualAllocator18ReleaseMemoryBlockEPvm
4735:__ZN13MemoryManager16VirtualAllocator12CommitMemoryEPvm
4736:__ZN13MemoryManager16VirtualAllocator14DecommitMemoryEPvm
4737:__ZN13MemoryManager16VirtualAllocator25GetMemoryBlockFromPointerEPKv
4738:__ZN13MemoryManager16VirtualAllocator23GetBlockInfoFromPointerEPKv
4739:_Baselib_Memory_SetPageState
4740:_Baselib_Memory_ReleasePages
4741:_Baselib_Memory_AllocatePages
4742:__ZL37Baselib_ErrorState_Validate_PageRangeyyyRK27Baselib_Memory_PageSizeInfoP18Baselib_ErrorState
4743:__ZN13MemoryManager10ReallocateEPvmmRK10MemLabelId15AllocateOptionsPKci
4744:__ZN13MemoryManager38ReallocateFallbackToAllocateDeallocateEPvmmRK10MemLabelId15AllocateOptionsPKci
4745:__ZN12TLSAllocator10ReallocateEPvmi
4746:__Z18get_root_referencePvRK10MemLabelId
4747:__Z21retain_root_reference22AllocationRootWithSalt
4748:__Z22release_root_reference22AllocationRootWithSalt
4749:__ZN23AllocationRootReference7ReleaseEv
4750:__ZN14StackAllocator10ReallocateEPvmi
4751:__ZN20dynamic_array_detail18dynamic_array_data7reserveEmmm
4752:__ZN4core8hash_setINS_4pairIKNS_16basic_string_refIcEEPN9profiling6MarkerELb0EEENS_9hash_pairINS_4hashIS3_EES4_S7_EENS_10equal_pairINSt3__28equal_toIS3_EES4_S7_EEE4growEi
4753:_XXH32
4754:_XXH32_finalize
4755:__ZN35RegisterRuntimeInitializeAndCleanupC2EPFvPvES2_iS0_
4756:__ZNK4core8hash_setINS_4pairIKPKciLb0EEENS_9hash_pairIN9ShaderLab23ConstCharPtrHashFunctorES4_iEENS_10equal_pairINS7_19ConstCharPtrEqualToES4_iEEE6lookupIS3_SC_EEPNSD_4nodeERKT_RKT0_
4757:__Z20IsVectorBuiltinParamPKcPi
4758:__Z20IsMatrixBuiltinParamPKcPi
4759:__Z20IsTexEnvBuiltinParamPKcPi
4760:__ZN4core8hash_mapIPKciN9ShaderLab23ConstCharPtrHashFunctorENS3_19ConstCharPtrEqualToEE6insertERKS2_RKi
4761:__ZN14MemoryProfiler23GetCurrentRootReferenceEv
4762:_Baselib_TLS_Alloc
4763:__ZN19ThreadSpecificValueIiE15ReinitializeTLSEPv
4764:_Baselib_TLS_Free
4765:__ZN6C99ApiL21Baselib_Process_AbortE17Baselib_ErrorCode
4766:__ZN13RuntimeStaticI17UniqueIDGeneratorLb0EE16StaticInitializeEPv
4767:__ZN17RuntimeStaticBase5SetupEPKcS1_i
4768:__Z15strcpy_truncatePcPKcmm
4769:__Z15DestroyMemLabel18MemLabelIdentifier
4770:__ZN24StaticInitializeInternal13ConstructTypeI17UniqueIDGeneratorLb0EEEPvS2_RK10MemLabelId
4771:__ZN17RuntimeStaticBase14InitializeImplEmPFPvS0_RK10MemLabelIdE
4772:__Z22assign_allocation_rootPvmRK10MemLabelIdPKcS4_
4773:__ZN14MemoryProfiler22RegisterRootAllocationEPvm10MemLabelIdPKcS3_
4774:__ZN14MemoryProfiler19CreateRootReferenceEP24ProfilerAllocationHeadermPKcS3_
4775:__ZN19dynamic_block_arrayI23AllocationRootReferenceLm1024EE12emplace_backEv
4776:__ZN19dynamic_block_arrayI23AllocationRootReferenceLm1024EE4growEm
4777:__ZN13dynamic_arrayI23AllocationRootReferenceLm0EE4growEv
4778:__ZN17UniqueIDGeneratorC2E10MemLabelId
4779:__ZN17MessageIdentifierC2EPKcNS_7OptionsEPKN5Unity4TypeES1_
4780:__ZL17InitializeMessagePv
4781:__ZN13dynamic_arrayIN5webgl23EmscriptenGamepadDeviceELm0EEC2EmRK10MemLabelId
4782:__ZN12_GLOBAL__N_116StaticInitializeEPv
4783:__ZN12_GLOBAL__N_113StaticDestroyEPv
4784:__ZN21SystemInfoStringCache16StaticInitializeEPv
4785:__ZN21SystemInfoStringCache13StaticDestroyEPv
4786:__ZNSt3__26__treeINS_12__value_typeIN4core12basic_stringIcNS2_20StringStorageDefaultIcEEEE9PrefValueEENS_19__map_value_compareIS6_S8_NS_4lessIS6_EELb1EEENS_9allocatorIS8_EEE7destroyEPNS_11__tree_nodeIS8_PvEE
4787:__Znwm
4788:__ZL30InitializeGlobalNameConversionPv
4789:__ZL27CleanupGlobalNameConversionPv
4790:__ZNSt3__26__treeINS_12__value_typeINS_4pairIPcS3_EENS_3setIS3_15compare_tstringIPKcENS_9allocatorIS3_EEEEEENS_19__map_value_compareIS4_SD_20smaller_tstring_pairIS8_ELb1EEE13stl_allocatorISD_L18MemLabelIdentifier42ELi16EEE7destroyEPNS_11__tree_nodeISD_PvEE
4791:__ZNSt3__26__treeIPc15compare_tstringIPKcENS_9allocatorIS1_EEE7destroyEPNS_11__tree_nodeIS1_PvEE
4792:__ZnwmRK10MemLabelIdmPKcS3_S3_i
4793:__Z46get_current_allocation_root_reference_internalv
4794:__ZN13RuntimeStaticINSt3__23mapINS0_4pairIPcS3_EEPFbPvR14SafeBinaryReadE20smaller_tstring_pairIPKcENS0_9allocatorINS2_IKS4_S9_EEEEEELb0EE16StaticInitializeES5_
4795:__ZN13RuntimeStaticINSt3__23mapINS0_4pairIPcS3_EEPFbPvR14SafeBinaryReadE20smaller_tstring_pairIPKcENS0_9allocatorINS2_IKS4_S9_EEEEEELb0EE13StaticDestroyES5_
4796:__ZNSt3__26__treeINS_12__value_typeINS_4pairIPcS3_EEPFbPvR14SafeBinaryReadEEENS_19__map_value_compareIS4_SA_20smaller_tstring_pairIPKcELb1EEENS_9allocatorISA_EEE7destroyEPNS_11__tree_nodeISA_S5_EE
4797:__ZN13string_traitsIA20_cE8get_sizeERA20_Kc
4798:__ZN13string_traitsIA26_cE8get_sizeERA26_Kc
4799:__ZN13string_traitsIA21_cE8get_sizeERA21_Kc
4800:__ZN13string_traitsIA22_cE8get_sizeERA22_Kc
4801:__ZN13TypeTreeCacheL20OnRuntimeInitializedEPv
4802:__ZN13TypeTreeCacheL22OnRuntimeUninitializedEPv
4803:__ZN15TypeTreeQueriesL20OnRuntimeInitializedEPv
4804:__ZN15TypeTreeQueriesL22OnRuntimeUninitializedEPv
4805:__ZN15TypeTreeQueries5ResetEv
4806:__ZN14GfxDoubleCacheImy14GfxGenericHashImENSt3__28equal_toImEEN31GfxDoubleCacheConcurrencyPolicy11LocklessGetE42GfxDoubleCacheDefaultEmptyDeletedGeneratorImEL18MemLabelIdentifier82EE4InitEv
4807:__ZN15dense_hashtableINSt3__24pairIKmyEEm14GfxGenericHashImEN14GfxDoubleCacheImyS5_NS0_8equal_toImEEN31GfxDoubleCacheConcurrencyPolicy11LocklessGetE42GfxDoubleCacheDefaultEmptyDeletedGeneratorImEL18MemLabelIdentifier82EE9SelectKeyES8_13stl_allocatorIS3_LSD_82ELi16EEE14squash_deletedEv
4808:__ZN15dense_hashtableINSt3__24pairIKmyEEm14GfxGenericHashImEN14GfxDoubleCacheImyS5_NS0_8equal_toImEEN31GfxDoubleCacheConcurrencyPolicy11LocklessGetE42GfxDoubleCacheDefaultEmptyDeletedGeneratorImEL18MemLabelIdentifier82EE9SelectKeyES8_13stl_allocatorIS3_LSD_82ELi16EEE9copy_fromERKSI_m
4809:__ZN13TypeTreeCache5ResetEv
4810:__ZN13TypeTreeCache18CachedTypeTreeData7ReleaseERS0_
4811:__ZN14GfxDoubleCacheIyN13TypeTreeCache18CachedTypeTreeDataENS0_13HashGeneratorENSt3__28equal_toIyEEN31GfxDoubleCacheConcurrencyPolicy11LocklessGetE42GfxDoubleCacheDefaultEmptyDeletedGeneratorIyEL18MemLabelIdentifier82EE7CleanupIPFvRS1_EEEvT_
4812:__ZN14GfxDoubleCacheIyN13TypeTreeCache18CachedTypeTreeDataENS0_13HashGeneratorENSt3__28equal_toIyEEN31GfxDoubleCacheConcurrencyPolicy11LocklessGetE42GfxDoubleCacheDefaultEmptyDeletedGeneratorIyEL18MemLabelIdentifier82EE4InitEv
4813:__ZN15dense_hashtableINSt3__24pairIKyN13TypeTreeCache18CachedTypeTreeDataEEEyNS3_13HashGeneratorEN14GfxDoubleCacheIyS4_S6_NS0_8equal_toIyEEN31GfxDoubleCacheConcurrencyPolicy11LocklessGetE42GfxDoubleCacheDefaultEmptyDeletedGeneratorIyEL18MemLabelIdentifier82EE9SelectKeyES9_13stl_allocatorIS5_LSE_82ELi16EEE14squash_deletedEv
4814:__ZN15dense_hashtableINSt3__24pairIKyN13TypeTreeCache18CachedTypeTreeDataEEEyNS3_13HashGeneratorEN14GfxDoubleCacheIyS4_S6_NS0_8equal_toIyEEN31GfxDoubleCacheConcurrencyPolicy11LocklessGetE42GfxDoubleCacheDefaultEmptyDeletedGeneratorIyEL18MemLabelIdentifier82EE9SelectKeyES9_13stl_allocatorIS5_LSE_82ELi16EEE9copy_fromERKSJ_m
4815:__ZN12UnityVersionC2EPKc
4816:__ZN11APIUpdating7CachingL20OnRuntimeInitializedEPv
4817:__ZN11APIUpdating7CachingL22OnRuntimeUninitializedEPv
4818:__ZN11APIUpdating7Caching5ResetEv
4819:__ZN15dense_hashtableINSt3__24pairIKN11APIUpdating7Caching6FQNKeyE17ScriptingClassPtrEES4_NS4_13HashGeneratorEN14GfxDoubleCacheIS4_S6_S8_NS0_8equal_toIS4_EEN31GfxDoubleCacheConcurrencyPolicy11LocklessGetENS4_12KeyGeneratorEL18MemLabelIdentifier113EE9SelectKeyESB_13stl_allocatorIS7_LSF_113ELi16EEE5clearEv
4820:__ZN15dense_hashtableINSt3__24pairIKN11APIUpdating7Caching6FQNKeyE17ScriptingClassPtrEES4_NS4_13HashGeneratorEN14GfxDoubleCacheIS4_S6_S8_NS0_8equal_toIS4_EEN31GfxDoubleCacheConcurrencyPolicy11LocklessGetENS4_12KeyGeneratorEL18MemLabelIdentifier113EE9SelectKeyESB_13stl_allocatorIS7_LSF_113ELi16EEED2Ev
4821:__ZN14GfxDoubleCacheIN11APIUpdating7Caching6FQNKeyE17ScriptingClassPtrNS2_13HashGeneratorENSt3__28equal_toIS2_EEN31GfxDoubleCacheConcurrencyPolicy11LocklessGetENS2_12KeyGeneratorEL18MemLabelIdentifier113EE4InitEv
4822:__ZN14GfxDoubleCacheI17ScriptingClassPtrS0_N11APIUpdating7Caching7TypeKey13HashGeneratorENS3_8EqualityEN31GfxDoubleCacheConcurrencyPolicy11LocklessGetENS3_12KeyGeneratorEL18MemLabelIdentifier113EE4InitEv
4823:__ZN15dense_hashtableINSt3__24pairIK17ScriptingClassPtrS2_EES2_N11APIUpdating7Caching7TypeKey13HashGeneratorEN14GfxDoubleCacheIS2_S2_S8_NS7_8EqualityEN31GfxDoubleCacheConcurrencyPolicy11LocklessGetENS7_12KeyGeneratorEL18MemLabelIdentifier113EE9SelectKeyESA_13stl_allocatorIS4_LSE_113ELi16EEE14squash_deletedEv
4824:__ZN15dense_hashtableINSt3__24pairIK17ScriptingClassPtrS2_EES2_N11APIUpdating7Caching7TypeKey13HashGeneratorEN14GfxDoubleCacheIS2_S2_S8_NS7_8EqualityEN31GfxDoubleCacheConcurrencyPolicy11LocklessGetENS7_12KeyGeneratorEL18MemLabelIdentifier113EE9SelectKeyESA_13stl_allocatorIS4_LSE_113ELi16EEE9copy_fromERKSJ_m
4825:__ZN15dense_hashtableINSt3__24pairIK17ScriptingClassPtrS2_EES2_N11APIUpdating7Caching7TypeKey13HashGeneratorEN14GfxDoubleCacheIS2_S2_S8_NS7_8EqualityEN31GfxDoubleCacheConcurrencyPolicy11LocklessGetENS7_12KeyGeneratorEL18MemLabelIdentifier113EE9SelectKeyESA_13stl_allocatorIS4_LSE_113ELi16EEE12expand_arrayEmN21dense_hash_map_traits17integral_constantIbLb0EEE
4826:__Z10CityHash64PKcm
4827:__ZL12HashLen0to16PKcm
4828:__ZN15dense_hashtableINSt3__24pairIKN11APIUpdating7Caching6FQNKeyE17ScriptingClassPtrEES4_NS4_13HashGeneratorEN14GfxDoubleCacheIS4_S6_S8_NS0_8equal_toIS4_EEN31GfxDoubleCacheConcurrencyPolicy11LocklessGetENS4_12KeyGeneratorEL18MemLabelIdentifier113EE9SelectKeyESB_13stl_allocatorIS7_LSF_113ELi16EEEC2EmRKS8_RKSB_RKSH_
4829:__ZN11APIUpdating7Caching6FQNKeyC2EPKcS3_S3_
4830:__ZN15dense_hashtableINSt3__24pairIKN11APIUpdating7Caching6FQNKeyE17ScriptingClassPtrEES4_NS4_13HashGeneratorEN14GfxDoubleCacheIS4_S6_S8_NS0_8equal_toIS4_EEN31GfxDoubleCacheConcurrencyPolicy11LocklessGetENS4_12KeyGeneratorEL18MemLabelIdentifier113EE9SelectKeyESB_13stl_allocatorIS7_LSF_113ELi16EEEC2ERKSK_m
4831:__ZN15dense_hashtableINSt3__24pairIKN11APIUpdating7Caching6FQNKeyE17ScriptingClassPtrEES4_NS4_13HashGeneratorEN14GfxDoubleCacheIS4_S6_S8_NS0_8equal_toIS4_EEN31GfxDoubleCacheConcurrencyPolicy11LocklessGetENS4_12KeyGeneratorEL18MemLabelIdentifier113EE9SelectKeyESB_13stl_allocatorIS7_LSF_113ELi16EEE4swapERSK_
4832:__ZN15dense_hashtableINSt3__24pairIKN11APIUpdating7Caching6FQNKeyE17ScriptingClassPtrEES4_NS4_13HashGeneratorEN14GfxDoubleCacheIS4_S6_S8_NS0_8equal_toIS4_EEN31GfxDoubleCacheConcurrencyPolicy11LocklessGetENS4_12KeyGeneratorEL18MemLabelIdentifier113EE9SelectKeyESB_13stl_allocatorIS7_LSF_113ELi16EEE9copy_fromERKSK_m
4833:__ZN15dense_hashtableINSt3__24pairIKN11APIUpdating7Caching6FQNKeyE17ScriptingClassPtrEES4_NS4_13HashGeneratorEN14GfxDoubleCacheIS4_S6_S8_NS0_8equal_toIS4_EEN31GfxDoubleCacheConcurrencyPolicy11LocklessGetENS4_12KeyGeneratorEL18MemLabelIdentifier113EE9SelectKeyESB_13stl_allocatorIS7_LSF_113ELi16EEE12expand_arrayEmN21dense_hash_map_traits17integral_constantIbLb0EEE
4834:__ZNK15dense_hashtableINSt3__24pairIKN11APIUpdating7Caching6FQNKeyE17ScriptingClassPtrEES4_NS4_13HashGeneratorEN14GfxDoubleCacheIS4_S6_S8_NS0_8equal_toIS4_EEN31GfxDoubleCacheConcurrencyPolicy11LocklessGetENS4_12KeyGeneratorEL18MemLabelIdentifier113EE9SelectKeyESB_13stl_allocatorIS7_LSF_113ELi16EEE12test_deletedERK30dense_hashtable_const_iteratorIS7_S4_S8_SH_SB_SJ_E
4835:__Z18CityHash64WithSeedPKcmy
4836:__ZNK15dense_hashtableINSt3__24pairIKN11APIUpdating7Caching6FQNKeyE17ScriptingClassPtrEES4_NS4_13HashGeneratorEN14GfxDoubleCacheIS4_S6_S8_NS0_8equal_toIS4_EEN31GfxDoubleCacheConcurrencyPolicy11LocklessGetENS4_12KeyGeneratorEL18MemLabelIdentifier113EE9SelectKeyESB_13stl_allocatorIS7_LSF_113ELi16EEE10test_emptyEm
4837:__Z50CreateTransferFunctionScriptingTraitsCacheInternalPv
4838:__Z49ClearTransferFunctionScriptingTraitsCacheInternalPv
4839:__ZN13RuntimeStaticINSt3__23setIPFv17ScriptingClassPtrRN18SerializationCache4DataERbENS0_4lessIS8_EENS0_9allocatorIS8_EEEELb0EE16StaticInitializeEPv
4840:__ZN13RuntimeStaticINSt3__23setIPFv17ScriptingClassPtrRN18SerializationCache4DataERbENS0_4lessIS8_EENS0_9allocatorIS8_EEEELb0EE13StaticDestroyEPv
4841:__ZN18SerializationCacheL20OnRuntimeInitializedEPv
4842:__ZN18SerializationCacheL22OnRuntimeUninitializedEPv
4843:__ZN18SerializationCache5ResetEv
4844:__ZN18SerializationCache29DeleteCachedSerializationDataERNS_10CacheEntryE
4845:__ZN14GfxDoubleCacheIPvN18SerializationCache10CacheEntryENS1_21CommandsHashMapHasherENSt3__28equal_toIS0_EEN31GfxDoubleCacheConcurrencyPolicy11LocklessGetE42GfxDoubleCacheDefaultEmptyDeletedGeneratorIS0_EL18MemLabelIdentifier112EE7CleanupIPFvRS2_EEEvT_
4846:__ZN14GfxDoubleCacheIPvN18SerializationCache10CacheEntryENS1_21CommandsHashMapHasherENSt3__28equal_toIS0_EEN31GfxDoubleCacheConcurrencyPolicy11LocklessGetE42GfxDoubleCacheDefaultEmptyDeletedGeneratorIS0_EL18MemLabelIdentifier112EE4InitEv
4847:__ZN15dense_hashtableINSt3__24pairIKPvN18SerializationCache10CacheEntryEEES2_NS4_21CommandsHashMapHasherEN14GfxDoubleCacheIS2_S5_S7_NS0_8equal_toIS2_EEN31GfxDoubleCacheConcurrencyPolicy11LocklessGetE42GfxDoubleCacheDefaultEmptyDeletedGeneratorIS2_EL18MemLabelIdentifier112EE9SelectKeyESA_13stl_allocatorIS6_LSF_112ELi16EEE14squash_deletedEv
4848:__ZN15dense_hashtableINSt3__24pairIKPvN18SerializationCache10CacheEntryEEES2_NS4_21CommandsHashMapHasherEN14GfxDoubleCacheIS2_S5_S7_NS0_8equal_toIS2_EEN31GfxDoubleCacheConcurrencyPolicy11LocklessGetE42GfxDoubleCacheDefaultEmptyDeletedGeneratorIS2_EL18MemLabelIdentifier112EE9SelectKeyESA_13stl_allocatorIS6_LSF_112ELi16EEE9copy_fromERKSK_m
4849:__ZN15dense_hashtableINSt3__24pairIKPvN18SerializationCache10CacheEntryEEES2_NS4_21CommandsHashMapHasherEN14GfxDoubleCacheIS2_S5_S7_NS0_8equal_toIS2_EEN31GfxDoubleCacheConcurrencyPolicy11LocklessGetE42GfxDoubleCacheDefaultEmptyDeletedGeneratorIS2_EL18MemLabelIdentifier112EE9SelectKeyESA_13stl_allocatorIS6_LSF_112ELi16EEE12expand_arrayEmN21dense_hash_map_traits17integral_constantIbLb0EEE
4850:__ZNSt3__26__treeIPFv17ScriptingClassPtrRN18SerializationCache4DataERbENS_4lessIS7_EENS_9allocatorIS7_EEE7destroyEPNS_11__tree_nodeIS7_PvEE
4851:__ZN13string_traitsIA30_cE8get_sizeERA30_Kc
4852:__ZL45StaticInitScriptingManagedObjectProxyRegistryPv
4853:__ZL48StaticDestroyScriptingManagedObjectProxyRegistryPv
4854:__ZL26StaticInitializeGCRecorderPv
4855:__ZL23StaticDestroyGCRecorderPv
4856:__ZN9profiling15ProfilerManager15DisposeRecorderEPNS_8RecorderE
4857:__ZN9profiling17ScriptingProfiler18GetGCCollectMarkerEv
4858:__ZN9profiling15ProfilerManager14CreateRecorderEPNS_6MarkerE
4859:__ZN9profiling8Recorder10SetEnabledEb
4860:__ZN9profiling8Recorder14SampleCallbackEPK23UnityProfilerMarkerDescttPK23UnityProfilerMarkerDataPv
4861:__ZN13RuntimeStaticINSt3__23mapIN4core12basic_stringIcNS2_20StringStorageDefaultIcEEEEPvNS0_4lessIS6_EENS0_9allocatorINS0_4pairIKS6_S7_EEEEEELb0EE16StaticInitializeES7_
4862:__ZN13RuntimeStaticINSt3__23mapIN4core12basic_stringIcNS2_20StringStorageDefaultIcEEEEPvNS0_4lessIS6_EENS0_9allocatorINS0_4pairIKS6_S7_EEEEEELb0EE13StaticDestroyES7_
4863:__ZN13RuntimeStaticINSt3__23mapI17ScriptingClassPtr13dynamic_arrayIS2_Lm0EENS0_4lessIS2_EENS0_9allocatorINS0_4pairIKS2_S4_EEEEEELb0EE16StaticInitializeEPv
4864:__ZN13RuntimeStaticINSt3__23mapI17ScriptingClassPtr13dynamic_arrayIS2_Lm0EENS0_4lessIS2_EENS0_9allocatorINS0_4pairIKS2_S4_EEEEEELb0EE13StaticDestroyEPv
4865:__ZN13RuntimeStaticINSt3__23mapI17ScriptingClassPtrS2_NS0_4lessIS2_EENS0_9allocatorINS0_4pairIKS2_S2_EEEEEELb0EE16StaticInitializeEPv
4866:__ZN13RuntimeStaticINSt3__23mapI17ScriptingClassPtrS2_NS0_4lessIS2_EENS0_9allocatorINS0_4pairIKS2_S2_EEEEEELb0EE13StaticDestroyEPv
4867:__ZN13RuntimeStaticINSt3__23mapI17ScriptingClassPtriNS0_4lessIS2_EENS0_9allocatorINS0_4pairIKS2_iEEEEEELb0EE16StaticInitializeEPv
4868:__ZN13RuntimeStaticINSt3__23mapI17ScriptingClassPtriNS0_4lessIS2_EENS0_9allocatorINS0_4pairIKS2_iEEEEEELb0EE13StaticDestroyEPv
4869:__ZN10BootConfig15GetGlobalConfigEv
4870:__ZNSt3__26__treeINS_12__value_typeI17ScriptingClassPtriEENS_19__map_value_compareIS2_S3_NS_4lessIS2_EELb1EEENS_9allocatorIS3_EEE7destroyEPNS_11__tree_nodeIS3_PvEE
4871:__ZNSt3__26__treeINS_12__value_typeI17ScriptingClassPtrS2_EENS_19__map_value_compareIS2_S3_NS_4lessIS2_EELb1EEENS_9allocatorIS3_EEE7destroyEPNS_11__tree_nodeIS3_PvEE
4872:__ZNSt3__26__treeINS_12__value_typeI17ScriptingClassPtr13dynamic_arrayIS2_Lm0EEEENS_19__map_value_compareIS2_S5_NS_4lessIS2_EELb1EEENS_9allocatorIS5_EEE7destroyEPNS_11__tree_nodeIS5_PvEE
4873:__ZNSt3__26__treeINS_12__value_typeIN4core12basic_stringIcNS2_20StringStorageDefaultIcEEEEPvEENS_19__map_value_compareIS6_S8_NS_4lessIS6_EELb1EEENS_9allocatorIS8_EEE7destroyEPNS_11__tree_nodeIS8_S7_EE
4874:__ZL24ClearRegisteredCallbacksPv
4875:__ZN13RuntimeStaticI15DirectorManagerLb0EE16StaticInitializeEPv
4876:__ZN13RuntimeStaticI15DirectorManagerLb0EE13StaticDestroyEPv
4877:__ZN15DirectorManagerD2Ev
4878:__ZN15DirectorManager12CleanupClassEv
4879:__ZN15DirectorManager14ConnectionPool8DestructEv
4880:__ZNSt3__26__treeINS_12__value_typeIPvsEENS_19__map_value_compareIS2_S3_NS_4lessIS2_EELb1EEE13stl_allocatorIS3_L18MemLabelIdentifier90ELi16EEE7destroyEPNS_11__tree_nodeIS3_S2_EE
4881:__ZN15DirectorManager14ConnectionPool11ClearUnsafeEv
4882:__Z23DestroyMutexLockedStackP16MutexLockedStack
4883:__ZN24StaticInitializeInternal13ConstructTypeI15DirectorManagerLb0EEEPvS2_RK10MemLabelId
4884:__ZN15DirectorManagerC2Ev
4885:__ZN15DirectorManager15InitializeClassEv
4886:__ZZN15DirectorManager15InitializeClassEvEN43InitializationDirectorSampleTimeRegistrator7ForwardEv
4887:__ZZN15DirectorManager15InitializeClassEvEN45FixedUpdateDirectorFixedSampleTimeRegistrator7ForwardEv
4888:__ZZN15DirectorManager15InitializeClassEvEN41FixedUpdateDirectorFixedUpdateRegistrator7ForwardEv
4889:__ZZN15DirectorManager15InitializeClassEvEN52FixedUpdateDirectorFixedUpdatePostPhysicsRegistrator7ForwardEv
4890:__ZZN15DirectorManager15InitializeClassEvEN31UpdateDirectorUpdateRegistrator7ForwardEv
4891:__ZZN15DirectorManager15InitializeClassEvEN48PreLateUpdateDirectorDeferredEvaluateRegistrator7ForwardEv
4892:__ZZN15DirectorManager15InitializeClassEvEN43PostLateUpdateDirectorLateUpdateRegistrator7ForwardEv
4893:__ZZN15DirectorManager15InitializeClassEvEN44PostLateUpdateDirectorRenderImageRegistrator7ForwardEv
4894:__ZZN15DirectorManager15InitializeClassEvEN52PreLateUpdateDirectorUpdateAnimationBeginRegistrator7ForwardEv
4895:__ZZN15DirectorManager15InitializeClassEvEN50PreLateUpdateDirectorUpdateAnimationEndRegistrator7ForwardEv
4896:__ZZN15DirectorManager15InitializeClassEvEN42shutdownBeforeCleanupAllObjectsRegistrator7ForwardEv
4897:__ZZN15DirectorManager15InitializeClassEvEN41shutdownAfterCleanupAllObjectsRegistrator7ForwardEv
4898:__ZZN15DirectorManager15InitializeClassEvEN44exitPlayModeBeforeAwakeInEditModeRegistrator7ForwardEv
4899:__ZZN15DirectorManager15InitializeClassEvEN32enterPlayModePreStartRegistrator7ForwardEv
4900:__ZN15DirectorManager14ConnectionPool14InitializePoolEmf
4901:__Z22CreateMutexLockedStackv
4902:__ZN9profiling21CallbacksProfilerBase20CreateDynamicSamplerEPKc
4903:__ZN9profiling21CallbacksProfilerBase19BeginSampleInternalEPNS_6MarkerE
4904:__ZN17DirectorFrameTime14ResetDSPValuesEv
4905:__ZN9profiling21CallbacksProfilerBase17EndSampleInternalEPNS_6MarkerE
4906:__Z21profiler_begin_objectPN9profiling6MarkerE10ProfilerID
4907:__Z26profiler_begin_instance_idPN9profiling6MarkerEi
4908:__ZN9profiling15ProfilerManager17GetOrCreateMarkerEtRKN4core12basic_stringIcNS1_20StringStorageDefaultIcEEEENS_6Marker5FlagsE
4909:__ZNK4core8hash_setINS_4pairIKNS_16basic_string_refIcEEPN9profiling6MarkerELb0EEENS_9hash_pairINS_4hashIS3_EES4_S7_EENS_10equal_pairINSt3__28equal_toIS3_EES4_S7_EEE6lookupIS3_SH_EEPNSI_4nodeERKT_RKT0_
4910:__ZN9profiling6Marker14AllocateMarkerER5MutexR22ForwardLinearAllocatorjtRKN4core16basic_string_refIcEENS0_5FlagsE
4911:__ZN22ForwardLinearAllocator8allocateEmm
4912:__ZN15DirectorManager23ProcessPlayStateChangesEv
4913:__ZL18FlushGraphCommandsR13dynamic_arrayI16GraphCommandPairLm0EER16MutexLockedStack
4914:__ZN13PlayableGraph12PrepareFrameE16PrepareFrameTypedyj21DirectorThreadContext
4915:__ZN13PlayableGraph27DispatchOutputNotificationsEv
4916:__ZN13PlayableGraph7DestroyEv
4917:__ZN17ScriptingGCHandle15ReleaseAndClearEv
4918:__ZN13PlayableGraph23DestroyPendingPlayablesEv
4919:__ZN13PlayableGraph8EvaluateEdyj
4920:__ZN19GraphCycleValidator5CheckERK13PlayableGraph
4921:__ZN14PlayableOutput25FireConnectionHashChangedEv
4922:__ZNK14PlayableOutput17GetSourcePlayableEv
4923:__ZN19GraphCycleValidator8TraverseERK8PlayableiRN4core8hash_setINSt3__24pairIPS1_iEENS_30PlayableOutputPortPairHashFuncENS5_8equal_toIS8_EEEE
4924:__ZN4core8hash_setINSt3__24pairIPK8PlayableiEEN19GraphCycleValidator30PlayableOutputPortPairHashFuncENS1_8equal_toIS6_EEE6insertIS6_EENS_4pairINSB_13node_iteratorIS6_EEbLb0EEEOT_
4925:__ZN14PlayableOutput26ClearInvalidSourcePlayableEv
4926:__ZN20dynamic_array_detail18dynamic_array_data13resize_bufferEm12ResizePolicymm
4927:__ZN13PlayableGraph14DestroyOutputsEv
4928:__ZN8Playable6HandleEv
4929:__ZN8Playable16DisconnectInputsEPS_
4930:__ZN8Playable21DisconnectFromOutputsEPS_
4931:__ZN8Playable10DisconnectEPS_i
4932:__ZN8Playable20ClearInputConnectionEi
4933:__ZN13PlayableGraph17ConnectionChangedEv
4934:__Z18GetDirectorManagerv
4935:__ZN15DirectorManager11AcquireNodeEv
4936:__ZN14PlayableOutput7DestroyEv
4937:__ZN15DirectorManager14FreeOutputNodeEP19HPlayableOutputNode
4938:__ZN13dynamic_arrayI25PlayableNotificationEntryLm0EE18resize_initializedEm12ResizePolicy
4939:__ZN13dynamic_arrayI25PlayableNotificationEntryLm0EE21resize_buffer_nocheckEm12ResizePolicy
4940:__ZN17ScriptingGCHandle7AcquireE18ScriptingObjectPtr25ScriptingGCHandleWeakness
4941:__ZN14PlayableOutput6HandleEv
4942:__ZN14PlayableOutput21DispatchNotificationsEv
4943:__ZN14PlayableOutput18ClearNotificationsEv
4944:__ZN17ScriptingGCHandle28ResolveBackendNativeGCHandleEj
4945:__Z23GetCoreScriptingClassesv
4946:__Z26scripting_object_get_class18ScriptingObjectPtr
4947:__Z30scripting_class_is_subclass_of17ScriptingClassPtrS_
4948:__ZN9Scripting32GetCachedPtrFromScriptingWrapperE18ScriptingObjectPtr
4949:__ZNK10GameObject8IsActiveEv
4950:__ZN18ScriptingArguments9AddStructEPKv
4951:__ZN18ScriptingArguments9AddObjectE18ScriptingObjectPtr
4952:__ZN19ScriptingInvocation6InvokeEP21ScriptingExceptionPtrb
4953:__Z31scripting_invoke_profiler_begin18ScriptingMethodPtr17ScriptingClassPtrS_18ScriptingObjectPtr
4954:__Z23scripting_method_invoke18ScriptingMethodPtr18ScriptingObjectPtrR18ScriptingArgumentsP21ScriptingExceptionPtrb
4955:__ZN9Scripting32GetScriptingWrapperForInstanceIDEi
4956:__ZN9Scripting11UnityEngine10DebugProxy25CallOverridenDebugHandlerE18ScriptingObjectPtrNS0_11ObjectProxyEP21ScriptingExceptionPtr
4957:__ZN9Scripting23LogExceptionFromManagedE21ScriptingExceptionPtriPKcb
4958:__Z30scripting_stack_trace_info_for21ScriptingExceptionPtrR14StackTraceInfo
4959:__Z24scripting_class_get_name17ScriptingClassPtr
4960:__Z17GetMonoManagerPtrv
4961:__ZN18ScriptingArguments12AddOutObjectEP18ScriptingObjectPtr
4962:__Z24scripting_cpp_string_for18ScriptingStringPtr
4963:__Z21PostprocessStacktracePKcRN4core12basic_stringIcNS1_20StringStorageDefaultIcEEEE
4964:__ZN4core5SplitENS_16basic_string_refIcEEcR13dynamic_arrayIS1_Lm0EEm
4965:__Z13GetFileSystemv
4966:__ZNK10FileSystem16CurrentDirectoryEv
4967:__Z14replace_stringRN4core12basic_stringIcNS_20StringStorageDefaultIcEEEENS_16basic_string_refIcEES6_m
4968:__ZN4core4TrimENS_16basic_string_refIcEEPKc
4969:__ZN4core17string_with_labelILi1EcEC2ERKNS_16basic_string_refIcEE
4970:__ZN4core13StringBuilder14UpdateWritePtrERPcb
4971:__ZNK4core13StringBuilder8ToStringEv
4972:__ZN22LocalFileSystemHandler16CurrentDirectoryEv
4973:__Z9SplitImplIN4core16basic_string_refIcEEEvS2_cR13dynamic_arrayIT_Lm0EEm
4974:__Z18ConvertUTF16toUTF8PKtmPhRm
4975:__Z24GetManagerPtrFromContexti
4976:__ZL30InitializeCoreScriptingClassesv
4977:__ZL27CleanupCoreScriptingClassesv
4978:__Z27SetupModuleScriptingClassesPFvvES0_
4979:__ZN19ScriptingInvocation6InvokeIbEET_P21ScriptingExceptionPtrb
4980:__Z12OptionalTypePKcS0_S0_
4981:__Z11RequireTypePKcS0_S0_
4982:__Z13RequireMethodPKcS0_S0_S0_
4983:__Z14OptionalMethodPKcS0_S0_S0_
4984:__ZN9Scripting9GetMethodE17ScriptingClassPtrPKc
4985:__Z36scripting_class_get_method_from_name17ScriptingClassPtrPKci
4986:__Z43scripting_class_get_method_from_name_filter17ScriptingClassPtrPKciN24ScriptingMethodFiltering18MethodSearchFilterEPK16ScriptingTypePtr
4987:__ZN24ScriptingMethodFiltering17FilterOnSignatureENS_18MethodSearchFilterE
4988:__ZN24ScriptingMethodFiltering36MethodDescriptionMatchesSearchFilterENS_18MethodSearchFilterEbi
4989:__Z29scripting_class_from_fullnamePKcS0_S0_
4990:__Z32scripting_class_get_nested_types17ScriptingClassPtrRNSt3__26vectorIS_13stl_allocatorIS_L18MemLabelIdentifier1ELi16EEEE
4991:__ZN11MonoManager17GetScriptingClassEPKcS1_S1_
4992:__ZNK4core8hash_setINS_4pairIKNS_12basic_stringIcNS_20StringStorageDefaultIcEEEEiLb1EEENS_9hash_pairINS_4hashIS5_EES6_iEENS_10equal_pairINSt3__28equal_toIS5_EES6_iEEE6lookupIS5_SG_EEPNSH_4nodeERKT_RKT0_
4993:__ZNK16ScriptingManager16GetAssemblyCountEv
4994:__ZN9Scripting34ScriptingWrapperClassForNativeTypeEPKN5Unity4TypeE
4995:__Z33scripting_unity_engine_object_new17ScriptingClassPtrP6Object
4996:__ZN9Scripting31ConnectScriptingWrapperToObjectE18ScriptingObjectPtrP6Object
4997:__ZN9Scripting30SetCachedPtrOnScriptingWrapperE18ScriptingObjectPtrP6Object
4998:__ZNK18ScriptingArguments8GetCountEv
4999:__ZN9profiling17ScriptingProfiler18GetOrCreateSamplerE18ScriptingMethodPtrPKc17ScriptingClassPtrS1_NS_6Marker5FlagsE
5000:__Z26scripting_class_has_parent17ScriptingClassPtrS_
5001:__ZN4core8hash_mapIPK10MethodInfoPN9profiling6MarkerENS_4hashIS3_EENSt3__28equal_toIS3_EEE6insertERKS3_RKS6_
5002:__ZN9profiling17ScriptingProfiler28CreateScriptingMethodSamplerE10MemLabelId18ScriptingMethodPtrPKc17ScriptingClassPtrS2_NS_6Marker5FlagsE
5003:__Z26scripting_method_get_class18ScriptingMethodPtr
5004:__Z32scripting_class_get_assemblyname17ScriptingClassPtr
5005:__ZN9profilingL27GetFullyQualifiedMethodNameERKN4core16basic_string_refIcEES4_S4_S4_
5006:__ZN19ScriptingInvocationC2E18ScriptingMethodPtr
5007:__ZN18ScriptingArgumentsC2Ev
5008:__ZN15DirectorManager17AcquireOutputNodeEv
5009:__ZN14PlayableOutput15PrepareTraverseERK9FrameDatai
5010:__ZN8Playable19PrepareFrameVisitorER19DirectorVisitorInfo
5011:__ZN25PreOrderPlayableTraverser8TraverseER19DirectorVisitorInfo
5012:__ZN13PlayableGraph18DisableMultithreadEv
5013:__ZN13PlayableGraph6HandleEv
5014:__ZN8Playable16ProcessPlayStateERK19DirectorVisitorInfo
5015:__ZN8Playable11PrepareDataERK19DirectorVisitorInfo
5016:__ZN15DirectorManager29CacheScriptingMethodsForClassE17ScriptingClassPtr
5017:__ZNK15DirectorManager16GetScriptMethodsEs
5018:__ZNK15PlayableMethods20CanInvokePrepareDataEv
5019:__ZNK15PlayableMethods17InvokePrepareDataERK18ScriptingObjectPtrRK9HPlayableP18ScriptingFrameData
5020:__Z26scripting_class_get_parent17ScriptingClassPtr
5021:__ZN9Scripting29GetFirstNonGenericParentClassE17ScriptingClassPtrS0_
5022:__ZN13dynamic_arrayI15PlayableMethodsLm0EE4growEv
5023:__ZN9Scripting21GetOverrideMethodOnlyEPKc17ScriptingClassPtrS2_
5024:__ZNSt3__26__treeINS_12__value_typeIPvsEENS_19__map_value_compareIS2_S3_NS_4lessIS2_EELb1EEE13stl_allocatorIS3_L18MemLabelIdentifier90ELi16EEE25__emplace_unique_key_argsIS2_JNS_4pairIS2_sEEEEENSD_INS_15__tree_iteratorIS3_PNS_11__tree_nodeIS3_S2_EElEEbEERKT_DpOT0_
5025:__Z26scripting_class_is_generic17ScriptingClassPtr
5026:__ZN8Playable16CallOnGraphStartEv
5027:__ZNK15PlayableMethods20InvokeBehaviourDelayERK18ScriptingObjectPtrRK9HPlayableP18ScriptingFrameData
5028:__ZNK15PlayableMethods13CanInvokePlayEv
5029:__ZNK15PlayableMethods19InvokeBehaviourPlayERK18ScriptingObjectPtrRK9HPlayableP18ScriptingFrameData
5030:__ZNK15PlayableMethods14CanInvokePauseEv
5031:__ZNK15PlayableMethods20InvokeBehaviourPauseERK18ScriptingObjectPtrRK9HPlayableP18ScriptingFrameData
5032:__ZN8Playable15CallOnGraphStopEv
5033:__ZNK15PlayableMethods20CanInvokeOnGraphStopEv
5034:__ZNK15PlayableMethods17InvokeOnGraphStopERK18ScriptingObjectPtrRK9HPlayable
5035:__ZNK15PlayableMethods21CanInvokeOnGraphStartEv
5036:__ZNK15PlayableMethods18InvokeOnGraphStartERK18ScriptingObjectPtrRK9HPlayable
5037:__ZN13dynamic_arrayI16GraphCommandPairLm0EE13clear_deallocEv
5038:__ZNK16MutexLockedStack7IsEmptyEv
5039:__ZN16MutexLockedStack3PopEv
5040:__ZN13dynamic_arrayI16GraphCommandPairLm0EE9push_backERKS0_
5041:__ZN15DirectorManager12ExecuteStageE13DirectorStage
5042:__ZN15DirectorManager20ExecutePrepareFramesE13DirectorStage
5043:__ZN15DirectorManager18RebuildProcessJobsEv
5044:__ZN15DirectorManager19RegisterProcessJobsEP13PlayableGraph
5045:__ZNSt3__26vectorI20ProcessCallbackGroupNS_9allocatorIS1_EEE21__push_back_slow_pathIRKS1_EEvOT_
5046:__ZN15DirectorManager23RebuildPrepareFrameJobsEv
5047:__ZL19PrepareFrameJobFuncP15PrepareFrameJobj
5048:__Z26ScheduleJobForEachInternalR8JobFencePFvPvjES1_iPFvS1_E11JobPriority
5049:__Z21CompleteFenceInternalR8JobFence13WorkStealMode
5050:__Z21ClearFenceWithoutSyncR8JobFence
5051:__ZN13dynamic_arrayI15PrepareFrameJobLm0EE4growEv
5052:__Z22NeedToPerformRenderingv
5053:__Z12GetGfxDevicev
5054:__ZN15DirectorManager22EvaluateDeferredGraphsEv
5055:__ZN15DirectorManager17OnSampleFixedTimeEv
5056:__Z14GetTimeManagerv
5057:__ZN17DirectorFrameTime10SampleTimeEffb
5058:__ZN17DirectorFrameTime21CalculateDSPDeltaTimeEv
5059:__Z9GetIAudiov
5060:__ZN15DirectorManager12OnSampleTimeEv
5061:__ZN15DirectorManager14ConnectionPool16GrowEmptyBucketsEv
5062:__ZN15DirectorManager14ConnectionPool10CreateItemEi
5063:__ZL32StaticInitializeIUnityInterfacesPv
5064:__ZL29StaticCleanupIUnityInterfacesPv
5065:__ZL30StaticInitializeIUnityGraphicsPv
5066:__ZL30StaticInitializeIUnityProfilerPv
5067:__ZL39StaticInitializeIUnityProfilerCallbacksPv
5068:__ZL36StaticCleanupIUnityProfilerCallbacksPv
5069:__ZN13RuntimeStaticI13dynamic_arrayI22RenderingExtPluginDescLm0EELb0EE16StaticInitializeEPv
5070:__ZN13RuntimeStaticI13dynamic_arrayI19ShaderExtPluginDescLm0EELb0EE16StaticInitializeEPv
5071:__ZN13RuntimeStaticI37UnityShaderCompilerExtPluginConfigureLb0EE16StaticInitializeEPv
5072:__ZN24StaticInitializeInternal13ConstructTypeI37UnityShaderCompilerExtPluginConfigureLb0EEEPvS2_RK10MemLabelId
5073:__ZN37UnityShaderCompilerExtPluginConfigure14ReserveKeywordEPKc
5074:__ZN37UnityShaderCompilerExtPluginConfigure25SetGPUProgramCompilerMaskEj
5075:__ZN37UnityShaderCompilerExtPluginConfigure20SetShaderProgramMaskEj
5076:__Z26GetDefaultGlobalKeywordMapv
5077:__ZN24ProfilerCallbacksHandlerD2Ev
5078:__ZN24ProfilerCallbacksHandler22CreateCategoryCallbackEtPv
5079:__ZN9profiling15ProfilerManager29UnregisterNewCategoryCallbackEPFvtPvES1_
5080:__ZN24ProfilerCallbacksHandler19CreateEventCallbackEPN9profiling6MarkerEPv
5081:__ZN9profiling15ProfilerManager27UnregisterNewMarkerCallbackEPFvPNS_6MarkerEPvES3_
5082:__ZN9profiling15ProfilerManager24UnregisterMarkerCallbackEPNS_6Marker8CallbackEPS1_
5083:__ZN9profiling27GetBuiltinCategoryRgbaColorEt
5084:__ZN9profiling22GetBuiltinCategoryNameEt
5085:__ZN24ProfilerCallbacksHandlerC2E10MemLabelId
5086:__Z34RegisterCreateCategoryCallbackImplPFvPK25UnityProfilerCategoryDescPvES2_
5087:__Z36UnregisterCreateCategoryCallbackImplPFvPK25UnityProfilerCategoryDescPvES2_
5088:__Z31RegisterCreateEventCallbackImplPFvPK23UnityProfilerMarkerDescPvES2_
5089:__Z33UnregisterCreateEventCallbackImplPFvPK23UnityProfilerMarkerDescPvES2_
5090:__Z25RegisterEventCallbackImplPK23UnityProfilerMarkerDescPFvS1_ttPK23UnityProfilerMarkerDataPvES5_
5091:__Z27UnregisterEventCallbackImplPK23UnityProfilerMarkerDescPFvS1_ttPK23UnityProfilerMarkerDataPvES5_
5092:__Z25RegisterFrameCallbackImplPFvPvES_
5093:__Z27UnregisterFrameCallbackImplPFvPvES_
5094:__Z32RegisterCreateThreadCallbackImplPFvPK23UnityProfilerThreadDescPvES2_
5095:__Z34UnregisterCreateThreadCallbackImplPFvPK23UnityProfilerThreadDescPvES2_
5096:__Z29RegisterFlowEventCallbackImplPFvhjPvES_
5097:__Z31UnregisterFlowEventCallbackImplPFvhjPvES_
5098:__ZN24ProfilerCallbacksHandler27UnregisterFlowEventCallbackEPFvhjPvES0_
5099:__ZN9profiling15ProfilerManager22UnregisterFlowCallbackEPNS0_17FlowEventCallbackE
5100:__ZN9profiling15ProfilerManager20RegisterFlowCallbackEPNS0_17FlowEventCallbackE
5101:__ZN9profiling8Profiler27UnregisterNewThreadCallbackEPFvPK23UnityProfilerThreadDescPvES4_
5102:__ZN9profiling8Profiler25RegisterNewThreadCallbackEPFvPK23UnityProfilerThreadDescPvES4_
5103:__ZN9profiling15ProfilerManager26UnregisterNewFrameCallbackEPFvPvES1_
5104:__ZN9profiling15ProfilerManager24RegisterNewFrameCallbackEPFvPvES1_
5105:__ZN24ProfilerCallbacksHandler23UnregisterEventCallbackEPK23UnityProfilerMarkerDescPFvS2_ttPK23UnityProfilerMarkerDataPvES6_
5106:__ZN24ProfilerCallbacksHandler28RemoveCallbackFromAllMarkersEPFvPK23UnityProfilerMarkerDescttPK23UnityProfilerMarkerDataPvES6_R13dynamic_arrayINS_17EventCallbackDataELm0EE
5107:__ZN9profiling15ProfilerManager22RegisterMarkerCallbackEPNS_6Marker8CallbackEPS1_
5108:__ZN9profiling15ProfilerManager25RegisterNewMarkerCallbackEPFvPNS_6MarkerEPvES3_
5109:__ZN9profiling15ProfilerManager27RegisterNewCategoryCallbackEPFvtPvES1_
5110:__ZN24ProfilerCallbacksHandler13FrameCallbackEPv
5111:__Z13EmitEventImplPK23UnityProfilerMarkerDescttPK23UnityProfilerMarkerData
5112:__Z13IsEnabledImplv
5113:__Z15IsAvailableImplv
5114:__Z16CreateMarkerImplPPK23UnityProfilerMarkerDescPKctti
5115:__Z25SetMarkerMetadataNameImplPK23UnityProfilerMarkerDesciPKchh
5116:__Z18RegisterThreadImplPyPKcS1_
5117:__Z20UnregisterThreadImply
5118:__Z29profiler_cleanup_thread_by_idy
5119:__ZN9profiling8Profiler17CleanupThreadByIDEy
5120:__ZN9profiling17PerThreadProfiler17EmitCleanupThreadEy
5121:__ZN9profiling16BufferSerializer8TryFlushEb
5122:__Z26profiler_initialize_threadPKcS0_PFvjPvES1_
5123:__ZN9profiling8Profiler16InitializeThreadEPKcS2_PFvjPvES3_
5124:__ZN9profiling8Profiler19GetProfilerThreadIDEv
5125:__ZN13dynamic_arrayIN9profiling8Profiler10ThreadInfoELm0EE4growEv
5126:__ZN9profiling8Profiler16SetThreadDetailsEPNS_17PerThreadProfilerEPKcS4_PFvjPvES5_
5127:__ZN4core6detail14FormatInternalENS_16basic_string_refIcEERK10FormatArgs
5128:__ZN4core6detail16FormatToInternalERNS_12basic_stringIcNS_20StringStorageDefaultIcEEEENS_16basic_string_refIcEERK10FormatArgs
5129:__Z11StringToIntRKN4core16basic_string_refIcEE
5130:__ZN9profiling17PerThreadProfiler14EmitThreadInfoERKN4core12basic_stringIcNS1_20StringStorageDefaultIcEEEES7_j
5131:__ZN9profiling17PerThreadProfilerC2ERK10MemLabelIdPNS_10DispatcherE
5132:__ZN9profiling17PerThreadProfilerD2Ev
5133:__ZN9profiling17PerThreadProfilerD0Ev
5134:__ZN9profiling17PerThreadProfiler13AcquireBufferEm
5135:__ZN9profiling17PerThreadProfiler13ReleaseBufferEPNS_14DispatchBufferE
5136:__ZN9profiling10Dispatcher18EnqueueForDispatchEPNS_14DispatchBufferE
5137:__ZN9profiling19DispatchBuffersPool10PushBufferEPNS_14DispatchBufferE
5138:__ZN9profiling10Dispatcher17AcquireFreeBufferEm
5139:__ZN9profiling19DispatchBuffersPool9PopBufferEm
5140:__ZN9profiling17PerThreadProfiler19CleanupGfxResourcesEv
5141:__ZN9profiling15ProfilerManager22SetMarkerMetadataParamEPNS_6MarkerEmRKN4core12basic_stringIcNS3_20StringStorageDefaultIcEEEENS1_12MetadataDesc4TypeENSA_4UnitE
5142:__ZN9profiling15ProfilerManager30SetMarkerMetadataParamInternalEPNS_6MarkerEmRKN4core12basic_stringIcNS3_20StringStorageDefaultIcEEEENS1_12MetadataDesc4TypeENSA_4UnitE
5143:__ZN9profiling6Marker26AllocateMarkerMetadataDescER5MutexR22ForwardLinearAllocatorRKN4core12basic_stringIcNS5_20StringStorageDefaultIcEEEENS0_12MetadataDesc4TypeENSC_4UnitE
5144:__Z22profiler_create_markerPKctN9profiling6Marker5FlagsE
5145:__Z21profiler_is_availablev
5146:__ZL15GetRendererImplv
5147:__Z31RegisterDeviceEventCallbackImplPFv23UnityGfxDeviceEventTypeE
5148:__Z33UnregisterDeviceEventCallbackImplPFv23UnityGfxDeviceEventTypeE
5149:__ZL23ReserveEventIDRangeImpli
5150:__ZNSt3__26__treeINS_12__value_typeI18UnityInterfaceGUIDP15IUnityInterfaceEENS_19__map_value_compareIS2_S5_NS_4lessIS2_EELb1EEE13stl_allocatorIS5_L18MemLabelIdentifier10ELi16EEE7destroyEPNS_11__tree_nodeIS5_PvEE
5151:__ZL16GetInterfaceImpl18UnityInterfaceGUID
5152:__ZL21GetInterfaceSplitImplyy
5153:__ZL21RegisterInterfaceImpl18UnityInterfaceGUIDP15IUnityInterface
5154:__ZL26RegisterInterfaceSplitImplyyP15IUnityInterface
5155:__ZNSt3__26__treeINS_12__value_typeI18UnityInterfaceGUIDP15IUnityInterfaceEENS_19__map_value_compareIS2_S5_NS_4lessIS2_EELb1EEE13stl_allocatorIS5_L18MemLabelIdentifier10ELi16EEE25__emplace_unique_key_argsIS2_JNS_4pairIS2_S4_EEEEENSF_INS_15__tree_iteratorIS5_PNS_11__tree_nodeIS5_PvEElEEbEERKT_DpOT0_
5156:__ZN33InstancedMeshIntermediateRenderer16StaticInitializeEPv
5157:__ZN33InstancedMeshIntermediateRenderer13StaticDestroyEPv
5158:__ZN32IndirectMeshIntermediateRenderer16StaticInitializeEPv
5159:__ZN32IndirectMeshIntermediateRenderer13StaticDestroyEPv
5160:__ZN43InstancedProceduralMeshIntermediateRenderer16StaticInitializeEPv
5161:__ZN43InstancedProceduralMeshIntermediateRenderer13StaticDestroyEPv
5162:__ZN10MemoryPoolD2Ev
5163:__ZN10MemoryPoolC2ERK10MemLabelIdbPKciii
5164:__ZN13RuntimeStaticI17GfxVersionManagerLb0EE16StaticInitializeEPv
5165:__ZN13RuntimeStaticI17GfxVersionManagerLb0EE13StaticDestroyEPv
5166:__ZN13RuntimeStaticI21ScalableBufferManagerLb0EE13StaticDestroyEPv
5167:__ZN17GfxVersionManagerD2Ev
5168:__ZN17GfxVersionManager14GarbageCollectEy
5169:__Z23DestroyMutexLockedQueueP16MutexLockedQueue10MemLabelId
5170:__ZN14GfxVersionList4Impl14GarbageCollectEy
5171:__ZN14GfxVersionList4ImplD2Ev
5172:__ZN24StaticInitializeInternal13ConstructTypeI17GfxVersionManagerLb0EEEPvS2_RK10MemLabelId
5173:__Z22CreateMutexLockedQueue10MemLabelId
5174:__ZL25CleanupTextureIDGeneratorPv
5175:__ZN13HandleManager12ClearHandlesEv
5176:__ZN13HandleManagerC2Ev
5177:__ZN16GeometryJobTasksC2ERK10MemLabelId
5178:__Z19CleanupTextureIdMapPv
5179:__ZN10InstancingL16RegisterCallbackEPv
5180:__ZN10InstancingL18UnregisterCallbackEPv
5181:__ZN10InstancingL21OnGraphicsCapsChangedEv
5182:__Z15GetGraphicsCapsv
5183:__ZN13RuntimeStaticI18StackAllocatorPoolLb0EE16StaticInitializeEPv
5184:__ZN13RuntimeStaticI18StackAllocatorPoolLb0EE13StaticDestroyEPv
5185:__ZN18StackAllocatorPoolD2Ev
5186:__ZN19ManagedTempMemScopeD2Ev
5187:__ZN14StackAllocatorD2Ev
5188:__ZN14StackAllocatorD0Ev
5189:__ZN14StackAllocator10DeallocateEPv
5190:__ZNK14StackAllocator8ContainsEPKv
5191:__ZNK14StackAllocator10GetPtrSizeEPKv
5192:__ZNK14StackAllocator19GetRequestedPtrSizeEPKv
5193:__ZNK14StackAllocator15WalkAllocationsEPFvPKvmPKPvmRKN13BaseAllocator23AllocationReportingDataEEPFvRKNS5_25MemoryRegionReportingDataEEPFvvE
5194:__ZN27TrackOverflowStackAllocatorD2Ev
5195:__ZN27TrackOverflowStackAllocatorD0Ev
5196:__ZN27TrackOverflowStackAllocator8AllocateEmi
5197:__ZN27TrackOverflowStackAllocator10DeallocateEPv
5198:__ZN27TrackOverflowStackAllocator13TryDeallocateEPv
5199:__ZNK27TrackOverflowStackAllocator8ContainsEPKv
5200:__ZN14StackAllocator23FreeAllStackAllocationsEv
5201:__ZN24StaticInitializeInternal13ConstructTypeI18StackAllocatorPoolLb0EEEPvS2_RK10MemLabelId
5202:__ZN13string_traitsIA33_cE8get_sizeERA33_Kc
5203:__Z12StringToGUIDN4core16basic_string_refIcEE
5204:__ZN9profiling6memoryL37StaticInitializeMemorySnapshotManagerEPv
5205:__ZN9profiling6memoryL34StaticCleanupMemorySnapshotManagerEPv
5206:__ZN9profiling6memory21MemorySnapshotManagerD2Ev
5207:__ZN23MemorySnapshotOperation5AbortEv
5208:__ZN9profiling5debug28ProfilingScreenshotOperation5AbortEv
5209:__ZN9profiling5debug28ProfilingScreenshotOperationD2Ev
5210:__ZN5ImageD2Ev
5211:__ZN9Scripting11UnityEngine9Profiling6Memory12Experimental19MemoryProfilerProxy20SaveScreenshotToDiskERKN4core12basic_stringIcNS5_20StringStorageDefaultIcEEEEbPviiiiP21ScriptingExceptionPtr
5212:__ZN18ScriptingArguments9AddStringEPKc
5213:__ZN18ScriptingArguments10AddBooleanEb
5214:__ZN18ScriptingArguments9AddIntPtrEPv
5215:__ZN18ScriptingArguments6AddIntEi
5216:__ZN18ScriptingArguments7AddEnumEi
5217:__ZN19ScriptingInvocation6InvokeIvEET_P21ScriptingExceptionPtrb
5218:__Z20scripting_string_newPKc
5219:__ZN23MemorySnapshotOperationD2Ev
5220:__ZN24MemorySnapshotFileWriter5CloseEv
5221:__ZN13MemoryManager21RemoveCustomAllocatorERK10MemLabelId
5222:__ZN22BufferDeserializeState10InvalidateEv
5223:__ZN24MemorySnapshotFileWriterD2Ev
5224:__ZN19dynamic_block_arrayIyLm256EED2Ev
5225:__ZN15memoryprofiling5Block11FlushBufferEv
5226:__ZN15memoryprofiling5BlockD2Ev
5227:__ZN15memoryprofiling5BlockD0Ev
5228:__ZN19dynamic_block_arrayIyLm256EE4growEm
5229:__ZN20BufferSerializeState11FlushBufferEv
5230:__ZN23MemorySnapshotOperation15DeserializeData10InvalidateEv
5231:__ZN15memoryprofiling5Block10WriteBlockEv
5232:__ZN12FileAccessor5CloseEv
5233:__Z30HandleThreadAccessRestrictionsRK13FileEntryData
5234:__Z20SetStackTraceLogType7LogType17StackTraceLogType
5235:__ZN23MemorySnapshotOperation8FinalizeEv
5236:__ZN23MemorySnapshotOperation12ReportResultEb
5237:__ZN9Scripting11UnityEngine9Profiling6Memory12Experimental19MemoryProfilerProxy16FinalizeSnapshotERKN4core12basic_stringIcNS5_20StringStorageDefaultIcEEEEbP21ScriptingExceptionPtr
5238:__ZN9profiling6memory21MemorySnapshotManager10InitializeEv
5239:__ZN20DiagnosticSwitchBaseC2EPKcS1_NS_11SwitchFlagsE
5240:__ZN16DiagnosticSwitchIjE18SetValueFromStringEPKc
5241:__ZN16DiagnosticSwitchIjE20ApplyPersistentValueEv
5242:__ZN16DiagnosticSwitchIjE20CollectScriptingInfoERN20DiagnosticSwitchBase13ScriptingInfoE
5243:__ZN16DiagnosticSwitchIjE24UpdateFromScriptingValueE18ScriptingObjectPtrbP21ScriptingExceptionPtr
5244:__ZN9Scripting27CreateArgumentNullExceptionEPKc
5245:__Z25GetCommonScriptingClassesv
5246:__ZN9Scripting23CreateArgumentExceptionEPKcz
5247:__Z19UnsignedIntToStringj
5248:__ZL34CreateManagedExceptionCommonValistPKcS0_S0_Pi
5249:__Z30CreateBoxedObjectFromPrimitivej
5250:__Z14IsStringNumberRKN4core12basic_stringIcNS_20StringStorageDefaultIcEEEE
5251:__Z14StringToUInt32RKN4core16basic_string_refIcEE
5252:__Z19scripting_value_box17ScriptingClassPtrPv
5253:__ZN26FormatArgMapTypeHelperBaseImLb1EE18FormatArgFormatterERN4core12basic_stringIcNS1_20StringStorageDefaultIcEEEENS1_16basic_string_refIcEEPKPKv
5254:__ZN4core13FormatValueToERNS_12basic_stringIcNS_20StringStorageDefaultIcEEEERKmNS_16basic_string_refIcEE
5255:__Z14ParsePrecisionN4core16basic_string_refIcEEi
5256:__ZL18FormatIntAsDecimalImEvRN4core12basic_stringIcNS0_20StringStorageDefaultIcEEEEiT_
5257:__ZL16FormatIntAsFixedImEvRN4core12basic_stringIcNS0_20StringStorageDefaultIcEEEEiT_
5258:__ZL21FormatIntAsScientificImEvRN4core12basic_stringIcNS0_20StringStorageDefaultIcEEEEiibT_
5259:__ZL18FormatIntAsDecimalIiEvRN4core12basic_stringIcNS0_20StringStorageDefaultIcEEEEiT_
5260:__ZN26FormatArgMapTypeHelperBaseIyLb0EE18FormatArgFormatterERN4core12basic_stringIcNS1_20StringStorageDefaultIcEEEENS1_16basic_string_refIcEEPKPKv
5261:__ZN4core13FormatValueToERNS_12basic_stringIcNS_20StringStorageDefaultIcEEEERKyNS_16basic_string_refIcEE
5262:__ZL18FormatIntAsDecimalIyEvRN4core12basic_stringIcNS0_20StringStorageDefaultIcEEEEiT_
5263:__ZL16FormatIntAsFixedIyEvRN4core12basic_stringIcNS0_20StringStorageDefaultIcEEEEiT_
5264:__ZL21FormatIntAsScientificIyEvRN4core12basic_stringIcNS0_20StringStorageDefaultIcEEEEiibT_
5265:__ZN26FormatArgMapTypeHelperBaseIN4core12basic_stringIcNS0_20StringStorageDefaultIcEEEELb0EE18FormatArgFormatterERS4_NS0_16basic_string_refIcEEPKPKv
5266:__ZN13RuntimeStaticIN4core8hash_mapINS0_12basic_stringIcNS0_20StringStorageDefaultIcEEEEPvNS0_4hashIS5_EENSt3__28equal_toIS5_EEEELb0EE16StaticInitializeES6_
5267:__ZN13RuntimeStaticIN4core8hash_mapINS0_12basic_stringIcNS0_20StringStorageDefaultIcEEEEPvNS0_4hashIS5_EENSt3__28equal_toIS5_EEEELb0EE13StaticDestroyES6_
5268:__ZN13RuntimeStaticI13ModuleManagerLb0EE13StaticDestroyEPv
5269:__ZN24StaticInitializeInternal13ConstructTypeIN4core8hash_mapINS1_12basic_stringIcNS1_20StringStorageDefaultIcEEEEPvNS1_4hashIS6_EENSt3__28equal_toIS6_EEEELb0EEES7_S7_RK10MemLabelId
5270:__ZN12_GLOBAL__N_138ArchiveRedirectFileSystemStaticDestroyEPv
5271:__ZN10MemoryPool16StaticInitializeEPv
5272:__ZN10MemoryPool13StaticDestroyEPv
5273:__ZN13RuntimeStaticI14CallbackArray1IbELb0EE16StaticInitializeEPv
5274:__ZN23DefaultMeshVertexFormatC2E17ShaderChannelMask
5275:__ZN24StaticInitializeInternal13ConstructTypeI14CallbackArray1IbELb0EEEPvS3_RK10MemLabelId
5276:__ZN13RuntimeStaticI13dynamic_arrayIN4core12basic_stringIcNS1_20StringStorageDefaultIcEEEELm0EELb0EE16StaticInitializeEPv
5277:__ZN13RuntimeStaticI13dynamic_arrayIN4core12basic_stringIcNS1_20StringStorageDefaultIcEEEELm0EELb0EE13StaticDestroyEPv
5278:__Z15InitializeCRC32Pv
5279:__ZN5crc3215InitializeTableEv
5280:__ZN26FormatArgMapTypeHelperBaseIN4core16basic_string_refIcEELb0EE18FormatArgFormatterERNS0_12basic_stringIcNS0_20StringStorageDefaultIcEEEES2_PKPKv
5281:__ZN13RuntimeStaticINSt3__23setI19RepeatingLogMessageNS0_4lessIS2_EE13stl_allocatorIS2_L18MemLabelIdentifier78ELi16EEEELb0EE16StaticInitializeEPv
5282:__ZN13RuntimeStaticINSt3__23setI19RepeatingLogMessageNS0_4lessIS2_EE13stl_allocatorIS2_L18MemLabelIdentifier78ELi16EEEELb0EE13StaticDestroyEPv
5283:__ZNSt3__26__treeI19RepeatingLogMessageNS_4lessIS1_EE13stl_allocatorIS1_L18MemLabelIdentifier78ELi16EEE7destroyEPNS_11__tree_nodeIS1_PvEE
5284:__ZN13RuntimeStaticINSt3__28multimapIi25TransformAccessArrayEntryNS0_4lessIiEENS0_9allocatorINS0_4pairIKiS2_EEEEEELb0EE16StaticInitializeEPv
5285:__ZN13RuntimeStaticINSt3__28multimapIi25TransformAccessArrayEntryNS0_4lessIiEENS0_9allocatorINS0_4pairIKiS2_EEEEEELb0EE13StaticDestroyEPv
5286:__ZL36TransformAccessArray_InitializeClassPv
5287:__ZL33TransformAccessArray_CleanupClassPv
5288:__ZN32TransformHierarchyChangeDispatch15InitializeClassEPv
5289:__ZN32TransformHierarchyChangeDispatch12CleanupClassEPv
5290:__ZN32TransformHierarchyChangeDispatchD2Ev
5291:__ZN32TransformHierarchyChangeDispatchC2Ev
5292:__ZN32TransformHierarchyChangeDispatch16UnregisterSystemER36TransformHierarchyChangeSystemHandle
5293:__ZL29TransformAccessChangeCallbackPK15TransformAccessj
5294:__ZN32TransformHierarchyChangeDispatch14RegisterSystemEPKcNS_12InterestTypeEPFvPK15TransformAccessjE
5295:__ZL30TransformAccessDestroyCallbackPK15TransformAccessj
5296:__ZL28TransformAccessClearCallbackPK15TransformAccessj
5297:__ZL20PatchTransformAccessiRK15TransformAccessbb
5298:__ZN4core8hash_setIiNS_4hashIiEENSt3__28equal_toIiEEE6insertIRiEENS_4pairINS6_13node_iteratorIiEEbLb0EEEOT_
5299:__ZNSt3__26__treeINS_12__value_typeIi25TransformAccessArrayEntryEENS_19__map_value_compareIiS3_NS_4lessIiEELb1EEENS_9allocatorIS3_EEE7destroyEPNS_11__tree_nodeIS3_PvEE
5300:__ZN23TransformChangeDispatch15InitializeClassEPv
5301:__ZN23TransformChangeDispatch12CleanupClassEPv
5302:__ZN23TransformChangeDispatchD2Ev
5303:__ZN23TransformChangeDispatchC2Ev
5304:__ZN9ShaderLab19CommonPropertyNames16StaticInitializeEPv
5305:__ZN9ShaderLab19CommonPropertyNames13StaticCleanupEPv
5306:__ZN13RuntimeStaticIN4core12basic_stringIcNS0_20StringStorageDefaultIcEEEELb0EE16StaticInitializeEPv
5307:__ZN13RuntimeStaticIN4core12basic_stringIcNS0_20StringStorageDefaultIcEEEELb0EE13StaticDestroyEPv
5308:__ZN9ShaderLabL25StaticInitializeShaderLabEPv
5309:__ZN9ShaderLabL22StaticDestroyShaderLabEPv
5310:__ZNSt3__212__deque_baseIPN9ShaderLab21SerializedShaderStateE13stl_allocatorIS3_L18MemLabelIdentifier25ELi16EEED2Ev
5311:__ZN8keywords7CleanupEv
5312:__ZN9shadertag7CleanupEv
5313:__ZNSt3__26__treeINS_12__value_typeIPKc11ShaderTagIDEENS_19__map_value_compareIS3_S5_27compare_tstring_insensitiveIS3_ELb1EEE13stl_allocatorIS5_L18MemLabelIdentifier25ELi16EEE7destroyEPNS_11__tree_nodeIS5_PvEE
5314:__ZN16ShaderKeywordMapD2Ev
5315:__ZN16ShaderKeywordMap6CreateEN4core16basic_string_refIcEE17ShaderKeywordType
5316:__ZNK16ShaderKeywordMap4FindEN4core16basic_string_refIcEE
5317:__ZNK16ShaderKeywordMap7GetNameEi
5318:__ZNK16ShaderKeywordMap14GetKeywordTypeEi
5319:__ZN16ShaderKeywordMap11SetCapacityEj
5320:__ZNK4core8hash_setINS_4pairIKNS_12basic_stringIcNS_20StringStorageDefaultIcEEEEN16ShaderKeywordMap18ShaderKeywordEntryELb1EEENS_9hash_pairINS_4hashIS5_EES6_S8_EENS_10equal_pairINSt3__28equal_toIS5_EES6_S8_EEE6lookupIS5_SI_EEPNSJ_4nodeERKT_RKT0_
5321:__ZN4core8hash_mapINS_12basic_stringIcNS_20StringStorageDefaultIcEEEEN16ShaderKeywordMap18ShaderKeywordEntryENS_4hashIS4_EENSt3__28equal_toIS4_EEE6insertERKS4_RKS6_
5322:__ZN4core8hash_setINS_4pairIKNS_12basic_stringIcNS_20StringStorageDefaultIcEEEEN16ShaderKeywordMap18ShaderKeywordEntryELb1EEENS_9hash_pairINS_4hashIS5_EES6_S8_EENS_10equal_pairINSt3__28equal_toIS5_EES6_S8_EEE4growEi
5323:__Z23arg_construct_autolabelIN4core4pairIKNS0_12basic_stringIcNS0_20StringStorageDefaultIcEEEEN16ShaderKeywordMap18ShaderKeywordEntryELb1EEEJRS6_RKS8_EEvPT_RK10MemLabelIdDpOT0_
5324:__ZNSt3__212__deque_baseIPN9ShaderLab21SerializedShaderStateE13stl_allocatorIS3_L18MemLabelIdentifier25ELi16EEE5clearEv
5325:__ZN8keywords10InitializeEv
5326:__ZN9shadertag10InitializeEv
5327:__ZN9shadertag14GetShaderTagIDEPKci
5328:__Z7StrICmpPKcS0_
5329:__ZNSt3__26__treeINS_12__value_typeIPKc11ShaderTagIDEENS_19__map_value_compareIS3_S5_27compare_tstring_insensitiveIS3_ELb1EEE13stl_allocatorIS5_L18MemLabelIdentifier25ELi16EEE21__emplace_unique_implIJNS_4pairIPcS4_EEEEENSF_INS_15__tree_iteratorIS5_PNS_11__tree_nodeIS5_PvEElEEbEEDpOT_
5330:__ZN16ShaderKeywordMapC2Ejj
5331:__ZN21ShaderLocalKeywordMap6CreateEN4core16basic_string_refIcEE17ShaderKeywordType
5332:__Z27LogRepeatingStringWithFlagsRKN4core12basic_stringIcNS_20StringStorageDefaultIcEEEE15LogMessageFlagsi
5333:__ZNSt3__26__treeI19RepeatingLogMessageNS_4lessIS1_EE13stl_allocatorIS1_L18MemLabelIdentifier78ELi16EEE4findIS1_EENS_15__tree_iteratorIS1_PNS_11__tree_nodeIS1_PvEElEERKT_
5334:__ZNSt3__26__treeI19RepeatingLogMessageNS_4lessIS1_EE13stl_allocatorIS1_L18MemLabelIdentifier78ELi16EEE25__emplace_unique_key_argsIS1_JRKS1_EEENS_4pairINS_15__tree_iteratorIS1_PNS_11__tree_nodeIS1_PvEElEEbEERKT_DpOT0_
5335:__ZNSt3__26__treeI19RepeatingLogMessageNS_4lessIS1_EE13stl_allocatorIS1_L18MemLabelIdentifier78ELi16EEE12__find_equalIS1_EERPNS_16__tree_node_baseIPvEERPNS_15__tree_end_nodeISC_EERKT_
5336:__ZN22ShaderGlobalKeywordMap6CreateEN4core16basic_string_refIcEE17ShaderKeywordType
5337:__ZNK22ShaderGlobalKeywordMap4FindEN4core16basic_string_refIcEE
5338:__ZNK22ShaderGlobalKeywordMap7GetNameEi
5339:__ZNK22ShaderGlobalKeywordMap14GetKeywordTypeEi
5340:__ZN22ShaderGlobalKeywordMap11SetCapacityEj
5341:__ZN24StaticInitializeInternal13ConstructTypeIN4core12basic_stringIcNS1_20StringStorageDefaultIcEEEELb0EEEPvS6_RK10MemLabelId
5342:__Z30CleanupBuiltinShaderParamNamesv
5343:__Z33InitializeBuiltinShaderParamNamesv
5344:__ZN13dynamic_arrayIN12_GLOBAL__N_114ParamNameIndexELm0EE21resize_buffer_nocheckEm12ResizePolicy
5345:__ZNSt3__26__sortIRNS_6__lessIN12_GLOBAL__N_114ParamNameIndexES3_EEPS3_EEvT0_S7_T_
5346:__ZNSt3__27__sort3IRNS_6__lessIN12_GLOBAL__N_114ParamNameIndexES3_EEPS3_EEjT0_S7_S7_T_
5347:__ZNSt3__27__sort4IRNS_6__lessIN12_GLOBAL__N_114ParamNameIndexES3_EEPS3_EEjT0_S7_S7_S7_T_
5348:__ZNSt3__27__sort5IRNS_6__lessIN12_GLOBAL__N_114ParamNameIndexES3_EEPS3_EEjT0_S7_S7_S7_S7_T_
5349:__ZNSt3__227__insertion_sort_incompleteIRNS_6__lessIN12_GLOBAL__N_114ParamNameIndexES3_EEPS3_EEbT0_S7_T_
5350:__ZL22InitializeGlobalCBKeysPv
5351:__ZN13RuntimeStaticI12GraphicsCapsLb0EE16StaticInitializeEPv
5352:__ZN13RuntimeStaticI12GraphicsCapsLb0EE13StaticDestroyEPv
5353:__ZN13RuntimeStaticI12GraphicsCapsLb0EE7DestroyEv
5354:__ZN24StaticInitializeInternal13ConstructTypeI12GraphicsCapsLb0EEEPvS2_RK10MemLabelId
5355:__ZN12GraphicsCapsC2Ev
5356:__ZN16GraphicsCapsGLESC2Ev
5357:__Z15StringToHash128RKN4core12basic_stringIcNS_20StringStorageDefaultIcEEEE
5358:__ZL35StaticInitializeRuntimeSceneManagerPv
5359:__ZL32StaticDestroyRuntimeSceneManagerPv
5360:__ZN19RuntimeSceneManagerC2ERK10MemLabelId
5361:__Z28AllocateNextLowestInstanceIDv
5362:__ZN10UnitySceneC2EiRK10MemLabelIdRKN4core16basic_string_refIcEES7_RK9UnityGUIDib
5363:__ZL32MarkLevelGameManagerDependenciesR27GarbageCollectorThreadState
5364:__ZL16SceneWasUnloadedi
5365:__ZL18ActiveSceneChangedP10UnitySceneS0_
5366:__Z20MarkInstanceIDAsRootiR27GarbageCollectorThreadState
5367:__ZN10UnityScene14SetPathAndGUIDERKN4core16basic_string_refIcEERK9UnityGUID
5368:__Z24GetLastPathNameComponentRKN4core16basic_string_refIcEE
5369:__Z23DeletePathNameExtensionRKN4core16basic_string_refIcEE
5370:__ZN19RuntimeSceneManagerD2Ev
5371:__ZN19RuntimeSceneManagerD0Ev
5372:__ZN19RuntimeSceneManager8GetSceneEi
5373:__ZN19RuntimeSceneManager11MergeScenesER10UnitySceneS1_
5374:__ZN19RuntimeSceneManager11UnloadSceneEP10UnityScene18UnloadSceneOptions
5375:__ZN10UnityScene24OnGameObjectChangedSceneER10GameObjectPS_S2_
5376:__ZN10GameObject10DeactivateE19DeactivateOperation
5377:__ZN10GameObject8ActivateEv
5378:__ZN10GameObject32ActivateAwakeRecursivelyInternalE19DeactivateOperationR18AwakeFromLoadQueue
5379:__ZN18AwakeFromLoadQueue13AwakeFromLoadE17AwakeFromLoadModeb
5380:__ZL53SortBehaviourItemByExecutionOrderAndReverseInstanceIDRKN18AwakeFromLoadQueue4ItemES2_
5381:__ZNSt3__26__sortIRPFbRKN18AwakeFromLoadQueue4ItemES4_EPS2_EEvT0_S9_T_
5382:__ZN31ThreadAndSerializationSafeCheck24GetObjectBeingTransferedERP6ObjectRP22SerializableManagedRef
5383:__ZN31ThreadAndSerializationSafeCheck24SetObjectBeingTransferedEP6ObjectP22SerializableManagedRef
5384:__ZNSt3__27__sort4IRPFbRKN18AwakeFromLoadQueue4ItemES4_EPS2_EEjT0_S9_S9_S9_T_
5385:__ZNSt3__218__insertion_sort_3IRPFbRKN18AwakeFromLoadQueue4ItemES4_EPS2_EEvT0_S9_T_
5386:__ZNSt3__227__insertion_sort_incompleteIRPFbRKN18AwakeFromLoadQueue4ItemES4_EPS2_EEbT0_S9_T_
5387:__Z24GetExecutionOrderManagerv
5388:__ZNK21ExecutionOrderManager23GetScriptExecutionOrderEiPKN5Unity4TypeE
5389:__ZNK22SerializableManagedRef17GetExecutionOrderEv
5390:__ZN18AwakeFromLoadQueue3AddER6ObjectPK8TypeTreeb17AwakeFromLoadMode
5391:__ZN10GameObject18UpdateActiveGONodeEv
5392:__ZNK21ExecutionOrderManager30GetCustomAwakeFromLoadQueueForEPKN5Unity4TypeE
5393:__ZN18AwakeFromLoadQueueC2E10MemLabelId
5394:__ZN19RuntimeSceneManager14CanUnloadSceneEP10UnityScene
5395:__ZN19RuntimeSceneManager19UnloadSceneInternalEP10UnityScene18UnloadSceneOptions
5396:__ZN10UnitySceneD2Ev
5397:__ZN19RuntimeSceneManager14SetActiveSceneER10UnityScene
5398:__Z22DestroyObjectHighLevelP6Objectb
5399:__Z19DestroySingleObjectP6Object
5400:__Z31ReadObjectFromPersistentManageri
5401:__Z20GetPersistentManagerv
5402:__ZN17PersistentManager10ReadObjectEi17AwakeFromLoadMode
5403:__ZN17PersistentManager37RegisterPartiallyLoadedObjectInternalEi
5404:__ZN18AwakeFromLoadQueue34PersistentManagerAwakeSingleObjectER6Object17AwakeFromLoadMode
5405:__ZN17PersistentManager18ReadObjectThreadedEiNS_9LockFlagsE
5406:__ZN17PersistentManager38LoadAndIntegrateAllPreallocatedObjectsENS_9LockFlagsE
5407:__ZN17PersistentManager32LoadRemainingPreallocatedObjectsENS_9LockFlagsE
5408:__ZN17PersistentManager25ExtractAwakeFromLoadQueueER18AwakeFromLoadQueue
5409:__ZN18AwakeFromLoadQueue25RegisterObjectInstanceIDsEv
5410:__ZN18AwakeFromLoadQueue30PersistentManagerAwakeFromLoadEv
5411:__ZL20SortItemByInstanceIDRKN18AwakeFromLoadQueue4ItemES2_
5412:__ZN18AwakeFromLoadQueue28InvokePersistentManagerAwakeEPNS_4ItemEj17AwakeFromLoadModeb
5413:__Z24SetExecutionRestrictions21ExecutionRestrictions
5414:__ZN6Object24RegisterInstanceIDNoLockEPS_
5415:__ZN4core8hash_setINS_4pairIKiP6ObjectLb0EEENS_9hash_pairINS_4hashIiEES2_S4_EENS_10equal_pairINSt3__28equal_toIiEES2_S4_EEE6insertINS1_IiS4_Lb0EEEEENS1_INSF_13node_iteratorIS5_EEbLb0EEEOT_
5416:__Z24profiler_register_objectP6Object
5417:__ZN19MemoryProfilerStats14RegisterObjectEP6Object
5418:__ZN18AwakeFromLoadQueue7ReserveEj
5419:__ZN8Remapper38InstanceIDToSerializedObjectIdentifierEiR26SerializedObjectIdentifier
5420:__ZNSt3__26__sortIRNS_6__lessI14ObjectLoadDataS2_EEPS2_EEvT0_S6_T_
5421:__ZN17PersistentManager29ReadAndActivateObjectThreadedEiRK26SerializedObjectIdentifierP14SerializedFilebbNS_9LockFlagsE
5422:__ZN17PersistentManager26GetStreamNameSpaceInternalEi
5423:__ZNK14SerializedFile11IsAvailableEx
5424:__ZN17PersistentManager32CreateThreadActivationQueueEntryER14SerializedFile26SerializedObjectIdentifieribNS_9LockFlagsE
5425:__ZN14SerializedFile10ReadObjectEx18ObjectCreationModebPPK8TypeTreePbR6Object
5426:__ZN17PersistentManager23PostReadActivationQueueEiPK8TypeTreebNS_9LockFlagsE
5427:__ZN14SerializedFile14SerializedType21CompareAgainstNewTypeER6ObjectR13dynamic_arrayIS0_Lm0EE24TransferInstructionFlags
5428:__ZN6Object15SetIsPersistentEb
5429:__ZN14SerializedFile26BuildRefTypePoolIfRelevantEv
5430:__ZN13dynamic_arrayINSt3__24pairIy8TypeTreeEELm0EED2Ev
5431:__ZN14SafeBinaryRead4InitERK16TypeTreeIteratorN3VFS8FileSizeEx24TransferInstructionFlagsRK10MemLabelId
5432:__ZN12CachedReader8InitReadER15CacheReaderBasemm
5433:__ZN12CachedReader3EndEv
5434:__ZL23OutOfBoundsReadingErrorPKN5Unity4TypeEmmR6Object
5435:__ZN12CachedReader18InitResourceImagesER18ResourceImageGroup
5436:__ZN12CachedReaderC2Ev
5437:__ZN14SafeBinaryReadD2Ev
5438:__ZN8TypeTreeD2Ev
5439:__ZNK10MonoScript22GetScriptFullClassNameEv
5440:__ZN12CachedReader16OutOfBoundsErrorEmm
5441:__Z11GetNicePathR15CacheReaderBase
5442:__ZN8TypeTreeC2ERKS_
5443:__ZN14SafeBinaryReadC2Ev
5444:__ZN15TypeTreeQueries25GenerateTypeTreeSignatureERKN4core12basic_stringIcNS0_20StringStorageDefaultIcEEEES6_S6_
5445:__Z27profiler_change_persistenceibb
5446:__ZN19MemoryProfilerStats21ChangePersistenceFlagEibb
5447:__ZN13TypeTreeCache11GetTypeTreeEPK6Object24TransferInstructionFlagsR8TypeTree
5448:__ZN15TypeTreeQueries26IsStreamedBinaryCompatibleERK16TypeTreeIteratorS2_
5449:__ZN13TypeTreeCache11GetTypeTreeERKN4core12basic_stringIcNS0_20StringStorageDefaultIcEEEES6_S4_24TransferInstructionFlagsR8TypeTree
5450:__ZN11APIUpdating7Queries19ResolveTypeFromNameEPKcS2_S2_
5451:__ZN13TypeTreeCache11GetTypeTreeE17ScriptingClassPtr24TransferInstructionFlagsR8TypeTree
5452:__ZN8TypeTreeaSERKS_
5453:__ZN15TypeTreeQueries25GenerateTypeTreeSignatureERK17ScriptingClassPtr
5454:__ZN14GfxDoubleCacheIyN13TypeTreeCache18CachedTypeTreeDataENS0_13HashGeneratorENSt3__28equal_toIyEEN31GfxDoubleCacheConcurrencyPolicy11LocklessGetE42GfxDoubleCacheDefaultEmptyDeletedGeneratorIyEL18MemLabelIdentifier82EE4FindERKyRKS1_
5455:__Z20scripting_object_new17ScriptingClassPtr
5456:__Z29scripting_class_instance_size17ScriptingClassPtr
5457:__ZN24GenerateTypeTreeTransfer18SetScriptingObjectE18ScriptingObjectPtri
5458:__ZN24GenerateTypeTreeTransfer13BeginTransferEPKcS1_Pc17TransferMetaFlags
5459:__Z23TransferScriptingObjectI24GenerateTypeTreeTransferEvRT_18ScriptingObjectPtr17ScriptingClassPtrPK15MonoScriptCache
5460:__ZN24GenerateTypeTreeTransfer11EndTransferEv
5461:__ZN14GfxDoubleCacheIyN13TypeTreeCache18CachedTypeTreeDataENS0_13HashGeneratorENSt3__28equal_toIyEEN31GfxDoubleCacheConcurrencyPolicy11LocklessGetE42GfxDoubleCacheDefaultEmptyDeletedGeneratorIyEL18MemLabelIdentifier82EE3SetERKyRKS1_
5462:__ZN15dense_hashtableINSt3__24pairIKyN13TypeTreeCache18CachedTypeTreeDataEEEyNS3_13HashGeneratorEN14GfxDoubleCacheIyS4_S6_NS0_8equal_toIyEEN31GfxDoubleCacheConcurrencyPolicy11LocklessGetE42GfxDoubleCacheDefaultEmptyDeletedGeneratorIyEL18MemLabelIdentifier82EE9SelectKeyES9_13stl_allocatorIS5_LSE_82ELi16EEE23find_or_insert_noresizeERKS5_
5463:__ZN19EndOfFrameCallbacks7EnqueueEP18EndOfFrameCallbackb
5464:__ZN15dense_hashtableINSt3__24pairIKyN13TypeTreeCache18CachedTypeTreeDataEEEyNS3_13HashGeneratorEN14GfxDoubleCacheIyS4_S6_NS0_8equal_toIyEEN31GfxDoubleCacheConcurrencyPolicy11LocklessGetE42GfxDoubleCacheDefaultEmptyDeletedGeneratorIyEL18MemLabelIdentifier82EE9SelectKeyES9_13stl_allocatorIS5_LSE_82ELi16EEE12resize_deltaEmm
5465:__ZN15dense_hashtableINSt3__24pairIKyN13TypeTreeCache18CachedTypeTreeDataEEEyNS3_13HashGeneratorEN14GfxDoubleCacheIyS4_S6_NS0_8equal_toIyEEN31GfxDoubleCacheConcurrencyPolicy11LocklessGetE42GfxDoubleCacheDefaultEmptyDeletedGeneratorIyEL18MemLabelIdentifier82EE9SelectKeyES9_13stl_allocatorIS5_LSE_82ELi16EEE15insert_noresizeERKS5_
5466:__ZN15dense_hashtableINSt3__24pairIKyN13TypeTreeCache18CachedTypeTreeDataEEEyNS3_13HashGeneratorEN14GfxDoubleCacheIyS4_S6_NS0_8equal_toIyEEN31GfxDoubleCacheConcurrencyPolicy11LocklessGetE42GfxDoubleCacheDefaultEmptyDeletedGeneratorIyEL18MemLabelIdentifier82EE9SelectKeyES9_13stl_allocatorIS5_LSE_82ELi16EEE12maybe_shrinkEv
5467:__ZN14DelayedDeletorI15dense_hashtableINSt3__24pairIKyN13TypeTreeCache18CachedTypeTreeDataEEEyNS4_13HashGeneratorEN14GfxDoubleCacheIyS5_S7_NS1_8equal_toIyEEN31GfxDoubleCacheConcurrencyPolicy11LocklessGetE42GfxDoubleCacheDefaultEmptyDeletedGeneratorIyEL18MemLabelIdentifier82EE9SelectKeyESA_13stl_allocatorIS6_LSF_82ELi16EEEEclEv
5468:__ZNK16TypeTreeIterator6FatherEv
5469:__ZNK16TypeTreeIterator7GetNodeEv
5470:__Z23TransferScriptingObjectI24GenerateTypeTreeTransferLb0EEvRT_18ScriptingObjectPtr17ScriptingClassPtrRPN18SerializationCache4DataEP25ManagedReferencesRegistry
5471:__ZN18SerializationCache9FetchDataE17ScriptingClassPtr
5472:__ZN18SerializationCache13FetchCommandsEPNS_4DataERK24TransferRequestSignature
5473:__Z33BuildSerializationCommandQueueForRK34BuildSerializationCommandQueueArgsR32SerializationCommandQueueBuilderRP20AllowNameConversionsbPK18TransferField_Info
5474:__ZN15SerializeTraitsI25ManagedReferencesRegistryE8TransferI24GenerateTypeTreeTransferEEvRS0_RT_
5475:__ZN25ManagedReferencesRegistryD2Ev
5476:__Z19scripting_gc_enablev
5477:__ZNSt3__26__treeINS_12__value_typeIPviEENS_19__map_value_compareIS2_S3_NS_4lessIS2_EELb1EEENS_9allocatorIS3_EEE7destroyEPNS_11__tree_nodeIS3_S2_EE
5478:__ZN15SerializeTraitsI26RegisteredReferencedObjectILN24ReferencedObjectInstance12TransferHintE1EEE8TransferI24GenerateTypeTreeTransferEEvRS3_RT_
5479:__ZN15SerializeTraitsI21ReferencedManagedTypeE8TransferI24GenerateTypeTreeTransferEEvRS0_RT_
5480:__ZN15SerializeTraitsI20ReferencedObjectDataILN24ReferencedObjectInstance12TransferHintE1EEE8TransferI24GenerateTypeTreeTransferEEvRS3_RT_
5481:__Z33GetScriptingTraitsForTransferTypeRK12TransferType
5482:__ZN23ScriptingClassConverter8ToNativeE17ScriptingClassPtr
5483:__ZN24GenerateTypeTreeTransfer18BeginArrayTransferEPKcS1_Ri17TransferMetaFlags
5484:__ZN24GenerateTypeTreeTransfer16EndArrayTransferEv
5485:__ZN24GenerateTypeTreeTransfer5AlignEv
5486:__ZNK23ScriptingClassConverter9ToManagedEv
5487:__ZNK16TypeTreeIterator8ChildrenEv
5488:__ZNK16TypeTreeIterator4LastEv
5489:__ZN23ScriptingClassConverter9ToFullFQNE17ScriptingClassPtrRN4core12basic_stringIcNS1_20StringStorageDefaultIcEEEES6_S6_
5490:__Z34scripting_class_get_declaring_type17ScriptingClassPtr
5491:__ZL42EmitInvokeInterfaceMethodCommandIfRequired18ScriptingMethodPtr17ScriptingClassPtrS0_R32SerializationCommandQueueBuilderRK31TransferFunctionScriptingTraitsbb24SerializationCommandType
5492:__ZN9Scripting36IsSystemCollectionsGenericDictionaryE17ScriptingClassPtr
5493:__Z26scripting_class_get_fields17ScriptingClassPtrRNSt3__26vectorI17ScriptingFieldPtr13stl_allocatorIS2_L18MemLabelIdentifier1ELi16EEEE
5494:__Z24scripting_field_get_type17ScriptingFieldPtr
5495:__Z23scripting_type_get_type16ScriptingTypePtr
5496:__Z25scripting_class_from_type16ScriptingTypePtr
5497:__Z25scripting_field_get_flags17ScriptingFieldPtr
5498:__Z19ShouldTransferFieldR32SerializationCommandQueueBuilder17ScriptingClassPtriR18TransferField_InfoRK20CoreScriptingClasses
5499:__Z33EmitSerializationCommandsForFieldRK34BuildSerializationCommandQueueArgsRK18TransferField_InfoR32SerializationCommandQueueBuilderRP20AllowNameConversions
5500:__ZN9Scripting30IsSystemCollectionsGenericListE17ScriptingClassPtr
5501:__Z24scripting_class_get_type17ScriptingClassPtr
5502:__Z28scripting_class_is_valuetype17ScriptingClassPtr
5503:__ZL28SerializationCommandGroupForRK31TransferFunctionScriptingTraits17ScriptingClassPtr17ScriptingFieldPtrRK20CoreScriptingClasses
5504:__Z29scripting_field_has_attribute17ScriptingFieldPtr17ScriptingClassPtr
5505:__ZL29CanTransferTypeAsNestedObject17ScriptingClassPtr38ETransferTypeAsNestedObjectConstraints
5506:__ZL27GetFieldNameForErrorMessageRK18TransferField_InfoRN4core12basic_stringIcNS2_20StringStorageDefaultIcEEEE
5507:__Z23scripting_type_get_name16ScriptingTypePtr
5508:__ZN13dynamic_arrayI20SerializationCommandLm0EE4growEv
5509:__Z35scripting_class_get_field_from_name17ScriptingClassPtrPKc
5510:__Z6StrCmpPKcS0_
5511:__Z25scripting_class_get_flags17ScriptingClassPtr
5512:__Z28scripting_class_is_interface17ScriptingClassPtr
5513:__Z27scripting_class_is_abstract17ScriptingClassPtr
5514:__Z20scripting_get_corlibv
5515:__ZN11MonoManager25GetAssemblyIndexFromImageE17ScriptingImagePtr
5516:__Z23scripting_class_is_enum17ScriptingClassPtr
5517:__Z29scripting_class_enum_basetype17ScriptingClassPtr
5518:__ZN9Scripting35ErrorMessageForUnsupportedEnumFieldE17ScriptingFieldPtr
5519:__ZN21LinearCollectionFieldC2ER17GeneralMonoObject17ScriptingFieldPtr
5520:__ZN9Scripting27BackingArrayFieldForListOfTE17ScriptingClassPtr
5521:__ZN9Scripting29RuntimeObjectInitLogExceptionE18ScriptingObjectPtr
5522:__Z41scripting_type_get_class_or_element_class16ScriptingTypePtr
5523:__ZN9Scripting12LogExceptionE21ScriptingExceptionPtriPKcb
5524:__Z25IsFieldSerializedInEditorRK17ScriptingFieldPtrRK16ScriptingTypePtrRK17ScriptingClassPtriiPKcRK20CoreScriptingClassesRb
5525:__ZN17MonoScriptManager17FindRuntimeScriptE17ScriptingClassPtr
5526:__Z35scripting_object_get_virtual_method18ScriptingObjectPtr18ScriptingMethodPtr
5527:__ZNK15dense_hashtableINSt3__24pairIKPvN18SerializationCache10CacheEntryEEES2_NS4_21CommandsHashMapHasherEN14GfxDoubleCacheIS2_S5_S7_NS0_8equal_toIS2_EEN31GfxDoubleCacheConcurrencyPolicy11LocklessGetE42GfxDoubleCacheDefaultEmptyDeletedGeneratorIS2_EL18MemLabelIdentifier112EE9SelectKeyESA_13stl_allocatorIS6_LSF_112ELi16EEE13find_positionERS3_
5528:__ZN18SerializationCache26BuildSerializationCacheForE17ScriptingClassPtr
5529:__ZN14GfxDoubleCacheIPvN18SerializationCache10CacheEntryENS1_21CommandsHashMapHasherENSt3__28equal_toIS0_EEN31GfxDoubleCacheConcurrencyPolicy11LocklessGetE42GfxDoubleCacheDefaultEmptyDeletedGeneratorIS0_EL18MemLabelIdentifier112EE6InsertERKS0_RKS2_
5530:__ZN15dense_hashtableINSt3__24pairIKPvN18SerializationCache10CacheEntryEEES2_NS4_21CommandsHashMapHasherEN14GfxDoubleCacheIS2_S5_S7_NS0_8equal_toIS2_EEN31GfxDoubleCacheConcurrencyPolicy11LocklessGetE42GfxDoubleCacheDefaultEmptyDeletedGeneratorIS2_EL18MemLabelIdentifier112EE9SelectKeyESA_13stl_allocatorIS6_LSF_112ELi16EEE23find_or_insert_noresizeERKS6_
5531:__ZN15dense_hashtableINSt3__24pairIKPvN18SerializationCache10CacheEntryEEES2_NS4_21CommandsHashMapHasherEN14GfxDoubleCacheIS2_S5_S7_NS0_8equal_toIS2_EEN31GfxDoubleCacheConcurrencyPolicy11LocklessGetE42GfxDoubleCacheDefaultEmptyDeletedGeneratorIS2_EL18MemLabelIdentifier112EE9SelectKeyESA_13stl_allocatorIS6_LSF_112ELi16EEE12resize_deltaEmm
5532:__ZN15dense_hashtableINSt3__24pairIKPvN18SerializationCache10CacheEntryEEES2_NS4_21CommandsHashMapHasherEN14GfxDoubleCacheIS2_S5_S7_NS0_8equal_toIS2_EEN31GfxDoubleCacheConcurrencyPolicy11LocklessGetE42GfxDoubleCacheDefaultEmptyDeletedGeneratorIS2_EL18MemLabelIdentifier112EE9SelectKeyESA_13stl_allocatorIS6_LSF_112ELi16EEE12maybe_shrinkEv
5533:__ZN14DelayedDeletorI15dense_hashtableINSt3__24pairIKPvN18SerializationCache10CacheEntryEEES3_NS5_21CommandsHashMapHasherEN14GfxDoubleCacheIS3_S6_S8_NS1_8equal_toIS3_EEN31GfxDoubleCacheConcurrencyPolicy11LocklessGetE42GfxDoubleCacheDefaultEmptyDeletedGeneratorIS3_EL18MemLabelIdentifier112EE9SelectKeyESB_13stl_allocatorIS7_LSG_112ELi16EEEEclEv
5534:__ZN18SerializationCache4DataC2Ev
5535:__ZN18SerializationCache39WriteQueueForTransferSignatureIntoCacheERK31TransferFunctionScriptingTraitsRK24TransferRequestSignature17ScriptingClassPtrRNS_4DataERb
5536:__ZN24TransferRequestSignature3ForI17RemapPPtrTransferEES_24TransferInstructionFlags
5537:__ZN13dynamic_arrayI20SerializationCommandLm0EE21resize_buffer_nocheckEm12ResizePolicy
5538:__ZN13dynamic_arrayI12TypeTreeNodeLm0EE4growEv
5539:__ZN8TypeTree16AssignTypeStringERK16TypeTreeIteratorPKc
5540:__ZN8TypeTree16AssignNameStringERK16TypeTreeIteratorPKc
5541:__ZN8TypeTree16AssignByteOffsetERK16TypeTreeIteratorj
5542:__ZN21TypeTreeShareableData12CreateStringERjPKc
5543:__Z20GetCommonStringTablev
5544:__ZNK17CommonStringTable16FindCommonStringEPKcm
5545:__ZN24GenerateTypeTreeTransferC2ER8TypeTree24TransferInstructionFlagsPvi
5546:__ZN8TypeTreeC2EP21TypeTreeShareableDataRK10MemLabelId
5547:__ZNK15dense_hashtableINSt3__24pairIKmyEEm14GfxGenericHashImEN14GfxDoubleCacheImyS5_NS0_8equal_toImEEN31GfxDoubleCacheConcurrencyPolicy11LocklessGetE42GfxDoubleCacheDefaultEmptyDeletedGeneratorImEL18MemLabelIdentifier82EE9SelectKeyES8_13stl_allocatorIS3_LSD_82ELi16EEE13find_positionERS2_
5548:__ZN14GfxDoubleCacheImy14GfxGenericHashImENSt3__28equal_toImEEN31GfxDoubleCacheConcurrencyPolicy11LocklessGetE42GfxDoubleCacheDefaultEmptyDeletedGeneratorImEL18MemLabelIdentifier82EE3SetERKmRKy
5549:__ZN15dense_hashtableINSt3__24pairIKmyEEm14GfxGenericHashImEN14GfxDoubleCacheImyS5_NS0_8equal_toImEEN31GfxDoubleCacheConcurrencyPolicy11LocklessGetE42GfxDoubleCacheDefaultEmptyDeletedGeneratorImEL18MemLabelIdentifier82EE9SelectKeyES8_13stl_allocatorIS3_LSD_82ELi16EEE23find_or_insert_noresizeERKS3_
5550:__ZN15dense_hashtableINSt3__24pairIKmyEEm14GfxGenericHashImEN14GfxDoubleCacheImyS5_NS0_8equal_toImEEN31GfxDoubleCacheConcurrencyPolicy11LocklessGetE42GfxDoubleCacheDefaultEmptyDeletedGeneratorImEL18MemLabelIdentifier82EE9SelectKeyES8_13stl_allocatorIS3_LSD_82ELi16EEE12resize_deltaEmm
5551:__ZN15dense_hashtableINSt3__24pairIKmyEEm14GfxGenericHashImEN14GfxDoubleCacheImyS5_NS0_8equal_toImEEN31GfxDoubleCacheConcurrencyPolicy11LocklessGetE42GfxDoubleCacheDefaultEmptyDeletedGeneratorImEL18MemLabelIdentifier82EE9SelectKeyES8_13stl_allocatorIS3_LSD_82ELi16EEE12maybe_shrinkEv
5552:__ZN14DelayedDeletorI15dense_hashtableINSt3__24pairIKmyEEm14GfxGenericHashImEN14GfxDoubleCacheImyS6_NS1_8equal_toImEEN31GfxDoubleCacheConcurrencyPolicy11LocklessGetE42GfxDoubleCacheDefaultEmptyDeletedGeneratorImEL18MemLabelIdentifier82EE9SelectKeyES9_13stl_allocatorIS4_LSE_82ELi16EEEEclEv
5553:__ZN11APIUpdating7Caching15RefreshFQNCacheEv
5554:__ZN14GfxDoubleCacheIN11APIUpdating7Caching6FQNKeyE17ScriptingClassPtrNS2_13HashGeneratorENSt3__28equal_toIS2_EEN31GfxDoubleCacheConcurrencyPolicy11LocklessGetENS2_12KeyGeneratorEL18MemLabelIdentifier113EE4FindERKS2_RKS3_
5555:__ZN11APIUpdating7Queries30ResolvePotentialyRelocatedTypeE17ScriptingClassPtr
5556:__ZNK15dense_hashtableINSt3__24pairIK17ScriptingClassPtrS2_EES2_N11APIUpdating7Caching7TypeKey13HashGeneratorEN14GfxDoubleCacheIS2_S2_S8_NS7_8EqualityEN31GfxDoubleCacheConcurrencyPolicy11LocklessGetENS7_12KeyGeneratorEL18MemLabelIdentifier113EE9SelectKeyESA_13stl_allocatorIS4_LSE_113ELi16EEE13find_positionERS3_
5557:__Z29scripting_class_has_attribute17ScriptingClassPtrS_
5558:__ZN11APIUpdating7Caching40GetClassRedirectionFromObsoleteAttributeE17ScriptingClassPtr
5559:__ZN14GfxDoubleCacheI17ScriptingClassPtrS0_N11APIUpdating7Caching7TypeKey13HashGeneratorENS3_8EqualityEN31GfxDoubleCacheConcurrencyPolicy11LocklessGetENS3_12KeyGeneratorEL18MemLabelIdentifier113EE3SetERKS0_SC_
5560:__ZN15dense_hashtableINSt3__24pairIK17ScriptingClassPtrS2_EES2_N11APIUpdating7Caching7TypeKey13HashGeneratorEN14GfxDoubleCacheIS2_S2_S8_NS7_8EqualityEN31GfxDoubleCacheConcurrencyPolicy11LocklessGetENS7_12KeyGeneratorEL18MemLabelIdentifier113EE9SelectKeyESA_13stl_allocatorIS4_LSE_113ELi16EEE23find_or_insert_noresizeERKS4_
5561:__ZN15dense_hashtableINSt3__24pairIK17ScriptingClassPtrS2_EES2_N11APIUpdating7Caching7TypeKey13HashGeneratorEN14GfxDoubleCacheIS2_S2_S8_NS7_8EqualityEN31GfxDoubleCacheConcurrencyPolicy11LocklessGetENS7_12KeyGeneratorEL18MemLabelIdentifier113EE9SelectKeyESA_13stl_allocatorIS4_LSE_113ELi16EEE12resize_deltaEmm
5562:__ZN15dense_hashtableINSt3__24pairIK17ScriptingClassPtrS2_EES2_N11APIUpdating7Caching7TypeKey13HashGeneratorEN14GfxDoubleCacheIS2_S2_S8_NS7_8EqualityEN31GfxDoubleCacheConcurrencyPolicy11LocklessGetENS7_12KeyGeneratorEL18MemLabelIdentifier113EE9SelectKeyESA_13stl_allocatorIS4_LSE_113ELi16EEE12maybe_shrinkEv
5563:__ZN14DelayedDeletorI15dense_hashtableINSt3__24pairIK17ScriptingClassPtrS3_EES3_N11APIUpdating7Caching7TypeKey13HashGeneratorEN14GfxDoubleCacheIS3_S3_S9_NS8_8EqualityEN31GfxDoubleCacheConcurrencyPolicy11LocklessGetENS8_12KeyGeneratorEL18MemLabelIdentifier113EE9SelectKeyESB_13stl_allocatorIS5_LSF_113ELi16EEEEclEv
5564:__Z38scripting_class_get_system_type_object17ScriptingClassPtr
5565:__ZN9Scripting11UnityEngine10_Scripting11APIUpdating29APIUpdaterRuntimeHelpersProxy26GetObsoleteTypeRedirectionE18ScriptingObjectPtrPS4_S5_S5_P21ScriptingExceptionPtr
5566:__ZNK15dense_hashtableINSt3__24pairIKN11APIUpdating7Caching6FQNKeyE17ScriptingClassPtrEES4_NS4_13HashGeneratorEN14GfxDoubleCacheIS4_S6_S8_NS0_8equal_toIS4_EEN31GfxDoubleCacheConcurrencyPolicy11LocklessGetENS4_12KeyGeneratorEL18MemLabelIdentifier113EE9SelectKeyESB_13stl_allocatorIS7_LSF_113ELi16EEE23find_position_with_hashERS5_m
5567:__ZNK15dense_hashtableINSt3__24pairIKN11APIUpdating7Caching6FQNKeyE17ScriptingClassPtrEES4_NS4_13HashGeneratorEN14GfxDoubleCacheIS4_S6_S8_NS0_8equal_toIS4_EEN31GfxDoubleCacheConcurrencyPolicy11LocklessGetENS4_12KeyGeneratorEL18MemLabelIdentifier113EE9SelectKeyESB_13stl_allocatorIS7_LSF_113ELi16EEE12test_deletedEm
5568:__ZNK16ScriptingManager8GetImageEi
5569:__Z31scripting_image_get_class_count17ScriptingImagePtr
5570:__Z25scripting_image_get_class17ScriptingImagePtri
5571:__ZN14GfxDoubleCacheIN11APIUpdating7Caching6FQNKeyE17ScriptingClassPtrNS2_13HashGeneratorENSt3__28equal_toIS2_EEN31GfxDoubleCacheConcurrencyPolicy11LocklessGetENS2_12KeyGeneratorEL18MemLabelIdentifier113EE3SetERKS2_RKS3_
5572:__ZN15dense_hashtableINSt3__24pairIKN11APIUpdating7Caching6FQNKeyE17ScriptingClassPtrEES4_NS4_13HashGeneratorEN14GfxDoubleCacheIS4_S6_S8_NS0_8equal_toIS4_EEN31GfxDoubleCacheConcurrencyPolicy11LocklessGetENS4_12KeyGeneratorEL18MemLabelIdentifier113EE9SelectKeyESB_13stl_allocatorIS7_LSF_113ELi16EEE23find_or_insert_noresizeERKS7_
5573:__ZN15dense_hashtableINSt3__24pairIKN11APIUpdating7Caching6FQNKeyE17ScriptingClassPtrEES4_NS4_13HashGeneratorEN14GfxDoubleCacheIS4_S6_S8_NS0_8equal_toIS4_EEN31GfxDoubleCacheConcurrencyPolicy11LocklessGetENS4_12KeyGeneratorEL18MemLabelIdentifier113EE9SelectKeyESB_13stl_allocatorIS7_LSF_113ELi16EEE12resize_deltaEmm
5574:__ZN15dense_hashtableINSt3__24pairIKN11APIUpdating7Caching6FQNKeyE17ScriptingClassPtrEES4_NS4_13HashGeneratorEN14GfxDoubleCacheIS4_S6_S8_NS0_8equal_toIS4_EEN31GfxDoubleCacheConcurrencyPolicy11LocklessGetENS4_12KeyGeneratorEL18MemLabelIdentifier113EE9SelectKeyESB_13stl_allocatorIS7_LSF_113ELi16EEE15insert_noresizeERKS7_
5575:__ZN14DelayedDeletorI15dense_hashtableINSt3__24pairIKN11APIUpdating7Caching6FQNKeyE17ScriptingClassPtrEES5_NS5_13HashGeneratorEN14GfxDoubleCacheIS5_S7_S9_NS1_8equal_toIS5_EEN31GfxDoubleCacheConcurrencyPolicy11LocklessGetENS5_12KeyGeneratorEL18MemLabelIdentifier113EE9SelectKeyESC_13stl_allocatorIS8_LSG_113ELi16EEEEclEv
5576:__ZNK16TypeTreeIterator4NameEv
5577:__ZNK16TypeTreeIterator4TypeEv
5578:__ZNK16TypeTreeIterator4NextEv
5579:__ZN15TypeTreeQueries25GenerateTypeTreeSignatureE24TransferInstructionFlagsRK6Object
5580:__ZNK22SerializableManagedRef27GeneratedTypeTreeIsCachableEP6Object
5581:__ZNK22SerializableManagedRef8GetClassEv
5582:__ZN8TypeTreeC2ERK10MemLabelId
5583:__ZN13dynamic_arrayI12TypeTreeNodeLm0EEC2EmRK10MemLabelId
5584:__ZN17PersistentManager13ProduceObjectER14SerializedFile26SerializedObjectIdentifieri18ObjectCreationModeNS_9LockFlagsE
5585:__ZN4core8hash_mapIi17ThreadedAwakeDataNS_4hashIiEENSt3__28equal_toIiEEE6insertERKiRKS1_
5586:__ZN4core8hash_setINS_4pairIKi17ThreadedAwakeDataLb0EEENS_9hash_pairINS_4hashIiEES2_S3_EENS_10equal_pairINSt3__28equal_toIiEES2_S3_EEE4growEi
5587:__ZN14SerializedFile14GetProduceDataExRPKN5Unity4TypeER31LocalSerializedObjectIdentifierR10MemLabelId
5588:__ZN6Object7ProduceEPKN5Unity4TypeES3_i10MemLabelId18ObjectCreationMode
5589:__ZN17PersistentManager43LocalSerializedObjectIdentifierToInstanceIDEiRK31LocalSerializedObjectIdentifierRiNS_9LockFlagsE
5590:__ZN17PersistentManager22GetFromActivationQueueEiNS_9LockFlagsE
5591:__ZN10MonoScript8GetClassEv
5592:__ZN22SerializableManagedRef19RebuildMonoInstanceEP6Object17ScriptingClassPtr18ScriptingObjectPtrP10MonoScript
5593:__ZN22SerializableManagedRef19SetupScriptingCacheEP6Object17ScriptingClassPtrP10MonoScript
5594:__Z64scripting_unity_engine_object_new_and_invoke_default_constructor17ScriptingClassPtrP6ObjectP21ScriptingExceptionPtr
5595:__ZNK22SerializableManagedRef22GetScriptFullClassNameEv
5596:__ZN9Scripting12LogExceptionE21ScriptingExceptionPtrP6ObjectPKcb
5597:__Z27FindOrCreateMonoScriptCache17ScriptingClassPtr22InitScriptingCacheTypeP6Objecti
5598:__ZN16ScriptingManager18GetMonoScriptCacheEl
5599:__Z18BuildScriptClassId17ScriptingClassPtr
5600:__Z21CreateMonoScriptCacheRKN4core12basic_stringIcNS_20StringStorageDefaultIcEEEE17ScriptingClassPtr22InitScriptingCacheTypeP6Objecti
5601:__Z27scripting_class_is_inflated17ScriptingClassPtr
5602:__ZN14MessageHandler3GetEv
5603:__Z27scripting_class_get_methods17ScriptingClassPtrRNSt3__26vectorI18ScriptingMethodPtr13stl_allocatorIS2_L18MemLabelIdentifier1ELi16EEEE
5604:__Z28scripting_method_is_instancePK10MethodInfo
5605:__ZN4core8hash_mapINS_16basic_string_refIcEE18ScriptingMethodPtrNS_4hashIS2_EENSt3__28equal_toIS2_EEEixERKS2_
5606:__Z35scripting_method_get_argument_count18ScriptingMethodPtr
5607:__ZN14MessageHandler28MessageIDToMessageIdentifierEi
5608:__Z37scripting_method_get_nth_argumenttype18ScriptingMethodPtri
5609:__Z23scripting_type_is_byref16ScriptingTypePtr
5610:__Z20scripting_type_is_in16ScriptingTypePtr
5611:__Z21scripting_type_is_out16ScriptingTypePtr
5612:__ZN16ScriptingManager27NativeTypeForScriptingClassE17ScriptingClassPtr
5613:__ZN9Scripting25GetTypeFromScriptingClassE17ScriptingClassPtr
5614:__Z26GetManagedAttributeManagerv
5615:__ZN23ManagedAttributeManager24GetDefaultExecutionOrderE17ScriptingClassPtr
5616:__ZN21AttributeScannerQuery24UpdateAttributeUsageInfoEj
5617:__ZN16AttributeScannerC2E17ScriptingClassPtrRK21AttributeScannerQuery10MemLabelId
5618:__ZN16AttributeScanner4NextEv
5619:__ZN23AttributeCollectionInfo28AllocAttributesArrayIfNeededEv
5620:__ZN23AttributeCollectionInfo20GetAttributeObjectAtEi
5621:__ZN16AttributeScannerD2Ev
5622:__ZN9Scripting34GetScriptingArrayObjectElementImplE17ScriptingArrayPtri
5623:__Z27scripting_array_element_ptr17ScriptingArrayPtrim
5624:__Z32scripting_custom_attrs_constructP20Il2CppCustomAttrInfo
5625:__Z33scripting_custom_attrs_from_class17ScriptingClassPtr
5626:__Z31scripting_custom_attrs_has_attrP20Il2CppCustomAttrInfo17ScriptingClassPtr
5627:__Z32scripting_class_get_methods_iter17ScriptingClassPtrPPv
5628:__Z34scripting_custom_attrs_from_method18ScriptingMethodPtr
5629:__Z31scripting_custom_attrs_get_attrP20Il2CppCustomAttrInfo17ScriptingClassPtr
5630:__ZN5Unity4Type14FindTypeByNameEPKcNS0_22CaseSensitivityOptionsE
5631:__ZNK11TypeManager15ClassNameToRTTIEPKcb
5632:__ZN17MessageIdentifier21GetRegisteredMessagesEv
5633:__Z33RenderImageFilterValidateCallback18ScriptingMethodPtr17ScriptingClassPtrP6Object
5634:__Z31AudioFilterReadValidateCallback18ScriptingMethodPtr17ScriptingClassPtrP6Object
5635:__Z21CheckMethodParameters18ScriptingMethodPtr17ScriptingClassPtrPS0_jP6ObjectR11MonoManager
5636:__Z26GetScriptClassIdComponents17ScriptingClassPtrRN4core17string_with_labelILi1EcEES3_S3_
5637:__ZL21AppendNestedClassName17ScriptingClassPtrRN4core17string_with_labelILi1EcEE
5638:__ZN8Remapper23GetOrGenerateInstanceIDERK26SerializedObjectIdentifier
5639:__ZN17PersistentManager25PreallocateObjectThreadedEiNS_9LockFlagsE
5640:__ZN25DiagnosticsUtils_Bindings10ForceCrashENS_19ForcedCrashCategoryEP21ScriptingExceptionPtr
5641:__ZN17PersistentManager22MakeObjectUnpersistentEi13UnpersistMode
5642:__Z28delete_object_internal_step1P6Object
5643:__Z26profiler_unregister_objectP6Object
5644:__Z15GetEventManagerv
5645:__ZN12EventManager11InvokeEventEP10EventEntryPvi
5646:__ZN12EventManager11RemoveEventEP10EventEntry
5647:__ZN10MemoryPool10DeallocateEPv
5648:__ZN19MemoryProfilerStats16UnregisterObjectEP6Object
5649:__ZN17PersistentManager15DestroyFromFileEi
5650:__ZN8Remapper6RemoveEi
5651:__ZN17PersistentManager19RemapToAbsolutePathERKN4core12basic_stringIcNS0_20StringStorageDefaultIcEEEE
5652:__Z13IsFileCreatedRKN4core16basic_string_refIcEE
5653:__Z14CreateMemLabel18MemLabelIdentifierPv
5654:__ZN14SerializedFile14InitializeReadERKN4core12basic_stringIcNS0_20StringStorageDefaultIcEEEER18ResourceImageGroupmb24TransferInstructionFlagsN3VFS8FileSizeESB_
5655:__ZN14SerializedFile7ReleaseEv
5656:__ZN17PersistentManager31PostLoadStreamNameSpaceInternalER15StreamNameSpacei
5657:__ZNK14SerializedFile12GetHighestIDEv
5658:__ZNSt3__26vectorINS_4pairIiiEE13stl_allocatorIS2_L18MemLabelIdentifier42ELi16EEE6insertENS_11__wrap_iterIPKS2_EEOS2_
5659:__ZNSt3__214__split_bufferINS_4pairIiiEER13stl_allocatorIS2_L18MemLabelIdentifier42ELi16EEE9push_backEOS2_
5660:__ZN14SerializedFileD2Ev
5661:__ZN18ResourceImageGroup7CleanupEv
5662:__ZN19dynamic_block_arrayI14FileIdentifierLm64EED2Ev
5663:__ZN13dynamic_arrayIN14SerializedFile14SerializedTypeELm0EED2Ev
5664:__ZN13dynamic_arrayI14FileIdentifierLm0EED2Ev
5665:__ZN13ResourceImageD2Ev
5666:__ZN14SerializedFile10ReadHeaderEv
5667:__Z28PrintSerializedFileLoadErrorRKN4core12basic_stringIcNS_20StringStorageDefaultIcEEEEm23SerializedFileLoadError
5668:__Z11FormatBytesx
5669:__Z12FormatStringPKcz
5670:__Z12FormatBufferPciPKcPi
5671:__Z13ReadFileCacheR15CacheReaderBasePvN3VFS8FileSizeEm
5672:__ZN14SerializedFile12ReadMetadataILb0EEEb27SerializedFileFormatVersionN3VFS8FileSizeEPKhmS3_
5673:__ZN14SerializedFile12ReadMetadataILb1EEEb27SerializedFileFormatVersionN3VFS8FileSizeEPKhmS3_
5674:__ZN14SerializedFile27PatchRemapDeprecatedClassesEv
5675:__ZN5Unity4Type26FindTypeByPersistentTypeIDEi
5676:__ZN5Unity4Type41GetDeserializationStubForPersistentTypeIDEi
5677:__ZL38FindOrCreateSerializedTypeForUnityTypeR13dynamic_arrayIN14SerializedFile14SerializedTypeELm0EEPKN5Unity4TypeEbsi
5678:__ZN13dynamic_arrayIN14SerializedFile14SerializedTypeELm0EE4growEv
5679:__ZN14SerializedFile14SerializedTypeC2ERKS0_
5680:__ZN11TypeManager45GetDeserializationRTTIStubForPersistentTypeIDEi
5681:__ZNK11TypeManager22PersistentTypeIDToRTTIEi
5682:__ZN13dynamic_arrayIN14SerializedFile14SerializedTypeELm0EE18resize_initializedEmRKS1_12ResizePolicy
5683:__ZNK12UnityVersionltERKS_
5684:__ZN14SerializedFile14SerializedType8ReadTypeILb1ELb0EEEb27SerializedFileFormatVersionbRPKhS4_Pib
5685:__ZL26ExtractScriptTypeReferenceRK16TypeTreeIteratorN3VFS8FileSizeER15CacheReaderBasebR31LocalSerializedObjectIdentifier
5686:__ZN13dynamic_arrayI31LocalSerializedObjectIdentifierLm0EE4growEv
5687:__ZNSt3__26vectorINS_4pairIxN14SerializedFile10ObjectInfoEEENS_9allocatorIS4_EEE21__push_back_slow_pathIS4_EEvOT_
5688:__ZN13dynamic_arrayI31LocalSerializedObjectIdentifierLm0EE21resize_buffer_nocheckEm12ResizePolicy
5689:__ZN19dynamic_block_arrayI14FileIdentifierLm64EE28resize_with_resizer_internalINS1_20ResizerWithNoDefaultEEEvmRKT_
5690:__ZN14SerializedFile14SerializedType8ReadTypeILb1ELb1EEEb27SerializedFileFormatVersionbRPKhS4_Pib
5691:__ZNSt3__26__treeINS_12__value_typeIiiEENS_19__map_value_compareIiS2_NS_4lessIiEELb1EEENS_9allocatorIS2_EEE7destroyEPNS_11__tree_nodeIS2_PvEE
5692:__ZN10TypeTreeIO12ReadTypeTreeER8TypeTreeRPKhS3_27SerializedFileFormatVersionb
5693:__Z22ReadHeaderCacheCheckedILb1EEbRN4core12basic_stringIcNS0_20StringStorageDefaultIcEEEERPKhS8_
5694:__ZN21TypeTreeShareableData8BlobReadERPKhS1_27SerializedFileFormatVersionb
5695:__ZN10TypeTreeIOL16ReadTypeTreeImplILb1EEEbR8TypeTreeRK16TypeTreeIteratorRPKhS7_27SerializedFileFormatVersion
5696:__ZN10TypeTreeIOL16ReadTypeTreeImplILb0EEEbR8TypeTreeRK16TypeTreeIteratorRPKhS7_27SerializedFileFormatVersion
5697:__ZN21TypeTreeShareableData19BlobReadV17AndPriorERPKhS1_27SerializedFileFormatVersionb
5698:__ZN13dynamic_arrayI12TypeTreeNodeLm0EE21resize_buffer_nocheckEm12ResizePolicy
5699:__ZN19dynamic_block_arrayI14FileIdentifierLm64EE4growEm
5700:__ZN13dynamic_arrayI14FileIdentifierLm0EE18resize_initializedEm12ResizePolicy
5701:__ZN13dynamic_arrayI14FileIdentifierLm0EE21resize_buffer_nocheckEm12ResizePolicy
5702:__ZNSt3__26vectorIiNS_9allocatorIiEEE8__appendEmRKi
5703:__ZN13dynamic_arrayIN14SerializedFile14SerializedTypeELm0EE21resize_buffer_nocheckEm12ResizePolicy
5704:__ZN14SerializedFile14SerializedType8ReadTypeILb0ELb0EEEb27SerializedFileFormatVersionbRPKhS4_Pib
5705:__ZN14SerializedFile14SerializedType8ReadTypeILb0ELb1EEEb27SerializedFileFormatVersionbRPKhS4_Pib
5706:__ZN14FileCacherReadC2E10MemLabelIdRKN4core12basic_stringIcNS1_20StringStorageDefaultIcEEEEmb
5707:__Z18PathToAbsolutePathPKc
5708:__ZNK15FileSystemEntry4SizeEv
5709:__ZN13FileEntryDataD2Ev
5710:__ZN15FileSystemEntryC2EN4core16basic_string_refIcEE
5711:__ZN15FileSystemEntry3SetEN4core16basic_string_refIcEE
5712:__Z24ConvertSeparatorsToUnityPc
5713:__ZNK10FileSystem10ToAbsoluteEPKc
5714:__ZN14FileCacherReadD2Ev
5715:__ZN14FileCacherReadD0Ev
5716:__ZN14FileCacherRead10DirectReadEPvmm
5717:__ZN14FileCacherRead14LockCacheBlockEmPPhS1_
5718:__ZN14FileCacherRead16UnlockCacheBlockEm
5719:__ZNK14FileCacherRead12GetCacheSizeEv
5720:__ZNK14FileCacherRead11GetPathNameEv
5721:__ZN15CacheReaderBase18GetAddressOfMemoryEv
5722:__ZN14FileCacherRead12RequestBlockEi
5723:__Z16AsyncReadRequestP16AsyncReadCommand
5724:__ZN13OpenFileCache10OpenCachedERKN4core12basic_stringIcNS0_20StringStorageDefaultIcEEEE
5725:__ZN4File4ReadEN3VFS8FileSizeEPvm
5726:__ZN12FileAccessor4ReadEN3VFS8FileSizeEyPvPy
5727:__ZN4File7IsValidEv
5728:__ZN4File5CloseEv
5729:__ZN4File4OpenERKN4core12basic_stringIcNS0_20StringStorageDefaultIcEEEE14FilePermission16FileAutoBehavior
5730:__ZN4File19OpenFileSystemEntryERK15FileSystemEntry14FilePermission16FileAutoBehavior
5731:__ZN13FileEntryDataaSERKS_
5732:__ZN12FileAccessor4OpenER15FileSystemEntry14FilePermission16FileAutoBehavior
5733:__ZN12FileAccessorC2Ev
5734:__ZN12FileAccessorD2Ev
5735:__ZN12FileAccessorD0Ev
5736:__ZNK15FileSystemEntry4PathEv
5737:__Z23AsyncReadForceCloseFileRKN4core12basic_stringIcNS_20StringStorageDefaultIcEEEE
5738:__ZN13OpenFileCache10ForceCloseERKN4core12basic_stringIcNS0_20StringStorageDefaultIcEEEE
5739:__ZN14SerializedFileC2ERK10MemLabelId
5740:__ZNK15FileSystemEntry6IsFileEv
5741:__ZNSt3__27__sort4IRNS_6__lessI14ObjectLoadDataS2_EEPS2_EEjT0_S6_S6_S6_T_
5742:__ZNSt3__27__sort5IRNS_6__lessI14ObjectLoadDataS2_EEPS2_EEjT0_S6_S6_S6_S6_T_
5743:__ZNSt3__218__insertion_sort_3IRNS_6__lessI14ObjectLoadDataS2_EEPS2_EEvT0_S6_T_
5744:__ZNSt3__227__insertion_sort_incompleteIRNS_6__lessI14ObjectLoadDataS2_EEPS2_EEbT0_S6_T_
5745:__ZN6Object18RegisterInstanceIDEPS_
5746:__Z16CanDestroyObjectP6Objectb
5747:__Z31DestroyObjectHighLevel_InternalP6Objectb
5748:__ZN10GameObject17GetComponentIndexEPN5Unity9ComponentE
5749:__ZN10GameObject22RemoveComponentAtIndexEi
5750:__ZL19PreDestroyRecursiveR10GameObjectPm
5751:__ZNK10GameObject20QueryComponentByTypeEPKN5Unity4TypeE
5752:__ZNK9Transform11IsSceneRootEv
5753:__ZN9Transform8GetSceneEv
5754:__ZN10UnityScene19RemoveRootFromSceneER9Transformb
5755:__ZN9Transform16RemoveFromParentENS_20RemoveFromParentModeE
5756:__Z17CreateBatchDeleteR11BatchDeletem
5757:__ZL26DestroyGameObjectRecursiveR10GameObjectR11BatchDelete
5758:__Z17CommitBatchDeleteR11BatchDelete
5759:__Z28delete_object_internal_step2P6Object
5760:__ZN32TransformHierarchyChangeDispatch26DispatchSelfAndAllChildrenE15TransformAccessNS_12InterestTypeE
5761:__ZN17TransformInternal25DestroyTransformHierarchyEP18TransformHierarchy
5762:__ZN17TransformInternal21DetachTransformThreadER18TransformHierarchyjj
5763:__ZN17TransformInternal19FreeTransformThreadER18TransformHierarchyjj
5764:__ZN17TransformInternal27UpdateDeepChildCountUpwardsER18TransformHierarchyii
5765:__ZN32TransformHierarchyChangeDispatch22DispatchSelfAndParentsE15TransformAccessNS_12InterestTypeE
5766:__ZN5Unity9Component14SendMessageAnyERK17MessageIdentifierR11MessageData
5767:__ZN10GameObject14SendMessageAnyERK17MessageIdentifierR11MessageData
5768:__Z24GetExecutionRestrictionsv
5769:__ZN16MessageForwarder13HandleMessageEPviR11MessageData
5770:__ZN23TransformChangeDispatch24RemoveTransformHierarchyER18TransformHierarchy
5771:__ZN10GameObject21WillDestroyGameObjectEv
5772:__Z19CanReplaceComponentRN5Unity9ComponentEPKNS_4TypeEPN4core12basic_stringIcNS5_20StringStorageDefaultIcEEEE
5773:__Z34FindRequiredComponentsForComponentPKN5Unity4TypeE
5774:__Z24GetComponentOrScriptNameRN5Unity9ComponentE
5775:__ZNK22SerializableManagedRef18GetScriptClassNameEv
5776:__Z10AppendImplPKcS0_mmRN4core12basic_stringIcNS1_20StringStorageDefaultIcEEEE
5777:__Z25InitComponentRequirementsv
5778:__ZNSt3__26__treeINS_12__value_typeIPKN5Unity4TypeE10vector_setIS5_NS_4lessIS5_EENS_9allocatorIS5_EEEEENS_19__map_value_compareIS5_SC_S8_Lb1EEE13stl_allocatorISC_L18MemLabelIdentifier56ELi16EEE25__emplace_unique_key_argsIS5_JRKNS_21piecewise_construct_tENS_5tupleIJRKS5_EEENSN_IJEEEEEENS_4pairINS_15__tree_iteratorISC_PNS_11__tree_nodeISC_PvEElEEbEERKT_DpOT0_
5779:__ZNSt3__26__treeINS_12__value_typeIPKN5Unity4TypeE10vector_setIS5_NS_4lessIS5_EENS_9allocatorIS5_EEEEENS_19__map_value_compareIS5_SC_S8_Lb1EEE13stl_allocatorISC_L18MemLabelIdentifier56ELi16EEE7destroyEPNS_11__tree_nodeISC_PvEE
5780:__Z17GetCoreModuleSpecv
5781:__Z38InitComponentRequirementsForModuleSpecRK10ModuleSpec
5782:__ZN13ModuleManager3GetEv
5783:__ZNK5Unity4Type21FindAllDerivedClassesER13dynamic_arrayIPKS0_Lm0EENS0_17TypeFilterOptionsE
5784:__ZNSt3__26vectorIPKN5Unity4TypeE13stl_allocatorIS4_L18MemLabelIdentifier56ELi16EEE6assignIPS4_EENS_9enable_ifIXaasr21__is_forward_iteratorIT_EE5valuesr16is_constructibleIS4_NS_15iterator_traitsISC_E9referenceEEE5valueEvE4typeESC_SC_
5785:__ZNSt3__26__sortIRNS_4lessIPKN5Unity4TypeEEEPS5_EEvT0_S9_T_
5786:__ZL23AddConflictingClassIMPLPKN5Unity4TypeES2_
5787:__ZNSt3__26vectorIPKN5Unity4TypeE13stl_allocatorIS4_L18MemLabelIdentifier56ELi16EEE6insertENS_11__wrap_iterIPKS4_EERSA_
5788:__ZNSt3__26vectorIPKN5Unity4TypeENS_9allocatorIS4_EEE6insertENS_11__wrap_iterIPKS4_EERS9_
5789:__ZNSt3__27__sort5IRNS_4lessIPKN5Unity4TypeEEEPS5_EEjT0_S9_S9_S9_S9_T_
5790:__ZNSt3__227__insertion_sort_incompleteIRNS_4lessIPKN5Unity4TypeEEEPS5_EEbT0_S9_T_
5791:__ZNK11TypeManager23FindAllRTTIDerivedTypesEPK4RTTIR13dynamic_arrayIS2_Lm0EEb
5792:__ZN24StaticInitializeInternal13ConstructTypeI13ModuleManagerLb0EEEPvS2_RK10MemLabelId
5793:__ZN13ModuleManagerC2Ev
5794:__ZN10UnityScene43RegisterLevelGameManagersWithManagerContextEv
5795:__Z22SetManagerPtrInContextiP6Object
5796:__ZL24StaticInitializeProfilerPv
5797:__ZL21StaticCleanupProfilerPv
5798:__ZN9profiling8Profiler8ShutdownEv
5799:__ZN9profiling15ProfilerManager8ShutdownEv
5800:__Z26CleanupMemoryProfilerStatsv
5801:__ZN9profiling15ProfilerManagerD2Ev
5802:__ZN22ForwardLinearAllocatorD2Ev
5803:__ZN9profiling8ProfilerD2Ev
5804:__ZN9profiling10Dispatcher7DisableEjb
5805:__ZN9profiling14DispatchStream30SetEnabledAndEmitProfilerStateEbj
5806:__ZN9profiling10Dispatcher20RemoveDispatchStreamEPNS_14DispatchStreamE
5807:__ZN9profiling10Dispatcher4StopEv
5808:__ZN9profiling19DispatchBuffersPoolD2Ev
5809:__ZN9profiling10DispatcherD2Ev
5810:__ZN9profiling14DispatchStream21ReleasePendingBuffersEv
5811:__ZN9profiling10Dispatcher17ReleaseFreeBufferEPNS_14DispatchBufferE
5812:__ZN9profiling14DispatchStream15WriteGlobalDataEv
5813:__ZN9profiling16BufferSerializer5FlushEv
5814:__ZN9profiling14DispatchStream19WritePendingBuffersEv
5815:__Z35GetTimeToNanosecondsConversionRatiov
5816:__ZN9profiling14DispatchStream16WriteThreadInfosEv
5817:__ZN9profiling14DispatchStream17WriteSamplerInfosEv
5818:__ZN9profiling14DispatchStream12WriteJitDataEv
5819:__ZN9profiling20GetScriptingProfilerEv
5820:__ZN9profiling14DispatchStream15OnMethodJitDoneEPNS_17ScriptingProfiler10MethodDataEPv
5821:__ZN9profiling17ScriptingProfiler28RegisterOnStoreMethodJitDataEPFvPNS0_10MethodDataEPvES3_
5822:__ZN9profiling14DispatchStream17EmitJitMethodInfoEPNS_17ScriptingProfiler10MethodDataE
5823:__ZN9profiling17ScriptingProfiler21WalkScriptingMetaDataEv
5824:__ZN19dynamic_block_arrayIN9profiling17ScriptingProfiler10MethodDataELm512EE12emplace_backEv
5825:__ZN19dynamic_block_arrayIN9profiling17ScriptingProfiler10MethodDataELm512EE4growEm
5826:__ZN13dynamic_arrayIN9profiling17ScriptingProfiler10MethodDataELm0EE4growEv
5827:__ZN9profiling14DispatchStream23OnCreateSamplerCallbackEPNS_6MarkerEPv
5828:__ZN9profiling14DispatchStream14EmitMarkerInfoEPNS_6MarkerE
5829:__ZNK9profiling8Profiler14GetThreadInfosER13dynamic_arrayINS_5proto10ThreadInfoELm0EE
5830:__ZN13dynamic_arrayIN9profiling5proto10ThreadInfoELm0EED2Ev
5831:__ZN9profiling14DispatchStream14EmitThreadInfoEyRKN4core12basic_stringIcNS1_20StringStorageDefaultIcEEEES7_j
5832:__ZN13dynamic_arrayIN9profiling5proto10ThreadInfoELm0EE18resize_initializedEm12ResizePolicy
5833:__ZN13dynamic_arrayIN9profiling5proto10ThreadInfoELm0EE4growEv
5834:__ZN13dynamic_arrayIN9profiling5proto10ThreadInfoELm0EE21resize_buffer_nocheckEm12ResizePolicy
5835:__ZN9profiling10Dispatcher11WriteBufferEPNS_14DispatchBufferE
5836:__ZN9profiling14DispatchStream5WriteEPKNS_14DispatchBufferE
5837:__Z19profiler_initializev
5838:__Z29InitializeMemoryProfilerStatsv
5839:__ZN9profiling15ProfilerManager10InitializeEv
5840:__ZN13string_traitsIA23_cE8get_sizeERA23_Kc
5841:__Z7HasARGVRKN4core16basic_string_refIcEE
5842:__Z20GetFirstValueForARGVRKN4core16basic_string_refIcEE
5843:__ZNK10BootConfig4Data6HasKeyEPKc
5844:__ZNK10BootConfig4Data8GetValueEPKcm
5845:__ZNK10BootConfig15ParameterParserIjE5ParseEPKcj
5846:__Z9IsTestRunv
5847:__Z11IsAutomatedv
5848:__ZNK10BootConfig15ParameterParserIbE5ParseEPKcb
5849:__ZN9profiling8Profiler10InitializeEbm
5850:__ZN9profiling8ProfilerC2ERK10MemLabelId
5851:__ZN9profiling19DispatchBuffersPool20SetMaxUsedMemorySizeEm
5852:__ZN9profiling8Profiler35InitializeStartupProfilingToLogFileEv
5853:__ZN9profiling8Profiler34SetProfilerConnectionStreamEnabledEb
5854:__Z20profiler_set_enabledb
5855:__ZN9profiling8Profiler16SetProfilingModeE13ProfilerModes
5856:__ZN9profiling17ScriptingProfiler31UpdateRegisteredScriptingEventsEv
5857:__Z29scripting_profiler_set_eventsi
5858:__ZN9profiling8Profiler10SetEnabledEb
5859:__ZN9profiling10Dispatcher6EnableEj
5860:__ZN9profiling19DispatchBuffersPool18PreallocateBuffersEv
5861:__ZN9profiling10Dispatcher17AddDispatchStreamEPNS_14DispatchStreamE
5862:__ZN9profiling32ProfilerConnectionDispatchStreamC2E10MemLabelIdPNS_8ProfilerEPNS_15ProfilerManagerEPNS_10DispatcherE
5863:__ZN9profiling16BufferSerializerC2Ev
5864:__ZN9profiling14DispatchStreamD2Ev
5865:__ZN9profiling32ProfilerConnectionDispatchStreamD0Ev
5866:__ZN9profiling14DispatchStream13AcquireBufferEm
5867:__ZN9profiling14DispatchStream13ReleaseBufferEPNS_14DispatchBufferE
5868:__ZN9profiling32ProfilerConnectionDispatchStream10WriteBlockEPKhm
5869:__ZN18ProfilerConnection21SendFrameDataToEditorEPKvm
5870:__ZN16PlayerConnection3GetEv
5871:__ZN17GeneralConnection11SendMessageEj9UnityGUIDPKvjNS_8SendModeE
5872:__ZN17GeneralConnection10Connection19SendMessageInternalERNS_14NetworkMessageEPKvNS_8SendModeE
5873:__ZN17GeneralConnection10Connection15SendPendingDataENS_8SendModeE
5874:__ZN9profiling17ScriptingProfiler30UnRegisterOnStoreMethodJitDataEPFvPNS0_10MethodDataEPvES3_
5875:__ZN13dynamic_arrayIN9profiling17ScriptingProfiler10MethodDataELm0EED2Ev
5876:__ZNK10BootConfig15ParameterParserIPKcE5ParseES2_S2_
5877:__ZN9profiling8Profiler17SetUserFileStreamERKN4core12basic_stringIcNS1_20StringStorageDefaultIcEEEE
5878:__ZN9profiling8Profiler24SetUserFileStreamEnabledEb
5879:__ZN9profiling8Profiler24SetFileForUserFileStreamER15FileSystemEntry
5880:__ZN9profiling18FileDispatchStream10InitializeER15FileSystemEntry
5881:__ZN9profiling18FileDispatchStreamC2E10MemLabelIdPNS_8ProfilerEPNS_15ProfilerManagerEPNS_10DispatcherE
5882:__ZN9profiling18FileDispatchStreamD2Ev
5883:__ZN9profiling18FileDispatchStreamD0Ev
5884:__ZN9profiling18FileDispatchStream10WriteBlockEPKhm
5885:__ZN12FileAccessor5WriteEyPKvPy
5886:__Z8EndsWithPKcmS0_m
5887:__ZN9profiling8Profiler29OnUsedMemoryThresholdCallbackEbPv
5888:__ZN9profiling19DispatchBuffersPool32SetOnUsedMemoryThresholdCallbackEPFvbPvES1_
5889:__ZN9profiling8Profiler28ApplyMarkerFilteringCallbackEPK23UnityProfilerMarkerDescttPK23UnityProfilerMarkerDataPv
5890:__ZN9profiling10DispatcherC2E10MemLabelIdPNS_19DispatchBuffersPoolEb
5891:__ZN9profiling19DispatchBuffersPoolC2E10MemLabelIdmm
5892:__Z8StrNICmpPKcS0_m
5893:__Z16GetValuesForARGVRKN4core16basic_string_refIcEE
5894:__ZN4coreplIcEENS_12basic_stringIT_NS_20StringStorageDefaultIS2_EEEEPKS2_RKNS_16basic_string_refIS2_EE
5895:__ZN9profiling15ProfilerManagerC2ERK10MemLabelId
5896:__ZN9profiling15ProfilerManager16RegisterBuiltinsEv
5897:__ZN9profiling6Marker19GetLastStaticMarkerEv
5898:__ZN13RuntimeStaticI25GetTimeSinceStartupHelperLb0EE16StaticInitializeEPv
5899:__ZN24StaticInitializeInternal13ConstructTypeI25GetTimeSinceStartupHelperLb0EEEPvS2_RK10MemLabelId
5900:_Baselib_Timer_GetTimeSinceStartupInSeconds
5901:__ZN26FormatArgMapTypeHelperBaseIPKcLb1EE18FormatArgFormatterERN4core12basic_stringIcNS3_20StringStorageDefaultIcEEEENS3_16basic_string_refIcEEPKPKv
5902:__ZN26FormatArgMapTypeHelperBaseIiLb1EE18FormatArgFormatterERN4core12basic_stringIcNS1_20StringStorageDefaultIcEEEENS1_16basic_string_refIcEEPKPKv
5903:__ZN4core13FormatValueToERNS_12basic_stringIcNS_20StringStorageDefaultIcEEEERKiNS_16basic_string_refIcEE
5904:__ZN21ComponentRequirements16StaticInitializeEPv
5905:__ZN21ComponentRequirements13StaticDestroyEPv
5906:__ZN13RuntimeStaticI19EndOfFrameCallbacksLb0EE16StaticInitializeEPv
5907:__ZN13RuntimeStaticI19EndOfFrameCallbacksLb0EE13StaticDestroyEPv
5908:__ZN13RuntimeStaticI29DeprecatedFrameStatsRecordersLb0EE16StaticInitializeEPv
5909:__ZN13RuntimeStaticI29DeprecatedFrameStatsRecordersLb0EE13StaticDestroyEPv
5910:__ZN22BuiltinResourceManager16StaticInitializeEPv
5911:__ZN22BuiltinResourceManager13StaticDestroyEPv
5912:__ZN13RuntimeStaticI29DeprecatedFrameStatsRecordersLb0EE7DestroyEv
5913:__ZN24StaticInitializeInternal13ConstructTypeI29DeprecatedFrameStatsRecordersLb0EEEPvS2_RK10MemLabelId
5914:__ZN13RuntimeStaticI19EndOfFrameCallbacksLb0EE7DestroyEv
5915:__ZN19EndOfFrameCallbacks8DequeAllEv
5916:__ZN24StaticInitializeInternal13ConstructTypeI19EndOfFrameCallbacksLb0EEEPvS2_RK10MemLabelId
5917:__ZN13RuntimeStaticI21AssetReferenceStorageLb0EE16StaticInitializeEPv
5918:__ZN13RuntimeStaticI21AssetReferenceStorageLb0EE13StaticDestroyEPv
5919:__Z22CleanupCachingManagersPv
5920:__ZL19StaticCleanupPlayerPv
5921:__ZN13RuntimeStaticI19UnityPluginRegistryLb0EE16StaticInitializeEPv
5922:__ZN13RuntimeStaticI19UnityPluginRegistryLb0EE13StaticDestroyEPv
5923:__ZN13RuntimeStaticINSt3__23mapIN4core12basic_stringIcNS2_20StringStorageDefaultIcEEEES6_NS0_4lessIS6_EE13stl_allocatorINS0_4pairIKS6_S6_EEL18MemLabelIdentifier16ELi16EEEELb0EE16StaticInitializeEPv
5924:__ZN13RuntimeStaticINSt3__23mapIN4core12basic_stringIcNS2_20StringStorageDefaultIcEEEES6_NS0_4lessIS6_EE13stl_allocatorINS0_4pairIKS6_S6_EEL18MemLabelIdentifier16ELi16EEEELb0EE13StaticDestroyEPv
5925:__ZNSt3__26__treeINS_12__value_typeIN4core12basic_stringIcNS2_20StringStorageDefaultIcEEEES6_EENS_19__map_value_compareIS6_S7_NS_4lessIS6_EELb1EEE13stl_allocatorIS7_L18MemLabelIdentifier16ELi16EEE7destroyEPNS_11__tree_nodeIS7_PvEE
5926:__ZN24StaticInitializeInternal13ConstructTypeI19UnityPluginRegistryLb0EEEPvS2_RK10MemLabelId
5927:__ZN15FileSystemEntry6DeleteEb
5928:__ZN21AssetReferenceStorageD2Ev
5929:__ZN21AssetReferenceStorage22GarbageCollectCallbackEPS_R27GarbageCollectorThreadState
5930:__ZN24StaticInitializeInternal13ConstructTypeI21AssetReferenceStorageLb0EEEPvS2_RK10MemLabelId
5931:__ZN21AssetReferenceStorageC2Ev
5932:__ZL17InitScriptingRandPv
5933:__ZL20CleanupScriptingRandPv
5934:__ZN4Rand14RandomizeStateEv
5935:__Z24GetCurrentTimeAsDateTimev
5936:__Z32GetUnityBuildFullVersionNoSpacesv
5937:__ZN10SpookyHash7Hash128EPKvmPyS2_
5938:__ZNK7Hash12812PackToUInt64Ev
5939:__ZN10systeminfo25GetDeviceUniqueIdentifierEv
5940:__ZN10SpookyHash5ShortEPKvmPyS2_
5941:__ZL30InitializeHalfConversionTablesPv
5942:__ZN10AtomicNode4LinkEPS_
5943:__ZL30InitializeRegisterDomainReloadPv
5944:__Z27CleanupAllJobReflectionDatav
5945:__ZN13RuntimeStaticI22ThreadSharedObjectPoolI26ScriptableShadowCasterDataELb1EE16StaticInitializeEPv
5946:__ZN13RuntimeStaticI22ThreadSharedObjectPoolI26ScriptableShadowCasterDataELb1EE13StaticDestroyEPv
5947:__ZN22ThreadSharedObjectPoolI26ScriptableShadowCasterDataE5ClearEv
5948:__ZN26ScriptableShadowCasterDataD2Ev
5949:__ZN26ScriptableShadowCasterData14OnReturnToPoolEv
5950:__ZN15RenderNodeQueueD2Ev
5951:__ZN15RenderNodeQueue5ResetEb
5952:__ZN19AtomicPageAllocatorD2Ev
5953:__ZNK15RenderNodeQueue22InvokeCleanupCallbacksEv
5954:__ZN24StaticInitializeInternal13ConstructTypeI22ThreadSharedObjectPoolI26ScriptableShadowCasterDataELb1EEEPvS4_RK10MemLabelId
5955:__ZN23DefaultMeshVertexFormatC2ERK18VertexChannelsInfo
5956:__ZN13RuntimeStaticI23MeshVertexFormatManagerLb0EE16StaticInitializeEPv
5957:__ZN13RuntimeStaticI23MeshVertexFormatManagerLb0EE13StaticDestroyEPv
5958:__ZNSt3__26__treeINS_12__value_typeI18VertexChannelsInfo16MeshVertexFormatEENS_19__map_value_compareIS2_S4_NS_4lessIS2_EELb1EEE13stl_allocatorIS4_L18MemLabelIdentifier20ELi16EEE7destroyEPNS_11__tree_nodeIS4_PvEE
5959:__ZN23DynamicVBOBufferManager26CleanupThreadLocalDataListEPv
5960:__Z25InitializeLODGroupManagerPv
5961:__Z22CleanupLODGroupManagerPv
5962:__ZN15LODGroupManagerD2Ev
5963:__ZN17UniqueIDGenerator7CleanupEv
5964:__ZN23TransformChangeDispatch16UnregisterSystemER27TransformChangeSystemHandle
5965:__ZN17UniqueIDGenerator16DestroyPureIndexEj
5966:__ZN17UniqueIDGenerator15CreatePureIndexEv
5967:__ZN13dynamic_arrayIN15LODGroupManager12LODGroupDescELm0EE4growEv
5968:__ZN23TransformChangeDispatch14RegisterSystemEPKcNS_12InterestTypeE
5969:__ZN21BillboardBatchManager16StaticInitializeEPv
5970:__ZN21BillboardBatchManager13StaticCleanupEPv
5971:__Z28BuildSingleStreamChannelInfoR18VertexChannelsInfoRK22VertexAttributeFormats17ShaderChannelMaskS4_
5972:__Z26GetMeshVertexFormatManagerv
5973:__ZN23MeshVertexFormatManager19GetMeshVertexFormatERK18VertexChannelsInfo
5974:__ZN16MeshVertexFormatC2ERK18VertexChannelsInfo
5975:__ZNSt3__26__treeINS_12__value_typeI18VertexChannelsInfo16MeshVertexFormatEENS_19__map_value_compareIS2_S4_NS_4lessIS2_EELb1EEE13stl_allocatorIS4_L18MemLabelIdentifier20ELi16EEE30__emplace_hint_unique_key_argsIS2_JNS_4pairIKS2_S3_EEEEENS_15__tree_iteratorIS4_PNS_11__tree_nodeIS4_PvEElEENS_21__tree_const_iteratorIS4_SL_lEERKT_DpOT0_
5976:__ZNSt3__26__treeINS_12__value_typeI18VertexChannelsInfo16MeshVertexFormatEENS_19__map_value_compareIS2_S4_NS_4lessIS2_EELb1EEE13stl_allocatorIS4_L18MemLabelIdentifier20ELi16EEE12__find_equalIS2_EERPNS_16__tree_node_baseIPvEENS_21__tree_const_iteratorIS4_PNS_11__tree_nodeIS4_SF_EElEERPNS_15__tree_end_nodeISH_EESI_RKT_
5977:__ZL28InitializeAsyncUploadTexturePv
5978:__ZL26ShutdownAsyncUploadTexturePv
5979:__ZN16DiagnosticSwitchIbE18SetValueFromStringEPKc
5980:__ZN16DiagnosticSwitchIbE20ApplyPersistentValueEv
5981:__ZN16DiagnosticSwitchIbE20CollectScriptingInfoERN20DiagnosticSwitchBase13ScriptingInfoE
5982:__ZN16DiagnosticSwitchIbE24UpdateFromScriptingValueE18ScriptingObjectPtrbP21ScriptingExceptionPtr
5983:__ZN16DiagnosticSwitchIbE18SetPersistentValueEb
5984:__Z30CreateBoxedObjectFromPrimitiveb
5985:__ZN16DiagnosticSwitchIbE18GetPersistentValueEv
5986:__Z14IsStringNumberPKc
5987:__ZN18ConcurrentFreeListI24TextureUploadInstructionE7CleanUpEv
5988:__ZN18ConcurrentFreeListI24TextureDeleteInstructionE7CleanUpEv
5989:__ZN24TextureUploadInstructionC2Ev
5990:__ZN18AsyncUploadManager16StaticInitializeEPv
5991:__ZN18AsyncUploadManager13StaticDestroyEPv
5992:__ZN13RuntimeStaticIN4core8hash_mapIiiNS0_4hashIiEENSt3__28equal_toIiEEEELb0EE16StaticInitializeEPv
5993:__ZN13RuntimeStaticIN4core8hash_mapIiiNS0_4hashIiEENSt3__28equal_toIiEEEELb0EE13StaticDestroyEPv
5994:__ZN18AsyncUploadManagerD2Ev
5995:__ZN14QueueAllocatorD2Ev
5996:__ZN18AsyncUploadManagerC2E10MemLabelId
5997:__ZN13RuntimeStaticI19MemorylessRequesterLb0EE16StaticInitializeEPv
5998:__ZN13RuntimeStaticI19MemorylessRequesterLb0EE13StaticDestroyEPv
5999:__ZN13RuntimeStaticI19MemorylessRequesterLb0EE7DestroyEv
6000:__ZL33MemorylessRequesterDidUnloadScenei
6001:__ZN24StaticInitializeInternal13ConstructTypeI19MemorylessRequesterLb0EEEPvS2_RK10MemLabelId
6002:__ZN19MemorylessRequesterC2Ev
6003:__ZL38StaticRegister_LightmapSettingsManagerPv
6004:__ZL33StaticUnregister_LightmapSettingsPv
6005:__Z14DidUnloadScenei
6006:__Z21SceneLoadedAfterAwakeiR18AwakeFromLoadQueue16SceneLoadingMode
6007:__Z20DidChangeActiveSceneP10UnitySceneS0_
6008:__ZL12WipeSettingsv
6009:__ZN7Hash1285ResetEv
6010:__ZNK10UnityScene19GetLevelGameManagerEi
6011:__ZN16LightmapSettings8CopyFromEPKS_
6012:__ZN21EnlightenSceneMappingaSERKS_
6013:__ZN16LightmapSettings7RebuildEv
6014:__ZN16LightmapSettings28SetDynamicGILightmapTexturesEPK22RealtimeLightmapIDDatam
6015:__Znam
6016:__ZN10builtintex17GetBlackTextureIDEv
6017:__ZN13dynamic_arrayI28EnlightenRendererInformationLm0EE21resize_buffer_nocheckEm12ResizePolicy
6018:__ZN13dynamic_arrayI26EnlightenSystemInformationLm0EE21resize_buffer_nocheckEm12ResizePolicy
6019:__ZNSt3__26vectorINS_4pairIijEENS_9allocatorIS2_EEE6assignIPS2_EENS_9enable_ifIXaasr21__is_forward_iteratorIT_EE5valuesr16is_constructibleIS2_NS_15iterator_traitsIS9_E9referenceEEE5valueEvE4typeES9_S9_
6020:__ZN4core8hash_mapIiP16LightmapSettingsNS_4hashIiEENSt3__28equal_toIiEEEixERKi
6021:__ZN16LightmapSettings14GetLightProbesEv
6022:__Z19GetLightmapSettingsv
6023:__ZN16LightmapSettings24GetEnlightenSceneMappingEv
6024:__ZN16LightmapSettings15AppendLightmapsEiRK13dynamic_arrayI12LightmapDataLm0EE
6025:__ZN21EnlightenSceneMapping14SetSceneHandleEi
6026:__ZN21EnlightenSceneMapping6AppendEiRKS_
6027:__Z21GetLightProbesManagerv
6028:__ZN18LightProbesManager6AppendEP11LightProbes
6029:__ZN16LightmapSettings14SetSceneHandleEi
6030:__ZN18LightProbesManager5ClearEv
6031:__ZN14LightProbeDataC2E10MemLabelId
6032:__ZN11LightProbes14LightProbeData5ClearEv
6033:__ZN26ProbeSetTetrahedralization5ClearEv
6034:__Z26GetLightmapSettingsManagerv
6035:__ZN23LightmapSettingsManager25GetMergedLightmapSettingsEv
6036:__Z24InitializeMainSceneRangeiiiR13dynamic_arrayI10SceneRangeLm0EE
6037:__ZN4core8hash_mapI7Hash128iNS_4hashIS1_EENSt3__28equal_toIS1_EEEixERKS1_
6038:__ZN13dynamic_arrayI16LightProbeOffsetLm0EE4growEv
6039:__ZN4core8hash_setI7Hash128NS_4hashIS1_EENSt3__28equal_toIS1_EEEaSERKS7_
6040:__ZN13dynamic_arrayI20SphericalHarmonicsL2Lm0EE21resize_buffer_nocheckEm12ResizePolicy
6041:__ZN13dynamic_arrayI13ProbeSetIndexLm0EE21resize_buffer_nocheckEm12ResizePolicy
6042:__ZNSt3__26vectorINS_4pairI7Hash128iEE13stl_allocatorIS3_L18MemLabelIdentifier86ELi16EEE6insertENS_11__wrap_iterIPKS3_EERS9_
6043:__ZN4core8hash_setI7Hash128NS_4hashIS1_EENSt3__28equal_toIS1_EEE6insertIRKS1_EENS_4pairINS7_13node_iteratorIS1_EEbLb0EEEOT_
6044:__ZN13dynamic_arrayI11TetrahedronLm0EE21resize_buffer_nocheckEm12ResizePolicy
6045:__ZN4core8hash_setINS_4pairIK7Hash128P11LightProbesLb0EEENS_9hash_pairINS_4hashIS2_EES3_S5_EENS_10equal_pairINSt3__28equal_toIS2_EES3_S5_EEE4growEi
6046:__ZN4core8hash_setI7Hash128NS_4hashIS1_EENSt3__28equal_toIS1_EEE4growEi
6047:__ZNSt3__26vectorINS_4pairIijEENS_9allocatorIS2_EEE21__push_back_slow_pathIS2_EEvOT_
6048:__ZN13sorted_vectorINSt3__24pairIijEEN10vector_mapIijNS0_4lessIiEENS0_9allocatorIS2_EEE13value_compareES7_E21sort_clear_duplicatesEv
6049:__ZnwmRKSt9nothrow_t
6050:__ZNSt3__213__stable_sortIRN10vector_mapIijNS_4lessIiEENS_9allocatorINS_4pairIijEEEEE13value_compareENS_11__wrap_iterIPS6_EEEEvT0_SE_T_NS_15iterator_traitsISE_E15difference_typeEPNSH_10value_typeEl
6051:__ZNSt3__218__stable_sort_moveIRN10vector_mapIijNS_4lessIiEENS_9allocatorINS_4pairIijEEEEE13value_compareENS_11__wrap_iterIPS6_EEEEvT0_SE_T_NS_15iterator_traitsISE_E15difference_typeEPNSH_10value_typeE
6052:__ZNSt3__215__inplace_mergeIRN10vector_mapIijNS_4lessIiEENS_9allocatorINS_4pairIijEEEEE13value_compareENS_11__wrap_iterIPS6_EEEEvT0_SE_SE_T_NS_15iterator_traitsISE_E15difference_typeESI_PNSH_10value_typeEl
6053:__ZNSt3__224__buffered_inplace_mergeIRN10vector_mapIijNS_4lessIiEENS_9allocatorINS_4pairIijEEEEE13value_compareENS_11__wrap_iterIPS6_EEEEvT0_SE_SE_T_NS_15iterator_traitsISE_E15difference_typeESI_PNSH_10value_typeE
6054:__Z16AppendSceneRangeiiiiiR13dynamic_arrayI10SceneRangeLm0EE
6055:__Z15GetSceneManagerv
6056:__ZNK19RuntimeSceneManager19GetLoadedSceneCountEv
6057:__ZNK23LightmapSettingsManager14GetLightProbesEi
6058:__ZN18LightProbesManager6RemoveEP11LightProbes
6059:__ZN23LightmapSettingsManager19RemoveSceneSettingsEi
6060:__ZNK21EnlightenSceneMapping14FindSceneIndexEi
6061:__ZN21EnlightenSceneMapping5EraseEi
6062:__ZN16LightmapSettings15RemoveLightmapsEi
6063:__Z26ExtractAllRenderersInSceneR13dynamic_arrayIP8RendererLm0EE
6064:__Z25ExtractAllTerrainsInSceneR13dynamic_arrayIP7TerrainLm0EE
6065:__ZN6Object17FindObjectsOfTypeEPKN5Unity4TypeER13dynamic_arrayIPS_Lm0EEb
6066:__ZL31FindObjectsOfTypeImplementationPN4core8hash_setIP6ObjectNS_4hashIS2_EENSt3__28equal_toIS2_EEEEPKN5Unity4TypeER13dynamic_arrayIS2_Lm0EE
6067:__ZNSt3__26__sortIR17CompareInstanceIDPP6ObjectEEvT0_S6_T_
6068:__ZNSt3__27__sort5IR17CompareInstanceIDPP6ObjectEEjT0_S6_S6_S6_S6_T_
6069:__ZNSt3__227__insertion_sort_incompleteIR17CompareInstanceIDPP6ObjectEEbT0_S6_T_
6070:__Z14FindSceneIndexRK13dynamic_arrayI10SceneRangeLm0EEi
6071:__ZL33StaticRegister_LightProbesManagerPv
6072:__ZL35StaticUnregister_LightProbesManagerPv
6073:__ZN13dynamic_arrayI16LightProbeOffsetLm0EED2Ev
6074:__ZN18LightProbesManagerC2Ev
6075:__ZN13RuntimeStaticI17UniqueIDGeneratorLb1EE16StaticInitializeEPv
6076:__Z37InitializeIntermediateRendererManagerPv
6077:__Z34CleanupIntermediateRendererManagerPv
6078:__ZN27IntermediateRendererManagerD2Ev
6079:__ZN27IntermediateRendererManager27RemoveIntermediateRenderersEi
6080:__ZN21IntermediateRenderers5ClearEm
6081:__ZN24StaticInitializeInternal13ConstructTypeI17UniqueIDGeneratorLb1EEEPvS2_RK10MemLabelId
6082:__ZN13RuntimeStaticI10WatermarksLb0EE16StaticInitializeEPv
6083:__ZN11MatrixStack5ResetEv
6084:__ZL31InitializeRendererUpdateManagerPv
6085:__ZL28CleanupRendererUpdateManagerPv
6086:__ZN21RendererUpdateManagerD2Ev
6087:__ZN10Matrix4x4f11SetIdentityEv
6088:__ZN24StaticInitializeInternal13ConstructTypeI10WatermarksLb0EEEPvS2_RK10MemLabelId
6089:__ZN15GlobalCallbacksC2Ev
6090:__ZN17CommonStringTable16StaticInitializeEPv
6091:__ZN17CommonStringTable13StaticCleanupEPv
6092:__ZN17CommonStringTableD2Ev
6093:__ZN17CommonStringTableC2ERK10MemLabelId
6094:__ZL24CleanupPrepassRenderLoopPv
6095:__ZL17CleanupGUITexturePv
6096:__ZN19CullingGroupManager15InitializeClassEPv
6097:__ZN19CullingGroupManager12CleanupClassEPv
6098:___cxx_global_var_init_1856
6099:___cxx_global_var_init_1_1857
6100:___cxx_global_var_init_2_1858
6101:___cxx_global_var_init_3
6102:___cxx_global_var_init_5_1859
6103:___cxx_global_var_init_6_1860
6104:___cxx_global_var_init_8
6105:___cxx_global_var_init_16_3634
6106:___cxx_global_var_init_18_1861
6107:___cxx_global_var_init_20
6108:___cxx_global_var_init_22
6109:___cxx_global_var_init_24_1862
6110:___cxx_global_var_init_26
6111:___cxx_global_var_init_28
6112:___cxx_global_var_init_30
6113:___cxx_global_var_init_32
6114:__ZL14CleanupShadowsPv
6115:__ZN9ShaderLab16FastPropertyNameC2EPKc
6116:__ZN11ColorRGBA32C2Ehhhh
6117:__ZNK11ColorRGBA32cv10ColorRGBAfEv
6118:__Z16ByteToNormalizedi
6119:__ZN13RuntimeStaticI13dynamic_arrayIP6CameraLm0EELb0EE16StaticInitializeEPv
6120:__ZL33CleanupCubemapGPUUtilityMaterialsPv
6121:__ZL25CleanupImageFilterGlobalsPv
6122:__ZN13RuntimeStaticI13RendererSceneLb0EE16StaticInitializeEPv
6123:__ZN13RuntimeStaticI13RendererSceneLb0EE13StaticDestroyEPv
6124:__ZN13RuntimeStaticI33ScriptableRuntimeReflectionSystemLb0EE16StaticInitializeEPv
6125:__ZN13RuntimeStaticI29ScriptingInstanceDirtyWrapperLb0EE16StaticInitializeEPv
6126:__ZN24StaticInitializeInternal13ConstructTypeI29ScriptingInstanceDirtyWrapperLb0EEEPvS2_RK10MemLabelId
6127:__ZN24StaticInitializeInternal13ConstructTypeI33ScriptableRuntimeReflectionSystemLb0EEEPvS2_RK10MemLabelId
6128:__ZN13RendererSceneD2Ev
6129:__Z29GetOcclusionPortalManagerListv
6130:__ZN13RendererScene14RemoveRendererEi
6131:__ZN13RendererScene28SceneAfterCullingOutputReadyEPK9IndexListPK16RendererCullData
6132:__ZN13RendererScene16UpdateVisibilityEPK9IndexList
6133:__ZN24StaticInitializeInternal13ConstructTypeI13RendererSceneLb0EEEPvS2_RK10MemLabelId
6134:__ZN13RendererSceneC2Ev
6135:__ZN21InstancedMeshRenderer16StaticInitializeEPv
6136:__ZN21InstancedMeshRenderer13StaticDestroyEPv
6137:__ZN12LightManager15InitializeClassEPv
6138:__ZN12LightManager12CleanupClassEPv
6139:__ZL30PrepareBatchRendererGroupNodesILb0EEvR35RenderNodeQueuePrepareThreadContext
6140:__ZL30PrepareBatchRendererGroupNodesILb1EEvR35RenderNodeQueuePrepareThreadContext
6141:__ZL46PrepareRenderNodeQueueExtractionCullingContextR29RenderNodeQueuePrepareContext_2794
6142:__ZL32PostRenderCleanupCullingContextsPv
6143:__Z34RegisterPrepareRenderNodesCallbackiPFvR35RenderNodeQueuePrepareThreadContextES2_PFPvR29RenderNodeQueuePrepareContextEPFvS3_ES9_
6144:__ZN19SharedObjectFactoryI27BatchRendererCullingOutputsE7DestroyEPS0_10MemLabelId
6145:__Z28QueuePrepareNodeToMainThreadR35RenderNodeQueuePrepareThreadContext
6146:__Z16CalculateLODFadehhf
6147:__ZN12BaseRenderer16FlattenBasicDataERKS_12LODFadeValueR10RenderNode
6148:__ZN12BaseRenderer18FlattenCustomPropsEPKPK19ShaderPropertySheetiR22PerThreadPageAllocatorR10RenderNode
6149:__Z31GetLightProbeProxyVolumeManagerv
6150:__Z30GetLightProbeProxyVolumeHandleRK28LightProbeProxyVolumeContext4PPtrI21LightProbeProxyVolumeE
6151:__ZN12BaseRenderer16FlattenProbeDataE4PPtrI9TransformERisRK17LightProbeContextR10RenderNode
6152:__ZN12BaseRenderer21FlattenEmptyProbeDataER10RenderNode
6153:__ZN12BaseRenderer28CanFlattenSharedMaterialDataILb1EEEbRKS_
6154:__ZN12BaseRenderer25FlattenSharedMaterialDataILb1EEEvRKS_R22PerThreadPageAllocatorR10RenderNode
6155:__ZN22PerThreadPageAllocator14AcquireNewPageEm
6156:__ZN4Mesh21AcquireSharedMeshDataEv
6157:__ZN4Mesh14GetMeshBuffersER11MeshBuffersPS_S2_
6158:__Z45DrawSingleMeshIntermediateRendererWithCullingRK15RenderNodeQueuej16VertexInputMasksi
6159:__Z61DrawInstancedMeshIntermediateRendererWithInstancingAndCullingRK15RenderNodeQueueRK18RenderMultipleData16VertexInputMasks
6160:__ZL44CleanupMeshInstancedMeshIntermediateRendererR15RenderNodeQueuej
6161:__ZN17MeshRenderingData7ReleaseEv
6162:__ZN21BuiltinInstancingDataD2Ev
6163:__ZN14SharedMeshDataD2Ev
6164:__ZN13dynamic_arrayI17BlendShapeChannelLm0EED2Ev
6165:__ZN10VertexDataD2Ev
6166:__ZN14ConstantStringD2Ev
6167:__ZNK17InstancingBatcher23GetBatchedInstanceCountEjPjS0_S0_S0_
6168:__ZNK17InstancingBatcher15RenderInstancesERK15RenderNodeQueueRK19ShaderPropertySheetRKNS_22RenderInstancesConfigsERK17MeshRenderingDatai16VertexInputMasksiPKiiPKN10Instancing11PropertyMapE
6169:__ZNK17MeshRenderingData11PrepareDrawER9GfxDevice16VertexInputMasksRP17VertexDeclarationR11MeshBuffersR16DrawBuffersRangei
6170:__ZN19ShaderPropertySheet8SetFloatEN9ShaderLab16FastPropertyNameEfNS_8SetFlagsE
6171:__ZZNK17InstancingBatcher15RenderInstancesERK15RenderNodeQueueRK19ShaderPropertySheetRKNS_22RenderInstancesConfigsERK17MeshRenderingDatai16VertexInputMasksiPKiiPKN10Instancing11PropertyMapEEN10CustomData10CbCallbackEjjR8JobFencePPvRKS_SM_
6172:__ZZNK17InstancingBatcher15RenderInstancesERK15RenderNodeQueueRK19ShaderPropertySheetRKNS_22RenderInstancesConfigsERK17MeshRenderingDatai16VertexInputMasksiPKiiPKN10Instancing11PropertyMapEEN10CustomData12DrawCallbackEjjR9GfxDevicePv
6173:__ZNK17InstancingBatcher21CustomRenderInstancesEjPFvjjR8JobFencePPvRKS_S2_EPFvjjR9GfxDeviceS2_ES2_
6174:__ZN19ShaderPropertySheet16SetArrayPropertyEN9ShaderLab16FastPropertyNameE23ShaderPropertySheetTypePKvmNS_8SetFlagsE
6175:__ZN19ShaderPropertySheet35SetTextureWithNoAuxiliaryPropertiesEN9ShaderLab16FastPropertyNameE9TextureID16TextureDimension14VRTextureUsage
6176:__ZN19ShaderPropertySheet16SetComputeBufferEN9ShaderLab16FastPropertyNameE15ComputeBufferIDNS_8SetFlagsE
6177:__ZN19ShaderPropertySheet27AddNewPropertyUninitializedEN9ShaderLab16FastPropertyNameE23ShaderPropertySheetTypej
6178:__ZN13dynamic_arrayIhLm4EE21resize_buffer_nocheckEm12ResizePolicy
6179:__ZN9ShaderLab6TexEnv14SetTextureInfoE9TextureID16TextureDimension14VRTextureUsage19TextureSamplingTypeRKNS_16FastPropertyNameE
6180:__ZNK9ShaderLab16FastPropertyName7GetNameEv
6181:__Z25GetBuiltinVectorParamNamei
6182:__Z25GetBuiltinMatrixParamNamei
6183:__Z25GetBuiltinTexEnvParamNamei
6184:__ZN10Instancing11DrawAPIArgsD2Ev
6185:__ZNK17InstancingBatcher18MapConstantBuffersER9GfxDeviceR13dynamic_arrayIPvLm0EERS2_I5CbKeyLm0EERS2_ImLm0EEj
6186:__ZNK17InstancingBatcher25FillInstanceBufferWithJobIN10Instancing11DrawAPIArgsEEEvR8JobFencePPvjjRKT_
6187:__ZNK15RenderNodeQueue15AddDependentJobER8JobFence
6188:__ZN10Instancing11DrawAPIArgsaSERKS0_
6189:__ZL17InstanceBufferJobIN10Instancing11DrawAPIArgsEEvP21InstanceBufferJobDataIT_E
6190:__Z19ScheduleJobInternalR8JobFencePFvPvES1_11JobPriority
6191:__ZNK15InstancingProps35FillInstanceBufferDispatchConstantsIN10Instancing11DrawAPIArgsEEEvPPvjjRK19ShaderPropertySheetRKT_
6192:__Z25InvertMatrix4x4_General3DPKfPf
6193:__ZN10Instancing11DrawAPIArgsC2Ev
6194:__ZN19ShaderPropertySheetD2Ev
6195:__Z19GetActiveColorSpacev
6196:__Z20GetPlayerSettingsPtrv
6197:__ZNK14PlayerSettings13GetColorSpaceEv
6198:__ZN19ShaderPropertySheetD0Ev
6199:__ZN10Instancing11DrawAPIArgsC2ERK19ShaderPropertySheetPKNS_11PropertyMapEPK8Vector4fS9_S9_iiPKi
6200:__Z30AddDefaultStreamsToMeshBuffersR9GfxDeviceR11MeshBuffersj17ShaderChannelMaskS3_
6201:__ZN16MeshVertexFormat20GetVertexDeclarationER9GfxDevice16VertexInputMasksPKS_S4_
6202:__ZNK16MeshVertexFormat28GetVertexDeclarationInternalER9GfxDevice17ShaderChannelMaskPKS_S4_
6203:__ZN9GfxDevice20GetVertexDeclarationERK18VertexChannelsInfoNS_30VertexDeclarationMRUCacheIndexE
6204:__ZN25VertexDeclarationMRUCache13GetVertexDeclER9GfxDeviceRK18VertexChannelsInfo
6205:__ZNK19ShaderPropertySheet24GetMatrixArrayFromScriptEi
6206:__Z17SetupObjectMatrixRK10Matrix4x4fi
6207:__ZN4Mesh14GetMeshBuffersER11MeshBuffersPS_
6208:__ZNK15GeometryBuffers19AppendVertexBuffersER11MeshBuffers
6209:__ZN4Mesh10CreateMeshEv
6210:__ZNK15GeometryBuffers14GetMeshBuffersER11MeshBuffers
6211:__ZN4Mesh5ClearEb
6212:__ZN4Mesh15UnshareMeshDataEv
6213:__Z27ConvertSubMeshesToTrianglesIjEvR13dynamic_arrayI7SubMeshLm0EERS0_IhLm0EE
6214:__Z27ConvertSubMeshesToTrianglesItEvR13dynamic_arrayI7SubMeshLm0EERS0_IhLm0EE
6215:__ZNK14SharedMeshData14HasBoneWeightsEv
6216:__ZN15GeometryBuffers26CreateOrUpdateVertexBufferER9GfxDeviceiR13GfxBufferDescPKv20GfxUpdateBufferFlagsPKc
6217:__ZN15GeometryBuffers16FreeVertexBufferEi
6218:__ZN15GeometryBuffers25CreateOrUpdateIndexBufferER9GfxDeviceR13GfxBufferDescPKv20GfxUpdateBufferFlagsPKc
6219:__ZN15GeometryBuffers15FreeIndexBufferEv
6220:__ZN23PerBoneCountSkinBuffers4FreeEv
6221:__ZL20CreateOrUpdateBufferR9GfxDeviceRP9GfxBufferR13GfxBufferDescPKv20GfxUpdateBufferFlagsPKc
6222:__ZN13MemoryManager27GetCorrespondingThreadLabelE10MemLabelId
6223:__ZN14SharedMeshDataC2ERKS_
6224:__ZN13dynamic_arrayI10Matrix4x4fLm16EE21resize_buffer_nocheckEm12ResizePolicy
6225:__ZN13dynamic_arrayI12BoneWeights2Lm16EE21resize_buffer_nocheckEm12ResizePolicy
6226:__ZN13dynamic_arrayI12BoneWeights4Lm16EE21resize_buffer_nocheckEm12ResizePolicy
6227:__ZN14BlendShapeDataC2ERKS_
6228:__ZN13dynamic_arrayI17BlendShapeChannelLm0EE21resize_buffer_nocheckEm12ResizePolicy
6229:__ZN14ConstantString6assignERKS_
6230:__ZN10VertexDataC2ERK10MemLabelIdRKS_17ShaderChannelMask
6231:__ZNK14VertexDataInfo22CalculateStreamsLayoutEv
6232:__ZNK14VertexDataInfo19GetAttributeFormatsEv
6233:__ZN14VertexDataInfo12UpdateFormatEm17ShaderChannelMaskS0_RK19VertexStreamsLayoutRK22VertexAttributeFormats
6234:__ZN10VertexData17ClearPaddingBytesEv
6235:__ZL12CopyChannelsm17ShaderChannelMaskRK11fixed_arrayI16VertexStreamInfoLm4EERK18VertexChannelsInfoPKhS4_S7_Ph
6236:__ZN14VertexDataInfo18UpdateImplicitDataEv
6237:__Z43IsVertexFormatCompatibleWithDynamicBatchingRK14VertexDataInfo
6238:__Z19GetVertexFormatSize12VertexFormat
6239:__ZN13dynamic_arrayI7SubMeshLm0EE4growEv
6240:__ZN14SharedMeshData16ClearBlendShapesEv
6241:__Z17SendMessageDirectR6ObjectRK17MessageIdentifierR11MessageData
6242:__ZN4Mesh14ResizeVerticesEm17ShaderChannelMaskS0_RK22VertexAttributeFormats
6243:__ZN14VertexDataInfoC2Ev
6244:__Z4swapR10VertexDataS0_
6245:__ZN4Mesh14ClearSkinCacheEv
6246:__ZN4Mesh16SetChannelsDirtyE17ShaderChannelMaskb15MeshUpdateFlags
6247:__ZN17CollisionMeshData20VertexDataHasChangedEv
6248:__ZN14SharedMeshData22ClearCachedBoneWeightsEv
6249:__ZN10VertexData6ResizeEm17ShaderChannelMaskS0_RK19VertexStreamsLayoutRK22VertexAttributeFormats
6250:__ZN24VariableBoneCountWeights14ResizeVerticesEjj
6251:__ZN19AtomicPageAllocator12AllocatePageEm
6252:__ZNK8Material32AcquireSharedMaterialDataFromJobEv
6253:__ZN8Material10GetDefaultEv
6254:__ZN8Material25AcquireSharedMaterialDataEv
6255:__ZN8Material15BuildPropertiesEv
6256:__ZN8Material12UpdateHashesEv
6257:__ZN10builtintex17GetDefaultTextureE16TextureDimension
6258:__Z22GetRenderBufferManagerv
6259:__ZN8Material19UnshareMaterialDataEv
6260:__ZN10Instancing9IsEnabledEv
6261:__ZNK9ShaderLab4Pass21ComputePassValuesHashERK16ShaderKeywordSetPK19ShaderPropertySheetP6Shader
6262:__ZN6Shader18GetShaderLabShaderEv
6263:__ZN9ShaderLab27ComputeStateBlockValuesHashERK13dynamic_arrayIiLm0EEPK19ShaderPropertySheetS6_
6264:__ZN9ShaderLab9IntShader23CreateStateBlocksForKeyEjPK19ShaderPropertySheetS3_
6265:__ZN9ShaderLab11ShaderState15AddDeviceStatesEjPK19ShaderPropertySheetS3_
6266:__ZNK9ShaderLab11ShaderState17BuildDeviceStatesER9GfxDevicePK19ShaderPropertySheetS5_RNS0_12DeviceStatesE
6267:__ZNK9ShaderLab20ShaderBlendStateDesc15ToGfxBlendStateEPK19ShaderPropertySheetS3_R13GfxBlendState
6268:__ZN9ShaderLab11shaderprops8GetFloatEPK19ShaderPropertySheetS3_NS_16FastPropertyNameE
6269:__ZNK9ShaderLab21ShaderRasterStateDesc16ToGfxRasterStateEPK19ShaderPropertySheetS3_R14GfxRasterState
6270:__ZNK9ShaderLab22ShaderStencilStateDesc17ToGfxStencilStateEPK19ShaderPropertySheetS3_RK14GfxRasterStateR15GfxStencilState
6271:__Z30GetBuiltinVectorParamArraySize24BuiltinShaderVectorParam
6272:__Z30GetBuiltinMatrixParamArraySize24BuiltinShaderMatrixParam
6273:__ZNK9ShaderLab7Program21GetMatchingSubProgramEPK6ShaderPKNS_4PassERK16ShaderKeywordSetjPS7_R19ShaderSnippetResultbb
6274:__ZNK20GpuProgramParameters23PrepareOverridingValuesERK19ShaderPropertySheetR13dynamic_arrayIhLm4EE
6275:__ZL22PrepareValueParametersI27OverridingParameterPreparerEvRK13dynamic_arrayIN20GpuProgramParameters14ValueParameterELm0EEjjjRS1_IhLm4EERKT_
6276:__ZNK9ShaderLab6TexEnv11PrepareDataEiibP15GfxTextureParam
6277:__Z35UnityShaderExtPluginKeywordsEnabledRK16ShaderKeywordSet
6278:__Z41UnityShaderExtIsCustomPluginVariantNeededjj
6279:__ZNK15dense_hashtableINSt3__24pairIKN9ShaderLab7Program23ShaderKeywordSetAndHashENS3_21SubProgramLookupEntryEEES4_NS3_24ShaderKeywordHashFunctorEN14dense_hash_mapIS4_S6_S8_NS0_8equal_toIS4_EE13stl_allocatorIS7_L18MemLabelIdentifier71ELi16EEE9SelectKeyESB_SE_E23find_position_with_hashERS5_m
6280:__ZN9ShaderLab32FindBestMatchingShaderKeywordSetERK16ShaderKeywordSetRK13dynamic_arrayIS0_Lm0EEPS5_
6281:__ZN9ShaderLab10SubProgram7CompileEv
6282:__ZNK9ShaderLab7Program24MarkVariantAsUnsupportedERK16ShaderKeywordSet
6283:__ZN15dense_hashtableINSt3__24pairIKN9ShaderLab7Program23ShaderKeywordSetAndHashENS3_21SubProgramLookupEntryEEES4_NS3_24ShaderKeywordHashFunctorEN14dense_hash_mapIS4_S6_S8_NS0_8equal_toIS4_EE13stl_allocatorIS7_L18MemLabelIdentifier71ELi16EEE9SelectKeyESB_SE_E12resize_deltaEmm
6284:__ZN15dense_hashtableINSt3__24pairIKN9ShaderLab7Program23ShaderKeywordSetAndHashENS3_21SubProgramLookupEntryEEES4_NS3_24ShaderKeywordHashFunctorEN14dense_hash_mapIS4_S6_S8_NS0_8equal_toIS4_EE13stl_allocatorIS7_L18MemLabelIdentifier71ELi16EEE9SelectKeyESB_SE_E15insert_noresizeERKS7_
6285:__ZN15dense_hashtableINSt3__24pairIKN9ShaderLab7Program23ShaderKeywordSetAndHashENS3_21SubProgramLookupEntryEEES4_NS3_24ShaderKeywordHashFunctorEN14dense_hash_mapIS4_S6_S8_NS0_8equal_toIS4_EE13stl_allocatorIS7_L18MemLabelIdentifier71ELi16EEE9SelectKeyESB_SE_E12maybe_shrinkEv
6286:__ZN15dense_hashtableINSt3__24pairIKN9ShaderLab7Program23ShaderKeywordSetAndHashENS3_21SubProgramLookupEntryEEES4_NS3_24ShaderKeywordHashFunctorEN14dense_hash_mapIS4_S6_S8_NS0_8equal_toIS4_EE13stl_allocatorIS7_L18MemLabelIdentifier71ELi16EEE9SelectKeyESB_SE_E9copy_fromERKSH_m
6287:__ZN30dense_hashtable_const_iteratorINSt3__24pairIKN9ShaderLab7Program23ShaderKeywordSetAndHashENS3_21SubProgramLookupEntryEEES4_NS3_24ShaderKeywordHashFunctorEN14dense_hash_mapIS4_S6_S8_NS0_8equal_toIS4_EE13stl_allocatorIS7_L18MemLabelIdentifier71ELi16EEE9SelectKeyESB_SE_E30advance_past_empty_and_deletedEv
6288:__ZN20GpuProgramParametersaSERKS_
6289:__Z34UnityShaderExtCanCompileGPUProgramRK16ShaderKeywordSet20ShaderGpuProgramType
6290:__ZN16PropertyNamesSet6insertERKS_
6291:__Z19GetGraphicsSettingsv
6292:__ZN22CreateGpuProgramOutputD2Ev
6293:__ZN13dynamic_arrayIN20GpuProgramParameters14ConstantBufferELm0EED2Ev
6294:__ZN13dynamic_arrayIN20GpuProgramParameters15StructParameterELm0EED2Ev
6295:__ZN13dynamic_arrayIN20GpuProgramParameters14ConstantBufferELm0EE21resize_buffer_nocheckEm12ResizePolicy
6296:__Z30copy_construct_array_autolabelIN20GpuProgramParameters14ConstantBufferEEvPT_mPKS2_RK10MemLabelId
6297:__ZN13dynamic_arrayIN20GpuProgramParameters15StructParameterELm0EEC2ERKS2_RK10MemLabelId
6298:__ZN22CreateGpuProgramOutputC2Ev
6299:__ZN20GpuProgramParametersC2E10MemLabelId
6300:__ZN8keywords19ComputeKeywordMatchERK16ShaderKeywordSetS2_
6301:__ZN18SharedMaterialDataC2ERKS_
6302:__ZN19RenderBufferManager7Buffers17ReleaseTempBufferEP9GfxBuffer
6303:__ZN10MemoryPool8AllocateEm
6304:__ZN4core8hash_mapIN19RenderBufferManager7Buffers3KeyEPNS2_11BufferEntryENS2_9KeyHasherENSt3__28equal_toIS3_EEE6insertERKS3_RKS5_
6305:__ZN4core8hash_setINS_4pairIKN19RenderBufferManager7Buffers3KeyEPNS3_11BufferEntryELb0EEENS_9hash_pairINS3_9KeyHasherES5_S7_EENS_10equal_pairINSt3__28equal_toIS4_EES5_S7_EEE4growEi
6306:__ZN10MemoryPool14AllocNewBubbleEv
6307:__ZN19ShaderPropertySheetC2ERK10MemLabelIdRKS_
6308:__ZN18SharedMaterialDataD2Ev
6309:__ZN18SharedMaterialDataD0Ev
6310:__ZN24MaterialDisplayListCache20MaterialDisplayLists22InvalidateDisplayListsEv
6311:__ZN24MaterialDisplayListCache16CachedShaderPass10ReleaseAllEv
6312:__ZN6Shader10GetDefaultEv
6313:__ZN19ShaderPropertySheet8CopyFromERKS_
6314:__ZN18UnityPropertySheet20AddNewShaderlabPropsERK19ShaderPropertySheet
6315:__ZN18UnityPropertySheet25AssignDefinedPropertiesToER19ShaderPropertySheet
6316:__ZN8Material18SetTextureInternalEN9ShaderLab16FastPropertyNameEP7Textureb
6317:__ZN24MaterialDisplayListCache22InvalidateDisplayListsER18SharedMaterialData
6318:__ZN19ShaderPropertySheet10SetTextureERK23FastTexturePropertyNameP7Texture
6319:__ZN8Material28UpdateHashesOnPropertyChangeEN9ShaderLab16FastPropertyNameE
6320:__Z26GetTextureStreamingManagerv
6321:__ZN23TextureStreamingManager14UpdateMaterialER8Material
6322:__ZN20TextureStreamingData15FreeTextureInfoEP17StreamingRenderer
6323:__ZN19ShaderPropertySheet18AddTextureFromInfoERK23FastTexturePropertyNamePKN9ShaderLab25SerializedTexturePropertyE
6324:__ZN19ShaderPropertySheet17UpdateTextureInfoEiRK23FastTexturePropertyNameP7Textureb9TextureID
6325:__Z22GetTextureDecodeValues16TextureUsageMode17TextureColorSpace
6326:__ZN19ShaderPropertySheet37CreateTextureAuxPropertyUninitializedEN9ShaderLab16FastPropertyNameES1_PKc
6327:__ZN9ShaderLab6TexEnvC2ERKNS_25SerializedTexturePropertyE
6328:__ZN19ShaderPropertySheet9SetVectorEN9ShaderLab16FastPropertyNameERK8Vector4fNS_8SetFlagsE
6329:__ZN19ShaderPropertySheet23SetTextureWithPlacementERK23FastTexturePropertyNameP7Texture8Vector2fS5_
6330:__ZNK19ShaderPropertySheet24GetFloatValueInsRGBSpaceEi
6331:__ZNK19ShaderPropertySheet25GetVectorValueInsRGBSpaceEi
6332:__ZN13string_traitsIA28_cE8get_sizeERA28_Kc
6333:__Z25GetBuiltinResourceManagerv
6334:__ZNK22BuiltinResourceManager11GetResourceEPKN5Unity4TypeEN4core16basic_string_refIcEE
6335:__ZN9ShaderLab9IntShader19CreateDummyFallbackEv
6336:__ZN9ShaderLab9IntShaderC2Ev
6337:__ZN9ShaderLab9IntShader8PostLoadEP6Shader
6338:__ZN9ShaderLab20GlobalRenderPipelineEv
6339:__ZN9ShaderLab9SubShader8PostLoadEP6Shader
6340:__ZN9shadertag16GetShaderTagNameE11ShaderTagID
6341:__ZN9ShaderLab19ParseQueueAndOffsetERKN4core12basic_stringIcNS0_20StringStorageDefaultIcEEEERi
6342:__ZNK9ShaderLab11ShaderState29GetSupportsFullForwardShadowsEv
6343:__ZN9ShaderLab9SubShaderC2Ev
6344:__ZNK13sorted_vectorIN22BuiltinResourceManager8ResourceENSt3__24lessIS1_EENS2_9allocatorIS1_EEE4findIS1_EENS2_11__wrap_iterIPKS1_EERKT_
6345:__ZNK8Material35CanAcquireSharedMaterialDataFromJobEv
6346:__ZNK28ReflectionProbeAnchorManager35FindCachedReflectionProbeFromAnchorEPK9TransformRK4AABBRS3_RsS7_
6347:__Z29GetLightProbesCoefficientTypeRK17LightProbeContextRK10RenderNodeb
6348:__ZNK28ReflectionProbeAnchorManager28GetCachedProbeAnchorPositionERK9Transform
6349:__Z38CalculateLightProbeSamplingCoordinatesRK17LightProbeContextRK8Vector3fiR29LightProbeSamplingCoordinates
6350:__Z38CalculateExplicitLightProbeCoordinatesiR29LightProbeSamplingCoordinates
6351:__ZNK11LightProbes14LightProbeData33GetLightProbeInterpolationWeightsERK8Vector3fRiR8Vector4f
6352:__Z37GetBarycentricCoordinatesForOuterCellPPK8Vector3fRK13dynamic_arrayIS_Lm0EERS0_RK11TetrahedronR8Vector4f
6353:__ZN15LightProbeUtils32BarycentricCoordinates3DTriangleEPK8Vector3fRS1_
6354:__ZN28ReflectionProbeAnchorManager37FindReflectionProbeFromAnchorInternalEPK9Transform8Vector3fRK4AABBRS4_RsS8_
6355:__ZNK10GameObject25QueryComponentByExactTypeEPKN5Unity4TypeE
6356:__ZN12BaseRenderer25FlattenSharedMaterialDataILb0EEEvRKS_R22PerThreadPageAllocatorR10RenderNode
6357:__ZN24MeshIntermediateRenderer16StaticInitializeEPv
6358:__ZN24MeshIntermediateRenderer13StaticDestroyEPv
6359:__ZN30ProceduralIntermediateRenderer16StaticInitializeEPv
6360:__ZN30ProceduralIntermediateRenderer13StaticDestroyEPv
6361:__ZN38ProceduralIndirectIntermediateRenderer16StaticInitializeEPv
6362:__ZN38ProceduralIndirectIntermediateRenderer13StaticDestroyEPv
6363:__ZN13RuntimeStaticI20BurstCompilerServiceLb0EE16StaticInitializeEPv
6364:__ZN13RuntimeStaticI20BurstCompilerServiceLb0EE13StaticDestroyEPv
6365:__ZL44DelegateCache_InitializeRegisterDomainReloadPv
6366:__ZL25CleanupAllCachedDelegatesv
6367:__ZN20BurstCompilerService12InternalDataD2Ev
6368:__ZN24StaticInitializeInternal13ConstructTypeI20BurstCompilerServiceLb0EEEPvS2_RK10MemLabelId
6369:__ZN20BurstCompilerServiceC2Ev
6370:__ZN20BurstCompilerService40NativeGetExternalFunctionPointerCallbackEPKc
6371:__ZL22RegisterICallWithBurstPKcPKv
6372:__Z41scripting_add_icall_registration_callbackPFvPKcPKvE
6373:__Z11burst_abortPKcS0_
6374:__ZN20BurstCompilerService24RegisterInternalFunctionEPKcPKv
6375:__Z23burst_get_dispatch_infov
6376:__ZN4core8hash_mapINS_12basic_stringIcNS_20StringStorageDefaultIcEEEEPKvNS_4hashIS4_EENSt3__28equal_toIS4_EEEixERKS4_
6377:__ZN17BaseObjectManager16StaticInitializeEPv
6378:__ZN17BaseObjectManager13StaticDestroyEPv
6379:__ZN6Object13StaticDestroyEv
6380:__ZN11TypeManager21CleanupGlobalInstanceEv
6381:__ZN11TypeManagerD2Ev
6382:__ZNSt3__26__treeINS_12__value_typeIiN11TypeManager18TypeCallbackStructEEENS_19__map_value_compareIiS4_NS_4lessIiEELb1EEE13stl_allocatorIS4_L18MemLabelIdentifier55ELi16EEE7destroyEPNS_11__tree_nodeIS4_PvEE
6383:__ZN11TypeManager24InitializeGlobalInstanceEv
6384:__ZN6Object16StaticInitializeEv
6385:__ZN11TypeManager12RegisterTypeERK20TypeRegistrationDesc
6386:__ZN11TypeManager36FatalErrorOnPersistentTypeIDConflictEiPKc
6387:__ZNSt3__26__treeINS_12__value_typeIiN11TypeManager18TypeCallbackStructEEENS_19__map_value_compareIiS4_NS_4lessIiEELb1EEE13stl_allocatorIS4_L18MemLabelIdentifier55ELi16EEE25__emplace_unique_key_argsIiJRKNS_21piecewise_construct_tENS_5tupleIJRKiEEENSH_IJEEEEEENS_4pairINS_15__tree_iteratorIS4_PNS_11__tree_nodeIS4_PvEElEEbEERKT_DpOT0_
6388:__ZN4core8hash_mapIPKcPK4RTTIN11TypeManager23ConstCharPtrHashFunctorENS6_19ConstCharPtrEqualToEEixERKS2_
6389:__ZN13RuntimeStaticI12EventManagerLb1EE16StaticInitializeEPv
6390:__ZN13RuntimeStaticI12EventManagerLb1EE13StaticDestroyEPv
6391:__ZN13RuntimeStaticI14MessageHandlerLb0EE16StaticInitializeEPv
6392:__ZN13RuntimeStaticI14MessageHandlerLb0EE13StaticDestroyEPv
6393:__ZN14MessageHandlerD2Ev
6394:__ZN24StaticInitializeInternal13ConstructTypeI14MessageHandlerLb0EEEPvS2_RK10MemLabelId
6395:__ZN24StaticInitializeInternal13ConstructTypeI12EventManagerLb1EEEPvS2_RK10MemLabelId
6396:__ZL39CreateRegisteredMessageIdentifiersArrayPv
6397:__ZL40DestroyRegisteredMessageIdentifiersArrayPv
6398:__ZN13RuntimeStaticI12AdsIdHandlerLb0EE16StaticInitializeEPv
6399:__ZN13RuntimeStaticI12AdsIdHandlerLb0EE13StaticDestroyEPv
6400:__ZN13RuntimeStaticI15ApplicationInfoLb0EE16StaticInitializeEPv
6401:__ZN13RuntimeStaticI15ApplicationInfoLb0EE13StaticDestroyEPv
6402:__ZN24StaticInitializeInternal13ConstructTypeI15ApplicationInfoLb0EEEPvS2_RK10MemLabelId
6403:__ZN12AdsIdHandlerD2Ev
6404:__ZN24StaticInitializeInternal13ConstructTypeI12AdsIdHandlerLb0EEEPvS2_RK10MemLabelId
6405:__ZN13RuntimeStaticI5MutexLb0EE16StaticInitializeEPv
6406:__ZN13RuntimeStaticI5MutexLb0EE13StaticDestroyEPv
6407:__ZL26CleanupExternalAllocationsPv
6408:__ZNSt3__26__treeINS_12__value_typeIPv17ExternalAllocInfoEENS_19__map_value_compareIS2_S4_NS_4lessIS2_EELb1EEE13stl_allocatorIS4_L18MemLabelIdentifier63ELi16EEE7destroyEPNS_11__tree_nodeIS4_S2_EE
6409:__ZN24StaticInitializeInternal13ConstructTypeI5MutexLb0EEEPvS2_RK10MemLabelId
6410:__ZN13RuntimeStaticI18SpriteAtlasManagerLb1EE16StaticInitializeEPv
6411:__ZN24StaticInitializeInternal13ConstructTypeI18SpriteAtlasManagerLb1EEEPvS2_RK10MemLabelId
6412:__ZZN18SpriteAtlasManagerC1E10MemLabelIdEN46EarlyUpdateSpriteAtlasManagerUpdateRegistrator7ForwardEv
6413:__ZN18SpriteAtlasManager21CleanupInvalidAtlasesEv
6414:__ZN18SpriteAtlasManager21RequestAtlasViaScriptEv
6415:__ZN13sorted_vectorIN4core12basic_stringIcNS0_20StringStorageDefaultIcEEEENSt3__24lessIS4_EE13stl_allocatorIS4_L18MemLabelIdentifier85ELi16EEE21sort_clear_duplicatesEv
6416:__Z13FormatOrderedPKcz
6417:__ZL20FormatOrderedProcessPKcP17FormatOrderedDataPc
6418:__ZNSt3__213__stable_sortIRNS_4lessIN4core12basic_stringIcNS2_20StringStorageDefaultIcEEEEEENS_11__wrap_iterIPS6_EEEEvT0_SC_T_NS_15iterator_traitsISC_E15difference_typeEPNSF_10value_typeEl
6419:__Z17remove_duplicatesINSt3__211__wrap_iterIPN4core12basic_stringIcNS2_20StringStorageDefaultIcEEEEEENS0_4lessIS6_EEET_SB_SB_T0_
6420:__ZNSt3__216__insertion_sortIRNS_4lessIN4core12basic_stringIcNS2_20StringStorageDefaultIcEEEEEENS_11__wrap_iterIPS6_EEEEvT0_SC_T_
6421:__ZNSt3__218__stable_sort_moveIRNS_4lessIN4core12basic_stringIcNS2_20StringStorageDefaultIcEEEEEENS_11__wrap_iterIPS6_EEEEvT0_SC_T_NS_15iterator_traitsISC_E15difference_typeEPNSF_10value_typeE
6422:__ZNSt3__219__merge_move_assignIRNS_4lessIN4core12basic_stringIcNS2_20StringStorageDefaultIcEEEEEEPS6_S9_NS_11__wrap_iterIS9_EEEEvT0_SC_T1_SD_T2_T_
6423:__ZNSt3__215__inplace_mergeIRNS_4lessIN4core12basic_stringIcNS2_20StringStorageDefaultIcEEEEEENS_11__wrap_iterIPS6_EEEEvT0_SC_SC_T_NS_15iterator_traitsISC_E15difference_typeESG_PNSF_10value_typeEl
6424:__ZNSt3__224__buffered_inplace_mergeIRNS_4lessIN4core12basic_stringIcNS2_20StringStorageDefaultIcEEEEEENS_11__wrap_iterIPS6_EEEEvT0_SC_SC_T_NS_15iterator_traitsISC_E15difference_typeESG_PNSF_10value_typeE
6425:__ZNSt3__216__rotate_forwardINS_11__wrap_iterIPN4core12basic_stringIcNS2_20StringStorageDefaultIcEEEEEEEET_S9_S9_S9_
6426:__ZNSt3__221__insertion_sort_moveIRNS_4lessIN4core12basic_stringIcNS2_20StringStorageDefaultIcEEEEEENS_11__wrap_iterIPS6_EEEEvT0_SC_PNS_15iterator_traitsISC_E10value_typeET_
6427:__ZNSt3__222__merge_move_constructIRNS_4lessIN4core12basic_stringIcNS2_20StringStorageDefaultIcEEEEEENS_11__wrap_iterIPS6_EESB_EEvT0_SC_T1_SD_PNS_15iterator_traitsISC_E10value_typeET_
6428:__ZN18SpriteAtlasManagerD2Ev
6429:__ZN18SpriteAtlasManagerD0Ev
6430:__Z29InitializeSortingGroupManagerPv
6431:__Z26CleanupSortingGroupManagerPv
6432:__ZZ29InitializeSortingGroupManagerPvEN44PostLateUpdateSortingGroupsUpdateRegistrator7ForwardEv
6433:__ZN19SortingGroupManager6UpdateEv
6434:__ZNK9Transform11GetPositionEv
6435:__ZN19SpriteRendererGroup16StaticInitializeEPv
6436:__ZL29PrepareSpriteGroupRenderNodesILb0EEvR35RenderNodeQueuePrepareThreadContext
6437:__ZL29PrepareSpriteGroupRenderNodesILb1EEvR35RenderNodeQueuePrepareThreadContext
6438:__ZL46PrepareRenderNodeQueueExtractionCullingContextR29RenderNodeQueuePrepareContext
6439:__ZNK6Sprite13GetRenderDataE20SpriteRenderDataMode
6440:__ZNK16SpriteRenderData19AcquireReadOnlyDataEv
6441:__ZL10DrawSpriteRK15RenderNodeQueuej16VertexInputMasksi
6442:__ZN26SpriteIntermediateRenderer15CleanupCallbackER15RenderNodeQueuej
6443:__ZN26SpriteIntermediateRenderer20PrepareSpriteBatchedERK15RenderNodeQueueRK18RenderMultipleData16VertexInputMasks
6444:__ZN8DrawUtil26ApplySharedNodeCustomPropsER9GfxDeviceRK10RenderNodei
6445:__ZN19ShaderPropertySheet20ReservePropertyCountEm
6446:__ZL17DrawSpriteBatchedRK15RenderNodeQueuePK17BatchInstanceDatammm16VertexInputMasks
6447:__Z29CalculateDefaultChannelsToAdd17ShaderChannelMaskS_
6448:__Z40BuildSingleStreamChannelInfoWithDefaultsR18VertexChannelsInfoRK22VertexAttributeFormats17ShaderChannelMaskS4_S4_
6449:__ZN9GfxDevice13GetDynamicVBOEv
6450:__ZN10DynamicVBO8GetChunkEjjj16GfxPrimitiveTypeP16DynamicVBOMemory
6451:__Z20GetSpriteDeviceColorRK10ColorRGBAf
6452:__Z16TransformIndicesPtPKvmmmmb
6453:__Z17TransformVerticesPhRK10Matrix4x4fPKhmm26GfxTransformVerticesParams25GfxTransformVerticesFlagsjS4_
6454:__Z27TransformVerticesStridedREFPhRK10Matrix4x4fjPKhiS4_ii25GfxTransformVerticesFlagsj
6455:__ZN10Matrix3x3f15InvertTransposeEv
6456:__Z26TransformVerticesInnerLoopILb0ELb0ELb0EEvPhRK10Matrix4x4fRK10Matrix3x3fbjPKhiS8_ii25GfxTransformVerticesFlagsj
6457:__Z26TransformVerticesInnerLoopILb1ELb0ELb0EEvPhRK10Matrix4x4fRK10Matrix3x3fbjPKhiS8_ii25GfxTransformVerticesFlagsj
6458:__Z26TransformVerticesInnerLoopILb0ELb1ELb0EEvPhRK10Matrix4x4fRK10Matrix3x3fbjPKhiS8_ii25GfxTransformVerticesFlagsj
6459:__Z26TransformVerticesInnerLoopILb1ELb1ELb0EEvPhRK10Matrix4x4fRK10Matrix3x3fbjPKhiS8_ii25GfxTransformVerticesFlagsj
6460:__Z26TransformVerticesInnerLoopILb0ELb0ELb1EEvPhRK10Matrix4x4fRK10Matrix3x3fbjPKhiS8_ii25GfxTransformVerticesFlagsj
6461:__Z26TransformVerticesInnerLoopILb1ELb0ELb1EEvPhRK10Matrix4x4fRK10Matrix3x3fbjPKhiS8_ii25GfxTransformVerticesFlagsj
6462:__Z26TransformVerticesInnerLoopILb0ELb1ELb1EEvPhRK10Matrix4x4fRK10Matrix3x3fbjPKhiS8_ii25GfxTransformVerticesFlagsj
6463:__Z26TransformVerticesInnerLoopILb1ELb1ELb1EEvPhRK10Matrix4x4fRK10Matrix3x3fbjPKhiS8_ii25GfxTransformVerticesFlagsj
6464:__ZN10Matrix4x4f5ScaleERK8Vector3f
6465:__Z20InvertMatrix4x4_FullPKfPf
6466:__ZN10Matrix4x4fC2ERK10Matrix3x3f
6467:__ZN10Matrix3x3fC2ERK10Matrix4x4f
6468:__ZN10DynamicVBOC2ER9GfxDevice
6469:__ZN10DynamicVBOD2Ev
6470:__ZN10DynamicVBOD0Ev
6471:__ZN10DynamicVBO8GetChunkEjjjj16GfxPrimitiveTypeP16DynamicVBOMemory
6472:__ZN10DynamicVBO12ReleaseChunkEjj
6473:__ZN10DynamicVBO9DrawChunkEP17VertexDeclaration
6474:__ZN10DynamicVBO20CleanupBufferManagerEv
6475:__ZN23DynamicVBOBufferManager23CleanupPerThreadBuffersER9GfxDevice
6476:__ZN10DynamicVBO19FillQuadIndexBufferEv
6477:__Z24SetupMaskingStencilStateR9GfxDevicePK18DeviceStencilState
6478:__ZN13RuntimeStaticI15GUIEventManagerLb0EE16StaticInitializeEPv
6479:__ZN13RuntimeStaticI15GUIEventManagerLb0EE13StaticDestroyEPv
6480:__ZN13RuntimeStaticI22VirtualJoystickManagerLb0EE16StaticInitializeEPv
6481:__ZN13RuntimeStaticI22VirtualJoystickManagerLb0EE13StaticDestroyEPv
6482:__ZN24StaticInitializeInternal13ConstructTypeI22VirtualJoystickManagerLb0EEEPvS2_RK10MemLabelId
6483:__ZN13RuntimeStaticI15GUIEventManagerLb0EE7DestroyEv
6484:__ZNSt3__212__deque_baseI10InputEventNS_9allocatorIS1_EEE5clearEv
6485:__ZN10InputEventD2Ev
6486:__ZN24StaticInitializeInternal13ConstructTypeI15GUIEventManagerLb0EEEPvS2_RK10MemLabelId
6487:__ZN9FileStatsC2Ev
6488:__ZN13RuntimeStaticINSt3__23mapI9TextureID21SparseTextureInfoGLESNS0_4lessIS2_EENS0_9allocatorINS0_4pairIKS2_S3_EEEEEELb0EE16StaticInitializeEPv
6489:__ZN13RuntimeStaticINSt3__23mapI9TextureID21SparseTextureInfoGLESNS0_4lessIS2_EENS0_9allocatorINS0_4pairIKS2_S3_EEEEEELb0EE13StaticDestroyEPv
6490:__ZNSt3__26__treeINS_12__value_typeI9TextureID21SparseTextureInfoGLESEENS_19__map_value_compareIS2_S4_NS_4lessIS2_EELb1EEENS_9allocatorIS4_EEE7destroyEPNS_11__tree_nodeIS4_PvEE
6491:__ZN9Scripting5Unity11CollectionsL50__ManagedRegistrationHelperFunction_AllocatorProxyEPv
6492:__ZN9Scripting5Unity11CollectionsL75__ManagedRegistrationHelperFunction_DeallocateOnJobCompletionAttributeProxyEPv
6493:__ZN9Scripting5Unity11Collections8LowLevel6UnsafeL65__ManagedRegistrationHelperFunction_NativeContainerAttributeProxyEPv
6494:__ZN9Scripting5Unity11Collections8LowLevel6UnsafeL82__ManagedRegistrationHelperFunction_NativeContainerIsAtomicWriteOnlyAttributeProxyEPv
6495:__ZN9Scripting5Unity11Collections8LowLevel6UnsafeL75__ManagedRegistrationHelperFunction_NativeContainerIsReadOnlyAttributeProxyEPv
6496:__ZN9Scripting5Unity11Collections8LowLevel6UnsafeL81__ManagedRegistrationHelperFunction_NativeContainerNeedsThreadIndexAttributeProxyEPv
6497:__ZN9Scripting5Unity11Collections8LowLevel6UnsafeL98__ManagedRegistrationHelperFunction_NativeContainerSupportsDeallocateOnJobCompletionAttributeProxyEPv
6498:__ZN9Scripting5Unity11Collections8LowLevel6UnsafeL90__ManagedRegistrationHelperFunction_NativeContainerSupportsDeferredConvertListToArrayProxyEPv
6499:__ZN9Scripting5Unity11Collections8LowLevel6UnsafeL95__ManagedRegistrationHelperFunction_NativeContainerSupportsMinMaxWriteRestrictionAttributeProxyEPv
6500:__ZN9Scripting5Unity11Collections8LowLevel6UnsafeL89__ManagedRegistrationHelperFunction_NativeDisableContainerSafetyRestrictionAttributeProxyEPv
6501:__ZN9Scripting5Unity11Collections8LowLevel6UnsafeL83__ManagedRegistrationHelperFunction_NativeDisableUnsafePtrRestrictionAttributeProxyEPv
6502:__ZN9Scripting5Unity11Collections8LowLevel6UnsafeL84__ManagedRegistrationHelperFunction_NativeSetClassTypeToNullOnScheduleAttributeProxyEPv
6503:__ZN9Scripting5Unity11Collections8LowLevel6UnsafeL70__ManagedRegistrationHelperFunction_NativeSetThreadIndexAttributeProxyEPv
6504:__ZN9Scripting5Unity11CollectionsL85__ManagedRegistrationHelperFunction_NativeDisableParallelForRestrictionAttributeProxyEPv
6505:__ZN9Scripting5Unity11CollectionsL67__ManagedRegistrationHelperFunction_NativeFixedLengthAttributeProxyEPv
6506:__ZN9Scripting5Unity11CollectionsL80__ManagedRegistrationHelperFunction_NativeMatchesParallelForLengthAttributeProxyEPv
6507:__ZN9Scripting5Unity11CollectionsL58__ManagedRegistrationHelperFunction_ReadOnlyAttributeProxyEPv
6508:__ZN9Scripting5Unity11CollectionsL59__ManagedRegistrationHelperFunction_WriteOnlyAttributeProxyEPv
6509:__ZN9Scripting5Unity9Profiling8LowLevel6UnsafeL62__ManagedRegistrationHelperFunction_ProfilerUnsafeUtilityProxyEPv
6510:__ZN9Scripting5Unity9ProfilingL55__ManagedRegistrationHelperFunction_ProfilerMarkerProxyEPv
6511:__ZN9Scripting5Unity9Profiling14ProfilerMarkerL50__ManagedRegistrationHelperFunction_AutoScopeProxyEPv
6512:__ZN9Scripting11UnityEngine10_Scripting11APIUpdatingL65__ManagedRegistrationHelperFunction_APIUpdaterRuntimeHelpersProxyEPv
6513:__ZN9Scripting11UnityEngine7AndroidL51__ManagedRegistrationHelperFunction_PermissionProxyEPv
6514:__ZN9Scripting11UnityEngineL55__ManagedRegistrationHelperFunction_AnimationCurveProxyEPv
6515:__ZN9Scripting11UnityEngineL52__ManagedRegistrationHelperFunction_ApplicationProxyEPv
6516:__ZN9Scripting11UnityEngineL65__ManagedRegistrationHelperFunction_AssemblyIsEditorAssemblyProxyEPv
6517:__ZN9Scripting11UnityEngineL57__ManagedRegistrationHelperFunction_YieldInstructionProxyEPv
6518:__ZN9Scripting11UnityEngineL55__ManagedRegistrationHelperFunction_AsyncOperationProxyEPv
6519:__ZN9Scripting11UnityEngineL62__ManagedRegistrationHelperFunction_AttributeHelperEngineProxyEPv
6520:__ZN9Scripting11UnityEngineL47__ManagedRegistrationHelperFunction_ObjectProxyEPv
6521:__ZN9Scripting11UnityEngineL50__ManagedRegistrationHelperFunction_ComponentProxyEPv
6522:__ZN9Scripting11UnityEngineL50__ManagedRegistrationHelperFunction_BehaviourProxyEPv
6523:__ZN9Scripting11UnityEngineL51__ManagedRegistrationHelperFunction_BoneWeightProxyEPv
6524:__ZN9Scripting11UnityEngineL52__ManagedRegistrationHelperFunction_BoneWeight1ProxyEPv
6525:__ZN9Scripting11UnityEngineL55__ManagedRegistrationHelperFunction_BootConfigDataProxyEPv
6526:__ZN9Scripting11UnityEngineL48__ManagedRegistrationHelperFunction_Vector3ProxyEPv
6527:__ZN9Scripting11UnityEngineL47__ManagedRegistrationHelperFunction_BoundsProxyEPv
6528:__ZN9Scripting11UnityEngineL50__ManagedRegistrationHelperFunction_BoundsIntProxyEPv
6529:__ZN9Scripting11UnityEngineL58__ManagedRegistrationHelperFunction_CachedAssetBundleProxyEPv
6530:__ZN9Scripting11UnityEngineL51__ManagedRegistrationHelperFunction_CacheIndexProxyEPv
6531:__ZN9Scripting11UnityEngineL47__ManagedRegistrationHelperFunction_CameraProxyEPv
6532:__ZN9Scripting11UnityEngineL64__ManagedRegistrationHelperFunction_ClassLibraryInitializerProxyEPv
6533:__ZN9Scripting11UnityEngineL46__ManagedRegistrationHelperFunction_ColorProxyEPv
6534:__ZN9Scripting11UnityEngineL48__ManagedRegistrationHelperFunction_Color32ProxyEPv
6535:__ZN9Scripting11UnityEngineL51__ManagedRegistrationHelperFunction_ColorGamutProxyEPv
6536:__ZN9Scripting11UnityEngineL54__ManagedRegistrationHelperFunction_ComputeBufferProxyEPv
6537:__ZN9Scripting11UnityEngineL54__ManagedRegistrationHelperFunction_ComputeShaderProxyEPv
6538:__ZN9Scripting11UnityEngineL52__ManagedRegistrationHelperFunction_ContextMenuProxyEPv
6539:__ZN9Scripting11UnityEngineL50__ManagedRegistrationHelperFunction_CoroutineProxyEPv
6540:__ZN9Scripting11UnityEngineL48__ManagedRegistrationHelperFunction_TextureProxyEPv
6541:__ZN9Scripting11UnityEngineL48__ManagedRegistrationHelperFunction_CubemapProxyEPv
6542:__ZN9Scripting11UnityEngineL53__ManagedRegistrationHelperFunction_CubemapArrayProxyEPv
6543:__ZN9Scripting11UnityEngineL53__ManagedRegistrationHelperFunction_CullingGroupProxyEPv
6544:__ZN9Scripting11UnityEngineL54__ManagedRegistrationHelperFunction_RenderTextureProxyEPv
6545:__ZN9Scripting11UnityEngineL60__ManagedRegistrationHelperFunction_CustomRenderTextureProxyEPv
6546:__ZN9Scripting11UnityEngineL70__ManagedRegistrationHelperFunction_CustomRenderTextureUpdateZoneProxyEPv
6547:__ZN9Scripting11UnityEngineL46__ManagedRegistrationHelperFunction_DebugProxyEPv
6548:__ZN9Scripting11UnityEngineL62__ManagedRegistrationHelperFunction_DefaultExecutionOrderProxyEPv
6549:__ZN9Scripting11UnityEngineL57__ManagedRegistrationHelperFunction_DiagnosticSwitchProxyEPv
6550:__ZN9Scripting11UnityEngineL66__ManagedRegistrationHelperFunction_DisallowMultipleComponentProxyEPv
6551:__ZN9Scripting11UnityEngineL48__ManagedRegistrationHelperFunction_DisplayProxyEPv
6552:__ZN9Scripting11UnityEngineL49__ManagedRegistrationHelperFunction_EnumInfoProxyEPv
6553:__ZN9Scripting11UnityEngine6EventsL55__ManagedRegistrationHelperFunction_UnityEventBaseProxyEPv
6554:__ZN9Scripting11UnityEngine6EventsL51__ManagedRegistrationHelperFunction_UnityEventProxyEPv
6555:__ZN9Scripting11UnityEngine6EventsL53__ManagedRegistrationHelperFunction_UnityEvent_1ProxyEPv
6556:__ZN9Scripting11UnityEngine6EventsL53__ManagedRegistrationHelperFunction_UnityEvent_2ProxyEPv
6557:__ZN9Scripting11UnityEngine6EventsL53__ManagedRegistrationHelperFunction_UnityEvent_3ProxyEPv
6558:__ZN9Scripting11UnityEngine6EventsL53__ManagedRegistrationHelperFunction_UnityEvent_4ProxyEPv
6559:__ZN9Scripting11UnityEngineL74__ManagedRegistrationHelperFunction_ExcludeFromObjectFactoryAttributeProxyEPv
6560:__ZN9Scripting11UnityEngineL67__ManagedRegistrationHelperFunction_ExcludeFromPresetAttributeProxyEPv
6561:__ZN9Scripting11UnityEngineL54__ManagedRegistrationHelperFunction_ExecuteAlwaysProxyEPv
6562:__ZN9Scripting11UnityEngineL58__ManagedRegistrationHelperFunction_ExecuteInEditModeProxyEPv
6563:__ZN9Scripting11UnityEngine12Experimental18GlobalIlluminationL52__ManagedRegistrationHelperFunction_LightDataGIProxyEPv
6564:__ZN9Scripting11UnityEngine12Experimental18GlobalIlluminationL53__ManagedRegistrationHelperFunction_LightmappingProxyEPv
6565:__ZN9Scripting11UnityEngine12Experimental9PlayablesL55__ManagedRegistrationHelperFunction_CameraPlayableProxyEPv
6566:__ZN9Scripting11UnityEngine12Experimental9PlayablesL63__ManagedRegistrationHelperFunction_MaterialEffectPlayableProxyEPv
6567:__ZN9Scripting11UnityEngine12Experimental9PlayablesL61__ManagedRegistrationHelperFunction_TextureMixerPlayableProxyEPv
6568:__ZN9Scripting11UnityEngine12Experimental9PlayablesL62__ManagedRegistrationHelperFunction_TexturePlayableOutputProxyEPv
6569:__ZN9Scripting11UnityEngine12Experimental9RenderingL71__ManagedRegistrationHelperFunction_BuiltinRuntimeReflectionSystemProxyEPv
6570:__ZN9Scripting11UnityEngine12Experimental9RenderingL72__ManagedRegistrationHelperFunction_RayTracingAccelerationStructureProxyEPv
6571:__ZN9Scripting11UnityEngine12Experimental9RenderingL82__ManagedRegistrationHelperFunction_ScriptableRuntimeReflectionSystemSettingsProxyEPv
